TN:
SF:/Users/phil/Downloads/fractal/protocol/client/handle_server_message.c
FN:63,handle_server_message
FNDA:0,handle_server_message
FN:94,handle_pong_message
FNDA:0,handle_pong_message
FN:116,handle_quit_message
FNDA:0,handle_quit_message
FN:140,handle_audio_frequency_message
FNDA:0,handle_audio_frequency_message
FN:163,handle_clipboard_message
FNDA:0,handle_clipboard_message
FN:191,handle_window_title_message
FNDA:0,handle_window_title_message
FN:224,handle_open_uri_message
FNDA:0,handle_open_uri_message
DA:63,0
DA:75,0
DA:77,0
DA:79,0
DA:81,0
DA:83,0
DA:85,0
DA:87,0
DA:89,0
DA:90,0
DA:92,0
DA:94,0
DA:106,0
DA:107,0
DA:110,0
DA:112,0
DA:113,0
DA:114,0
DA:116,0
DA:128,0
DA:129,0
DA:130,0
DA:133,0
DA:135,0
DA:136,0
DA:137,0
DA:138,0
DA:140,0
DA:152,0
DA:153,0
DA:156,0
DA:158,0
DA:159,0
DA:160,0
DA:161,0
DA:163,0
DA:175,0
DA:176,0
DA:180,0
DA:182,0
DA:184,0
DA:185,0
DA:186,0
DA:188,0
DA:189,0
DA:191,0
DA:207,0
DA:208,0
DA:209,0
DA:211,0
DA:214,0
DA:215,0
DA:216,0
DA:217,0
DA:218,0
DA:220,0
DA:221,0
DA:222,0
DA:224,0
DA:235,0
DA:247,0
DA:248,0
DA:249,0
DA:250,0
DA:251,0
DA:252,0
DA:253,0
DA:254,0
FNF:7
FNH:0
LF:68
LH:0
end_of_record
TN:
SF:/Users/phil/Downloads/fractal/protocol/client/sdlscreeninfo.c
FN:17,get_window_pixel_width
FNDA:0,get_window_pixel_width
FN:23,get_window_pixel_height
FNDA:0,get_window_pixel_height
FN:29,get_window_virtual_width
FNDA:0,get_window_virtual_width
FN:35,get_window_virtual_height
FNDA:0,get_window_virtual_height
FN:41,get_virtual_screen_width
FNDA:0,get_virtual_screen_width
FN:49,get_virtual_screen_height
FNDA:0,get_virtual_screen_height
FN:57,get_pixel_screen_width
FNDA:0,get_pixel_screen_width
FN:64,get_pixel_screen_height
FNDA:0,get_pixel_screen_height
DA:17,0
DA:19,0
DA:20,0
DA:23,0
DA:25,0
DA:26,0
DA:29,0
DA:31,0
DA:32,0
DA:35,0
DA:37,0
DA:38,0
DA:41,0
DA:44,0
DA:45,0
DA:46,0
DA:49,0
DA:52,0
DA:53,0
DA:54,0
DA:57,0
DA:58,0
DA:59,0
DA:61,0
DA:64,0
DA:65,0
DA:66,0
DA:68,0
FNF:8
FNH:0
LF:28
LH:0
end_of_record
TN:
SF:/Users/phil/Downloads/fractal/protocol/client/native_window_utils_mac.m
FN:36,hide_native_window_taskbar
FNDA:0,hide_native_window_taskbar
FN:51,get_native_window
FNDA:0,get_native_window
FN:57,set_native_window_color
FNDA:0,set_native_window_color
FN:95,get_native_window_dpi
FNDA:0,get_native_window_dpi
FN:112,get_frame_color
FNDA:0,get_frame_color
FN:147,user_activity_deactivator
FNDA:0,user_activity_deactivator
FN:167,declare_user_activity
FNDA:0,declare_user_activity
DA:36,0
DA:41,0
DA:44,0
DA:47,0
DA:48,0
DA:49,0
DA:51,0
DA:52,0
DA:53,0
DA:54,0
DA:57,0
DA:70,0
DA:72,0
DA:74,0
DA:75,0
DA:77,0
DA:81,0
DA:82,0
DA:85,0
DA:88,0
DA:89,0
DA:90,0
DA:92,0
DA:95,0
DA:106,0
DA:108,0
DA:109,0
DA:112,0
DA:114,0
DA:115,0
DA:116,0
DA:117,0
DA:118,0
DA:119,0
DA:120,0
DA:121,0
DA:122,0
DA:123,0
DA:124,0
DA:125,0
DA:126,0
DA:127,0
DA:128,0
DA:129,0
DA:130,0
DA:131,0
DA:132,0
DA:133,0
DA:135,0
DA:147,0
DA:148,0
DA:150,0
DA:152,0
DA:153,0
DA:154,0
DA:155,0
DA:156,0
DA:157,0
DA:158,0
DA:159,0
DA:160,0
DA:161,0
DA:167,0
DA:168,0
DA:169,0
DA:170,0
DA:171,0
DA:172,0
DA:177,0
DA:179,0
DA:180,0
DA:181,0
DA:184,0
DA:185,0
DA:186,0
DA:191,0
DA:193,0
DA:194,0
DA:195,0
DA:197,0
DA:198,0
DA:200,0
DA:201,0
DA:202,0
FNF:7
FNH:0
LF:84
LH:0
end_of_record
TN:
SF:/Users/phil/Downloads/fractal/protocol/client/video.c
FN:194,sync_decoder_parameters
FNDA:0,sync_decoder_parameters
FN:218,get_true_render_rect
FNDA:0,get_true_render_rect
FN:263,request_iframe_to_catch_up
FNDA:0,request_iframe_to_catch_up
FN:333,update_cursor
FNDA:0,update_cursor
FN:403,new_sdl_rect
FNDA:0,new_sdl_rect
FN:418,update_window_titlebar_color
FNDA:0,update_window_titlebar_color
FN:444,multithreaded_destroy_decoder
FNDA:0,multithreaded_destroy_decoder
FN:460,update_decoder_parameters
FNDA:0,update_decoder_parameters
FN:492,loading_sdl
FNDA:0,loading_sdl
FN:549,request_iframe
FNDA:0,request_iframe
FN:572,update_sws_context
FNDA:0,update_sws_context
FN:609,update_sws_pixel_format
FNDA:0,update_sws_pixel_format
FN:622,finalize_video_context_data
FNDA:0,finalize_video_context_data
FN:651,replace_texture
FNDA:0,replace_texture
FN:674,render_peers
FNDA:0,render_peers
FN:707,clear_sdl
FNDA:0,clear_sdl
FN:721,calculate_statistics
FNDA:0,calculate_statistics
FN:760,skip_to_next_iframe
FNDA:0,skip_to_next_iframe
FN:803,init_video
FNDA:0,init_video
FN:816,update_video
FNDA:0,update_video
FN:901,receive_video
FNDA:0,receive_video
FN:947,init_video_renderer
FNDA:0,init_video_renderer
FN:1038,log_frame_statistics
FNDA:0,log_frame_statistics
FN:1094,render_video
FNDA:0,render_video
FN:1293,destroy_video
FNDA:0,destroy_video
FN:1323,set_video_active_resizing
FNDA:0,set_video_active_resizing
DA:194,0
DA:202,0
DA:203,0
DA:204,0
DA:205,0
DA:211,0
DA:212,0
DA:213,0
DA:215,0
DA:216,0
DA:218,0
DA:229,0
DA:230,0
DA:231,0
DA:232,0
DA:233,0
DA:239,0
DA:240,0
DA:243,0
DA:244,0
DA:245,0
DA:246,0
DA:247,0
DA:248,0
DA:250,0
DA:251,0
DA:252,0
DA:253,0
DA:257,0
DA:258,0
DA:260,0
DA:263,0
DA:269,0
DA:273,0
DA:274,0
DA:275,0
DA:276,0
DA:277,0
DA:281,0
DA:282,0
DA:288,0
DA:289,0
DA:319,0
DA:322,0
DA:323,0
DA:324,0
DA:328,0
DA:329,0
DA:331,0
DA:333,0
DA:340,0
DA:342,0
DA:343,0
DA:344,0
DA:345,0
DA:346,0
DA:347,0
DA:349,0
DA:350,0
DA:351,0
DA:355,0
DA:362,0
DA:366,0
DA:367,0
DA:368,0
DA:369,0
DA:370,0
DA:373,0
DA:377,0
DA:378,0
DA:379,0
DA:380,0
DA:381,0
DA:382,0
DA:384,0
DA:386,0
DA:388,0
DA:389,0
DA:391,0
DA:392,0
DA:393,0
DA:394,0
DA:395,0
DA:398,0
DA:399,0
DA:400,0
DA:401,0
DA:403,0
DA:411,0
DA:412,0
DA:413,0
DA:414,0
DA:415,0
DA:418,0
DA:422,0
DA:423,0
DA:424,0
DA:425,0
DA:427,0
DA:430,0
DA:431,0
DA:432,0
DA:433,0
DA:434,0
DA:435,0
DA:437,0
DA:438,0
DA:439,0
DA:440,0
DA:442,0
DA:444,0
DA:455,0
DA:456,0
DA:457,0
DA:460,0
DA:470,0
DA:472,0
DA:473,0
DA:474,0
DA:475,0
DA:476,0
DA:478,0
DA:479,0
DA:480,0
DA:482,0
DA:483,0
DA:484,0
DA:486,0
DA:487,0
DA:488,0
DA:489,0
DA:490,0
DA:492,0
DA:500,0
DA:503,0
DA:506,0
DA:507,0
DA:509,0
DA:510,0
DA:514,0
DA:515,0
DA:516,0
DA:517,0
DA:522,0
DA:525,0
DA:527,0
DA:528,0
DA:532,0
DA:533,0
DA:534,0
DA:535,0
DA:537,0
DA:538,0
DA:539,0
DA:540,0
DA:543,0
DA:545,0
DA:546,0
DA:547,0
DA:549,0
DA:557,0
DA:558,0
DA:559,0
DA:562,0
DA:563,0
DA:564,0
DA:565,0
DA:566,0
DA:568,0
DA:570,0
DA:572,0
DA:577,0
DA:578,0
DA:580,0
DA:582,0
DA:583,0
DA:584,0
DA:585,0
DA:586,0
DA:589,0
DA:590,0
DA:591,0
DA:592,0
DA:594,0
DA:596,0
DA:600,0
DA:602,0
DA:604,0
DA:605,0
DA:606,0
DA:607,0
DA:609,0
DA:615,0
DA:616,0
DA:617,0
DA:618,0
DA:619,0
DA:620,0
DA:622,0
DA:630,0
DA:632,0
DA:633,0
DA:634,0
DA:637,0
DA:638,0
DA:639,0
DA:640,0
DA:642,0
DA:644,0
DA:646,0
DA:649,0
DA:651,0
DA:658,0
DA:659,0
DA:660,0
DA:661,0
DA:663,0
DA:664,0
DA:666,0
DA:667,0
DA:671,0
DA:672,0
DA:674,0
DA:687,0
DA:690,0
DA:691,0
DA:692,0
DA:694,0
DA:695,0
DA:696,0
DA:698,0
DA:699,0
DA:700,0
DA:701,0
DA:702,0
DA:703,0
DA:704,0
DA:707,0
DA:715,0
DA:716,0
DA:717,0
DA:718,0
DA:721,0
DA:730,0
DA:731,0
DA:732,0
DA:733,0
DA:736,0
DA:737,0
DA:738,0
DA:739,0
DA:740,0
DA:741,0
DA:742,0
DA:743,0
DA:745,0
DA:746,0
DA:747,0
DA:748,0
DA:749,0
DA:750,0
DA:751,0
DA:752,0
DA:753,0
DA:754,0
DA:755,0
DA:756,0
DA:757,0
DA:758,0
DA:760,0
DA:766,0
DA:767,0
DA:768,0
DA:769,0
DA:770,0
DA:772,0
DA:773,0
DA:775,0
DA:776,0
DA:777,0
DA:778,0
DA:781,0
DA:782,0
DA:783,0
DA:784,0
DA:785,0
DA:786,0
DA:787,0
DA:788,0
DA:789,0
DA:790,0
DA:791,0
DA:792,0
DA:793,0
DA:794,0
DA:803,0
DA:807,0
DA:808,0
DA:809,0
DA:810,0
DA:811,0
DA:812,0
DA:816,0
DA:822,0
DA:823,0
DA:826,0
DA:827,0
DA:828,0
DA:830,0
DA:832,0
DA:833,0
DA:834,0
DA:838,0
DA:839,0
DA:841,0
DA:843,0
DA:845,0
DA:846,0
DA:847,0
DA:853,0
DA:854,0
DA:855,0
DA:856,0
DA:857,0
DA:858,0
DA:859,0
DA:860,0
DA:862,0
DA:863,0
DA:864,0
DA:865,0
DA:866,0
DA:867,0
DA:868,0
DA:869,0
DA:870,0
DA:871,0
DA:872,0
DA:873,0
DA:874,0
DA:875,0
DA:876,0
DA:881,0
DA:882,0
DA:883,0
DA:884,0
DA:885,0
DA:886,0
DA:887,0
DA:888,0
DA:889,0
DA:890,0
DA:891,0
DA:893,0
DA:894,0
DA:895,0
DA:896,0
DA:901,0
DA:921,0
DA:922,0
DA:923,0
DA:924,0
DA:926,0
DA:928,0
DA:929,0
DA:938,0
DA:939,0
DA:940,0
DA:941,0
DA:944,0
DA:945,0
DA:947,0
DA:955,0
DA:956,0
DA:957,0
DA:959,0
DA:961,0
DA:964,0
DA:966,0
DA:967,0
DA:968,0
DA:969,0
DA:975,0
DA:982,0
DA:983,0
DA:984,0
DA:986,0
DA:987,0
DA:988,0
DA:989,0
DA:993,0
DA:994,0
DA:997,0
DA:998,0
DA:1000,0
DA:1004,0
DA:1005,0
DA:1007,0
DA:1008,0
DA:1009,0
DA:1011,0
DA:1012,0
DA:1013,0
DA:1014,0
DA:1015,0
DA:1016,0
DA:1017,0
DA:1018,0
DA:1019,0
DA:1020,0
DA:1021,0
DA:1024,0
DA:1027,0
DA:1028,0
DA:1030,0
DA:1031,0
DA:1034,0
DA:1035,0
DA:1036,0
DA:1038,0
DA:1049,0
DA:1050,0
DA:1053,0
DA:1062,0
DA:1063,0
DA:1065,0
DA:1069,0
DA:1074,0
DA:1075,0
DA:1076,0
DA:1077,0
DA:1078,0
DA:1079,0
DA:1080,0
DA:1081,0
DA:1083,0
DA:1084,0
DA:1085,0
DA:1086,0
DA:1087,0
DA:1088,0
DA:1089,0
DA:1090,0
DA:1091,0
DA:1092,0
DA:1094,0
DA:1106,0
DA:1107,0
DA:1110,0
DA:1114,0
DA:1116,0
DA:1118,0
DA:1124,0
DA:1125,0
DA:1129,0
DA:1130,0
DA:1131,0
DA:1137,0
DA:1138,0
DA:1139,0
DA:1140,0
DA:1141,0
DA:1145,0
DA:1147,0
DA:1148,0
DA:1151,0
DA:1152,0
DA:1153,0
DA:1154,0
DA:1155,0
DA:1157,0
DA:1158,0
DA:1160,0
DA:1162,0
DA:1164,0
DA:1165,0
DA:1166,0
DA:1167,0
DA:1168,0
DA:1169,0
DA:1172,0
DA:1173,0
DA:1175,0
DA:1177,0
DA:1178,0
DA:1179,0
DA:1180,0
DA:1181,0
DA:1183,0
DA:1184,0
DA:1186,0
DA:1188,0
DA:1189,0
DA:1190,0
DA:1193,0
DA:1194,0
DA:1198,0
DA:1201,0
DA:1202,0
DA:1203,0
DA:1204,0
DA:1206,0
DA:1209,0
DA:1212,0
DA:1218,0
DA:1220,0
DA:1222,0
DA:1223,0
DA:1224,0
DA:1225,0
DA:1226,0
DA:1227,0
DA:1235,0
DA:1236,0
DA:1240,0
DA:1241,0
DA:1242,0
DA:1244,0
DA:1245,0
DA:1246,0
DA:1250,0
DA:1252,0
DA:1253,0
DA:1254,0
DA:1256,0
DA:1264,0
DA:1265,0
DA:1266,0
DA:1268,0
DA:1270,0
DA:1273,0
DA:1274,0
DA:1277,0
DA:1278,0
DA:1279,0
DA:1281,0
DA:1283,0
DA:1285,0
DA:1286,0
DA:1287,0
DA:1290,0
DA:1291,0
DA:1293,0
DA:1298,0
DA:1299,0
DA:1300,0
DA:1301,0
DA:1303,0
DA:1304,0
DA:1305,0
DA:1309,0
DA:1310,0
DA:1311,0
DA:1312,0
DA:1314,0
DA:1317,0
DA:1318,0
DA:1320,0
DA:1321,0
DA:1323,0
DA:1333,0
DA:1334,0
DA:1336,0
DA:1337,0
DA:1338,0
DA:1339,0
DA:1340,0
DA:1341,0
DA:1342,0
DA:1343,0
DA:1344,0
DA:1345,0
DA:1346,0
DA:1347,0
DA:1348,0
DA:1349,0
DA:1351,0
DA:1352,0
DA:1353,0
DA:1355,0
DA:1356,0
DA:1357,0
DA:1358,0
DA:1359,0
DA:1361,0
FNF:26
FNH:0
LF:585
LH:0
end_of_record
TN:
SF:/Users/phil/Downloads/fractal/protocol/client/bitrate.c
FN:48,fallback_bitrate
FNDA:0,fallback_bitrate
FN:68,ewma_bitrate
FNDA:0,ewma_bitrate
FN:94,ewma_ratio_bitrate
FNDA:0,ewma_ratio_bitrate
DA:48,0
DA:58,0
DA:59,0
DA:60,0
DA:61,0
DA:62,0
DA:63,0
DA:65,0
DA:68,0
DA:82,0
DA:83,0
DA:84,0
DA:86,0
DA:87,0
DA:88,0
DA:89,0
DA:90,0
DA:91,0
DA:94,0
DA:151,0
DA:152,0
DA:153,0
DA:154,0
DA:159,0
DA:160,0
DA:161,0
DA:162,0
DA:164,0
DA:166,0
DA:171,0
DA:172,0
DA:173,0
DA:174,0
DA:175,0
DA:176,0
DA:177,0
DA:178,0
DA:179,0
DA:180,0
DA:187,0
DA:188,0
DA:189,0
DA:191,0
DA:192,0
DA:197,0
DA:198,0
DA:199,0
DA:202,0
DA:205,0
DA:207,0
DA:208,0
DA:209,0
DA:210,0
DA:211,0
DA:212,0
DA:213,0
DA:214,0
DA:217,0
DA:218,0
DA:219,0
DA:220,0
DA:221,0
DA:223,0
DA:226,0
DA:233,0
DA:234,0
DA:235,0
DA:236,0
DA:237,0
DA:238,0
DA:239,0
DA:240,0
DA:241,0
DA:248,0
DA:249,0
DA:250,0
DA:252,0
DA:253,0
DA:258,0
DA:259,0
DA:260,0
DA:263,0
DA:266,0
DA:267,0
DA:268,0
DA:269,0
DA:270,0
DA:271,0
DA:272,0
FNF:3
FNH:0
LF:89
LH:0
end_of_record
TN:
SF:/Users/phil/Downloads/fractal/protocol/client/ringbuffer.c
FN:15,reset_ring_buffer
FNDA:0,reset_ring_buffer
FN:32,reset_bitrate_stat_members
FNDA:0,reset_bitrate_stat_members
FN:47,init_ring_buffer
FNDA:0,init_ring_buffer
FN:101,get_frame_at_id
FNDA:0,get_frame_at_id
FN:116,allocate_frame_buffer
FNDA:0,allocate_frame_buffer
FN:130,init_frame
FNDA:0,init_frame
FN:159,reset_frame
FNDA:0,reset_frame
FN:179,set_rendering
FNDA:0,set_rendering
FN:203,receive_packet
FNDA:0,receive_packet
FN:307,nack_packet
FNDA:0,nack_packet
FN:325,nack_missing_frames
FNDA:0,nack_missing_frames
FN:347,nack_missing_packets_up_to_index
FNDA:0,nack_missing_packets_up_to_index
FN:370,destroy_frame_buffer
FNDA:0,destroy_frame_buffer
FN:385,destroy_ring_buffer
FNDA:0,destroy_ring_buffer
DA:15,0
DA:22,0
DA:23,0
DA:24,0
DA:25,0
DA:26,0
DA:27,0
DA:28,0
DA:29,0
DA:30,0
DA:32,0
DA:41,0
DA:42,0
DA:43,0
DA:44,0
DA:45,0
DA:47,0
DA:59,0
DA:60,0
DA:62,0
DA:64,0
DA:65,0
DA:66,0
DA:69,0
DA:70,0
DA:71,0
DA:72,0
DA:73,0
DA:75,0
DA:76,0
DA:78,0
DA:79,0
DA:80,0
DA:81,0
DA:82,0
DA:83,0
DA:84,0
DA:85,0
DA:88,0
DA:89,0
DA:91,0
DA:92,0
DA:95,0
DA:96,0
DA:98,0
DA:99,0
DA:101,0
DA:113,0
DA:116,0
DA:125,0
DA:126,0
DA:127,0
DA:128,0
DA:130,0
DA:140,0
DA:141,0
DA:142,0
DA:144,0
DA:145,0
DA:146,0
DA:147,0
DA:148,0
DA:149,0
DA:150,0
DA:151,0
DA:153,0
DA:154,0
DA:155,0
DA:156,0
DA:157,0
DA:159,0
DA:169,0
DA:170,0
DA:171,0
DA:172,0
DA:173,0
DA:174,0
DA:176,0
DA:177,0
DA:179,0
DA:190,0
DA:192,0
DA:193,0
DA:195,0
DA:196,0
DA:197,0
DA:199,0
DA:200,0
DA:201,0
DA:203,0
DA:217,0
DA:219,0
DA:221,0
DA:224,0
DA:225,0
DA:226,0
DA:228,0
DA:229,0
DA:232,0
DA:233,0
DA:237,0
DA:240,0
DA:244,0
DA:245,0
DA:246,0
DA:248,0
DA:249,0
DA:251,0
DA:254,0
DA:255,0
DA:256,0
DA:257,0
DA:258,0
DA:261,0
DA:262,0
DA:264,0
DA:267,0
DA:268,0
DA:269,0
DA:273,0
DA:274,0
DA:275,0
DA:279,0
DA:280,0
DA:282,0
DA:283,0
DA:284,0
DA:285,0
DA:286,0
DA:287,0
DA:289,0
DA:290,0
DA:291,0
DA:292,0
DA:294,0
DA:295,0
DA:297,0
DA:298,0
DA:299,0
DA:300,0
DA:301,0
DA:303,0
DA:305,0
DA:307,0
DA:316,0
DA:317,0
DA:318,0
DA:319,0
DA:320,0
DA:321,0
DA:322,0
DA:323,0
DA:325,0
DA:335,0
DA:337,0
DA:338,0
DA:339,0
DA:340,0
DA:341,0
DA:342,0
DA:343,0
DA:344,0
DA:345,0
DA:347,0
DA:356,0
DA:357,0
DA:358,0
DA:359,0
DA:360,0
DA:361,0
DA:362,0
DA:363,0
DA:364,0
DA:366,0
DA:367,0
DA:368,0
DA:370,0
DA:379,0
DA:380,0
DA:381,0
DA:382,0
DA:383,0
DA:385,0
DA:393,0
DA:394,0
DA:395,0
DA:396,0
DA:397,0
DA:398,0
DA:400,0
DA:402,0
DA:403,0
FNF:14
FNH:0
LF:192
LH:0
end_of_record
TN:
SF:/Users/phil/Downloads/fractal/protocol/client/peercursor.c
FN:7,replace_color
FNDA:0,replace_color
FN:19,duplicate_surface
FNDA:0,duplicate_surface
FN:45,init_peer_cursors
FNDA:0,init_peer_cursors
FN:77,destroy_peer_cursors
FNDA:0,destroy_peer_cursors
FN:82,draw_peer_cursor
FNDA:0,draw_peer_cursor
DA:7,0
DA:8,0
DA:9,0
DA:10,0
DA:11,0
DA:12,0
DA:13,0
DA:14,0
DA:15,0
DA:16,0
DA:17,0
DA:19,0
DA:20,0
DA:21,0
DA:22,0
DA:24,0
DA:25,0
DA:26,0
DA:27,0
DA:28,0
DA:32,0
DA:34,0
DA:35,0
DA:39,0
DA:40,0
DA:42,0
DA:43,0
DA:45,0
DA:46,0
DA:47,0
DA:48,0
DA:49,0
DA:51,0
DA:52,0
DA:56,0
DA:57,0
DA:59,0
DA:60,0
DA:61,0
DA:62,0
DA:64,0
DA:65,0
DA:66,0
DA:70,0
DA:71,0
DA:73,0
DA:74,0
DA:75,0
DA:77,0
DA:78,0
DA:79,0
DA:82,0
DA:83,0
DA:84,0
DA:85,0
DA:86,0
DA:88,0
DA:89,0
DA:93,0
DA:94,0
DA:97,0
DA:98,0
DA:99,0
DA:101,0
DA:102,0
DA:103,0
DA:104,0
DA:108,0
DA:112,0
DA:113,0
DA:114,0
DA:115,0
DA:117,0
DA:118,0
DA:122,0
DA:123,0
DA:125,0
DA:126,0
DA:127,0
FNF:5
FNH:0
LF:79
LH:0
end_of_record
TN:
SF:/Users/phil/Downloads/fractal/protocol/client/sdl_event_handler.c
FN:85,handle_window_size_changed
FNDA:0,handle_window_size_changed
FN:169,handle_mouse_left_window
FNDA:0,handle_mouse_left_window
FN:187,handle_key_up_down
FNDA:0,handle_key_up_down
FN:260,handle_mouse_motion
FNDA:0,handle_mouse_motion
FN:299,handle_mouse_button_up_down
FNDA:0,handle_mouse_button_up_down
FN:323,handle_mouse_wheel
FNDA:0,handle_mouse_wheel
FN:365,handle_pinch
FNDA:0,handle_pinch
FN:403,handle_multi_gesture
FNDA:0,handle_multi_gesture
FN:423,try_handle_sdl_event
FNDA:0,try_handle_sdl_event
FN:440,handle_sdl_event
FNDA:0,handle_sdl_event
DA:85,0
DA:99,0
DA:105,0
DA:106,0
DA:107,0
DA:108,0
DA:115,0
DA:116,0
DA:120,0
DA:122,0
DA:123,0
DA:124,0
DA:125,0
DA:126,0
DA:127,0
DA:128,0
DA:129,0
DA:132,0
DA:133,0
DA:135,0
DA:136,0
DA:138,0
DA:139,0
DA:144,0
DA:145,0
DA:146,0
DA:151,0
DA:153,0
DA:154,0
DA:155,0
DA:156,0
DA:157,0
DA:158,0
DA:159,0
DA:161,0
DA:163,0
DA:166,0
DA:169,0
DA:180,0
DA:181,0
DA:182,0
DA:183,0
DA:184,0
DA:187,0
DA:198,0
DA:199,0
DA:200,0
DA:208,0
DA:209,0
DA:210,0
DA:211,0
DA:212,0
DA:213,0
DA:214,0
DA:215,0
DA:216,0
DA:217,0
DA:218,0
DA:219,0
DA:220,0
DA:221,0
DA:222,0
DA:224,0
DA:225,0
DA:226,0
DA:227,0
DA:229,0
DA:230,0
DA:231,0
DA:232,0
DA:233,0
DA:234,0
DA:236,0
DA:237,0
DA:238,0
DA:239,0
DA:240,0
DA:241,0
DA:243,0
DA:244,0
DA:245,0
DA:246,0
DA:247,0
DA:248,0
DA:250,0
DA:251,0
DA:252,0
DA:253,0
DA:254,0
DA:255,0
DA:257,0
DA:260,0
DA:275,0
DA:277,0
DA:280,0
DA:281,0
DA:283,0
DA:285,0
DA:286,0
DA:287,0
DA:289,0
DA:290,0
DA:291,0
DA:292,0
DA:294,0
DA:296,0
DA:297,0
DA:299,0
DA:310,0
DA:311,0
DA:313,0
DA:314,0
DA:315,0
DA:316,0
DA:317,0
DA:318,0
DA:320,0
DA:323,0
DA:335,0
DA:336,0
DA:339,0
DA:340,0
DA:342,0
DA:343,0
DA:344,0
DA:345,0
DA:346,0
DA:347,0
DA:350,0
DA:351,0
DA:354,0
DA:355,0
DA:356,0
DA:357,0
DA:358,0
DA:359,0
DA:360,0
DA:362,0
DA:363,0
DA:365,0
DA:376,0
DA:377,0
DA:378,0
DA:379,0
DA:383,0
DA:385,0
DA:386,0
DA:387,0
DA:388,0
DA:389,0
DA:390,0
DA:391,0
DA:392,0
DA:394,0
DA:395,0
DA:396,0
DA:398,0
DA:400,0
DA:403,0
DA:404,0
DA:405,0
DA:406,0
DA:407,0
DA:408,0
DA:409,0
DA:410,0
DA:412,0
DA:414,0
DA:423,0
DA:432,0
DA:433,0
DA:434,0
DA:436,0
DA:437,0
DA:438,0
DA:440,0
DA:449,0
DA:450,0
DA:451,0
DA:453,0
DA:455,0
DA:456,0
DA:457,0
DA:459,0
DA:460,0
DA:461,0
DA:463,0
DA:465,0
DA:466,0
DA:467,0
DA:468,0
DA:469,0
DA:470,0
DA:471,0
DA:472,0
DA:473,0
DA:474,0
DA:486,0
DA:491,0
DA:492,0
DA:496,0
DA:497,0
DA:499,0
DA:502,0
DA:503,0
DA:505,0
DA:509,0
DA:510,0
DA:512,0
DA:515,0
DA:516,0
DA:518,0
DA:521,0
DA:522,0
DA:524,0
DA:527,0
DA:528,0
DA:530,0
DA:533,0
DA:534,0
DA:535,0
DA:538,0
DA:539,0
FNF:10
FNH:0
LF:223
LH:0
end_of_record
TN:
SF:/Users/phil/Downloads/fractal/protocol/client/sdl_utils.c
FN:48,send_captured_key
FNDA:0,send_captured_key
FN:68,resizing_event_watcher
FNDA:0,resizing_event_watcher
FN:92,set_window_icon_from_png
FNDA:0,set_window_icon_from_png
FN:109,init_sdl
FNDA:0,init_sdl
FN:215,destroy_sdl
FNDA:0,destroy_sdl
FN:317,sdl_surface_from_png_file
FNDA:0,sdl_surface_from_png_file
FN:359,free_sdl_rgb_surface
FNDA:0,free_sdl_rgb_surface
FN:366,safe_SDL_CreateMutex
FNDA:0,safe_SDL_CreateMutex
FN:374,safe_SDL_LockMutex
FNDA:0,safe_SDL_LockMutex
FN:380,safe_SDL_TryLockMutex
FNDA:0,safe_SDL_TryLockMutex
FN:389,safe_SDL_UnlockMutex
FNDA:0,safe_SDL_UnlockMutex
FN:395,safe_SDL_CondWait
FNDA:0,safe_SDL_CondWait
DA:48,0
DA:59,0
DA:60,0
DA:61,0
DA:62,0
DA:63,0
DA:64,0
DA:65,0
DA:66,0
DA:68,0
DA:81,0
DA:83,0
DA:84,0
DA:86,0
DA:87,0
DA:88,0
DA:89,0
DA:92,0
DA:104,0
DA:105,0
DA:106,0
DA:107,0
DA:109,0
DA:137,0
DA:138,0
DA:139,0
DA:143,0
DA:146,0
DA:147,0
DA:149,0
DA:154,0
DA:155,0
DA:156,0
DA:158,0
DA:159,0
DA:160,0
DA:164,0
DA:165,0
DA:166,0
DA:168,0
DA:169,0
DA:170,0
DA:174,0
DA:175,0
DA:176,0
DA:177,0
DA:178,0
DA:179,0
DA:189,0
DA:190,0
DA:194,0
DA:195,0
DA:196,0
DA:198,0
DA:199,0
DA:202,0
DA:209,0
DA:210,0
DA:212,0
DA:213,0
DA:215,0
DA:223,0
DA:227,0
DA:228,0
DA:229,0
DA:230,0
DA:231,0
DA:232,0
DA:317,0
DA:339,0
DA:340,0
DA:341,0
DA:342,0
DA:346,0
DA:347,0
DA:350,0
DA:351,0
DA:352,0
DA:353,0
DA:356,0
DA:357,0
DA:359,0
DA:361,0
DA:362,0
DA:363,0
DA:364,0
DA:366,0
DA:367,0
DA:368,0
DA:369,0
DA:371,0
DA:374,0
DA:375,0
DA:376,0
DA:378,0
DA:380,0
DA:381,0
DA:382,0
DA:383,0
DA:385,0
DA:389,0
DA:390,0
DA:391,0
DA:393,0
DA:395,0
DA:396,0
DA:397,0
DA:399,0
FNF:12
FNH:0
LF:108
LH:0
end_of_record
TN:
SF:/Users/phil/Downloads/fractal/protocol/client/network.c
FN:63,discover_ports
FNDA:0,discover_ports
FN:169,send_ping
FNDA:0,send_ping
FN:188,receive_pong
FNDA:0,receive_pong
FN:208,connect_to_server
FNDA:0,connect_to_server
FN:258,close_connections
FNDA:0,close_connections
FN:272,send_server_quit_messages
FNDA:0,send_server_quit_messages
FN:299,send_fmsg
FNDA:0,send_fmsg
DA:63,0
DA:78,0
DA:79,0
DA:80,0
DA:87,0
DA:88,0
DA:95,0
DA:96,0
DA:97,0
DA:99,0
DA:101,0
DA:102,0
DA:103,0
DA:104,0
DA:106,0
DA:109,0
DA:111,0
DA:112,0
DA:113,0
DA:114,0
DA:115,0
DA:116,0
DA:120,0
DA:121,0
DA:122,0
DA:125,0
DA:126,0
DA:128,0
DA:133,0
DA:134,0
DA:136,0
DA:137,0
DA:138,0
DA:139,0
DA:142,0
DA:145,0
DA:146,0
DA:147,0
DA:148,0
DA:149,0
DA:150,0
DA:153,0
DA:154,0
DA:155,0
DA:156,0
DA:157,0
DA:160,0
DA:164,0
DA:166,0
DA:167,0
DA:169,0
DA:176,0
DA:177,0
DA:178,0
DA:180,0
DA:181,0
DA:182,0
DA:183,0
DA:184,0
DA:185,0
DA:186,0
DA:188,0
DA:195,0
DA:197,0
DA:198,0
DA:200,0
DA:201,0
DA:202,0
DA:203,0
DA:204,0
DA:206,0
DA:208,0
DA:219,0
DA:220,0
DA:221,0
DA:222,0
DA:224,0
DA:225,0
DA:226,0
DA:229,0
DA:230,0
DA:231,0
DA:232,0
DA:239,0
DA:240,0
DA:241,0
DA:242,0
DA:243,0
DA:246,0
DA:247,0
DA:248,0
DA:249,0
DA:250,0
DA:253,0
DA:255,0
DA:256,0
DA:258,0
DA:266,0
DA:267,0
DA:268,0
DA:269,0
DA:272,0
DA:284,0
DA:285,0
DA:286,0
DA:287,0
DA:288,0
DA:289,0
DA:290,0
DA:291,0
DA:292,0
DA:293,0
DA:299,0
DA:316,0
DA:317,0
DA:319,0
DA:320,0
DA:322,0
DA:323,0
DA:326,0
DA:329,0
DA:330,0
DA:331,0
DA:333,0
FNF:7
FNH:0
LF:124
LH:0
end_of_record
TN:
SF:/Users/phil/Downloads/fractal/protocol/client/audio.c
FN:100,destroy_audio_device
FNDA:0,destroy_audio_device
FN:114,reinit_audio_device
FNDA:0,reinit_audio_device
FN:150,sync_audio_device
FNDA:0,sync_audio_device
FN:168,catchup_audio
FNDA:0,catchup_audio
FN:192,is_next_audio_frame_valid
FNDA:0,is_next_audio_frame_valid
FN:212,buffer_audio
FNDA:0,buffer_audio
FN:247,flush_next_audio_frame
FNDA:0,flush_next_audio_frame
FN:258,flush_audio
FNDA:0,flush_audio
FN:290,update_render_context
FNDA:0,update_render_context
FN:307,is_valid_audio_frequency
FNDA:0,is_valid_audio_frequency
FN:325,send_next_frame_to_decoder
FNDA:0,send_next_frame_to_decoder
FN:338,get_next_audio_frame
FNDA:0,get_next_audio_frame
FN:365,init_audio
FNDA:0,init_audio
FN:377,destroy_audio
FNDA:0,destroy_audio
FN:386,enable_audio_refresh
FNDA:0,enable_audio_refresh
FN:388,set_audio_frequency
FNDA:0,set_audio_frequency
FN:393,render_audio
FNDA:0,render_audio
FN:426,update_audio
FNDA:0,update_audio
FN:478,receive_audio
FNDA:0,receive_audio
DA:100,0
DA:104,0
DA:105,0
DA:106,0
DA:107,0
DA:108,0
DA:109,0
DA:110,0
DA:111,0
DA:112,0
DA:114,0
DA:119,0
DA:120,0
DA:123,0
DA:124,0
DA:125,0
DA:127,0
DA:128,0
DA:129,0
DA:130,0
DA:131,0
DA:132,0
DA:133,0
DA:135,0
DA:136,0
DA:137,0
DA:138,0
DA:140,0
DA:141,0
DA:143,0
DA:144,0
DA:145,0
DA:146,0
DA:148,0
DA:150,0
DA:155,0
DA:156,0
DA:157,0
DA:158,0
DA:162,0
DA:163,0
DA:164,0
DA:165,0
DA:166,0
DA:168,0
DA:175,0
DA:176,0
DA:177,0
DA:182,0
DA:183,0
DA:184,0
DA:185,0
DA:186,0
DA:187,0
DA:188,0
DA:189,0
DA:190,0
DA:192,0
DA:201,0
DA:203,0
DA:208,0
DA:209,0
DA:212,0
DA:226,0
DA:227,0
DA:230,0
DA:231,0
DA:233,0
DA:234,0
DA:237,0
DA:238,0
DA:239,0
DA:241,0
DA:242,0
DA:243,0
DA:244,0
DA:247,0
DA:251,0
DA:252,0
DA:256,0
DA:258,0
DA:274,0
DA:275,0
DA:277,0
DA:278,0
DA:280,0
DA:281,0
DA:282,0
DA:283,0
DA:284,0
DA:285,0
DA:287,0
DA:290,0
DA:295,0
DA:296,0
DA:300,0
DA:302,0
DA:304,0
DA:305,0
DA:307,0
DA:314,0
DA:315,0
DA:316,0
DA:317,0
DA:319,0
DA:321,0
DA:323,0
DA:325,0
DA:326,0
DA:327,0
DA:328,0
DA:330,0
DA:332,0
DA:333,0
DA:335,0
DA:336,0
DA:338,0
DA:349,0
DA:350,0
DA:352,0
DA:353,0
DA:354,0
DA:365,0
DA:369,0
DA:370,0
DA:373,0
DA:374,0
DA:375,0
DA:377,0
DA:378,0
DA:380,0
DA:381,0
DA:383,0
DA:384,0
DA:386,0
DA:388,0
DA:389,0
DA:390,0
DA:391,0
DA:393,0
DA:399,0
DA:400,0
DA:402,0
DA:403,0
DA:406,0
DA:408,0
DA:413,0
DA:414,0
DA:415,0
DA:417,0
DA:418,0
DA:419,0
DA:422,0
DA:423,0
DA:424,0
DA:426,0
DA:433,0
DA:437,0
DA:440,0
DA:441,0
DA:443,0
DA:444,0
DA:451,0
DA:454,0
DA:455,0
DA:459,0
DA:460,0
DA:463,0
DA:464,0
DA:466,0
DA:468,0
DA:469,0
DA:470,0
DA:471,0
DA:473,0
DA:478,0
DA:492,0
DA:493,0
DA:495,0
DA:499,0
DA:500,0
DA:501,0
DA:503,0
DA:504,0
DA:505,0
DA:506,0
DA:507,0
DA:508,0
DA:509,0
DA:510,0
FNF:19
FNH:0
LF:190
LH:0
end_of_record
TN:
SF:/Users/phil/Downloads/fractal/protocol/client/sync_packets.c
FN:74,init_updater
FNDA:0,init_updater
FN:97,update_ping
FNDA:0,update_ping
FN:137,update_initial_dimensions
FNDA:0,update_initial_dimensions
FN:149,try_update_bitrate
FNDA:0,try_update_bitrate
FN:165,destroy_updater
FNDA:0,destroy_updater
FN:188,multithreaded_sync_udp_packets
FNDA:0,multithreaded_sync_udp_packets
FN:312,multithreaded_sync_tcp_packets
FNDA:0,multithreaded_sync_tcp_packets
DA:74,0
DA:81,0
DA:83,0
DA:84,0
DA:88,0
DA:89,0
DA:90,0
DA:92,0
DA:94,0
DA:95,0
DA:97,0
DA:105,0
DA:106,0
DA:107,0
DA:111,0
DA:112,0
DA:114,0
DA:115,0
DA:116,0
DA:120,0
DA:121,0
DA:122,0
DA:123,0
DA:126,0
DA:127,0
DA:128,0
DA:129,0
DA:132,0
DA:133,0
DA:134,0
DA:135,0
DA:137,0
DA:141,0
DA:142,0
DA:143,0
DA:144,0
DA:145,0
DA:146,0
DA:147,0
DA:149,0
DA:153,0
DA:154,0
DA:155,0
DA:156,0
DA:157,0
DA:158,0
DA:159,0
DA:161,0
DA:162,0
DA:163,0
DA:165,0
DA:169,0
DA:170,0
DA:171,0
DA:188,0
DA:193,0
DA:209,0
DA:212,0
DA:214,0
DA:216,0
DA:217,0
DA:218,0
DA:219,0
DA:220,0
DA:221,0
DA:222,0
DA:223,0
DA:224,0
DA:225,0
DA:226,0
DA:231,0
DA:232,0
DA:233,0
DA:234,0
DA:236,0
DA:237,0
DA:238,0
DA:239,0
DA:242,0
DA:244,0
DA:246,0
DA:249,0
DA:252,0
DA:254,0
DA:256,0
DA:257,0
DA:261,0
DA:262,0
DA:263,0
DA:267,0
DA:270,0
DA:273,0
DA:274,0
DA:275,0
DA:276,0
DA:277,0
DA:280,0
DA:281,0
DA:282,0
DA:283,0
DA:284,0
DA:287,0
DA:288,0
DA:289,0
DA:290,0
DA:291,0
DA:292,0
DA:294,0
DA:295,0
DA:297,0
DA:300,0
DA:301,0
DA:303,0
DA:305,0
DA:307,0
DA:309,0
DA:312,0
DA:323,0
DA:324,0
DA:327,0
DA:333,0
DA:334,0
DA:337,0
DA:341,0
DA:342,0
DA:343,0
DA:344,0
DA:348,0
DA:351,0
DA:352,0
DA:353,0
DA:354,0
DA:355,0
DA:356,0
DA:361,0
DA:362,0
DA:364,0
DA:365,0
DA:368,0
DA:369,0
DA:370,0
DA:373,0
DA:375,0
DA:377,0
DA:378,0
DA:382,0
DA:383,0
DA:384,0
DA:385,0
DA:388,0
FNF:7
FNH:0
LF:150
LH:0
end_of_record
TN:
SF:/Users/phil/Downloads/fractal/protocol/client/client_utils.c
FN:99,dupstring
FNDA:0,dupstring
FN:118,evaluate_arg
FNDA:0,evaluate_arg
FN:269,client_parse_args
FNDA:0,client_parse_args
FN:378,read_piped_arguments
FNDA:0,read_piped_arguments
FN:560,init_socket_library
FNDA:0,init_socket_library
FN:579,destroy_socket_library
FNDA:0,destroy_socket_library
FN:594,alloc_parsed_args
FNDA:0,alloc_parsed_args
FN:612,free_parsed_args
FNDA:0,free_parsed_args
FN:626,prepare_init_to_server
FNDA:0,prepare_init_to_server
FN:663,update_mouse_motion
FNDA:0,update_mouse_motion
FN:721,send_message_dimensions
FNDA:0,send_message_dimensions
DA:99,0
DA:110,0
DA:111,0
DA:112,0
DA:113,0
DA:114,0
DA:115,0
DA:118,0
DA:134,0
DA:136,0
DA:138,0
DA:139,0
DA:140,0
DA:141,0
DA:143,0
DA:144,0
DA:147,0
DA:148,0
DA:149,0
DA:150,0
DA:152,0
DA:153,0
DA:156,0
DA:157,0
DA:158,0
DA:159,0
DA:161,0
DA:162,0
DA:165,0
DA:166,0
DA:167,0
DA:168,0
DA:169,0
DA:170,0
DA:171,0
DA:172,0
DA:174,0
DA:177,0
DA:179,0
DA:180,0
DA:181,0
DA:183,0
DA:186,0
DA:187,0
DA:188,0
DA:190,0
DA:193,0
DA:194,0
DA:197,0
DA:198,0
DA:199,0
DA:201,0
DA:204,0
DA:205,0
DA:208,0
DA:209,0
DA:211,0
DA:212,0
DA:214,0
DA:215,0
DA:217,0
DA:218,0
DA:220,0
DA:221,0
DA:222,0
DA:223,0
DA:226,0
DA:227,0
DA:230,0
DA:232,0
DA:235,0
DA:236,0
DA:237,0
DA:240,0
DA:241,0
DA:244,0
DA:245,0
DA:248,0
DA:249,0
DA:252,0
DA:254,0
DA:255,0
DA:257,0
DA:260,0
DA:261,0
DA:269,0
DA:282,0
DA:285,0
DA:318,0
DA:320,0
DA:323,0
DA:326,0
DA:329,0
DA:330,0
DA:332,0
DA:333,0
DA:334,0
DA:335,0
DA:336,0
DA:337,0
DA:342,0
DA:344,0
DA:345,0
DA:348,0
DA:349,0
DA:352,0
DA:353,0
DA:356,0
DA:358,0
DA:359,0
DA:361,0
DA:362,0
DA:363,0
DA:364,0
DA:366,0
DA:367,0
DA:370,0
DA:372,0
DA:375,0
DA:376,0
DA:378,0
DA:392,0
DA:393,0
DA:399,0
DA:400,0
DA:401,0
DA:402,0
DA:420,0
DA:421,0
DA:424,0
DA:425,0
DA:426,0
DA:427,0
DA:428,0
DA:443,0
DA:445,0
DA:447,0
DA:450,0
DA:451,0
DA:452,0
DA:453,0
DA:454,0
DA:455,0
DA:460,0
DA:461,0
DA:462,0
DA:463,0
DA:464,0
DA:465,0
DA:466,0
DA:474,0
DA:476,0
DA:477,0
DA:478,0
DA:479,0
DA:480,0
DA:481,0
DA:483,0
DA:484,0
DA:487,0
DA:488,0
DA:489,0
DA:491,0
DA:493,0
DA:494,0
DA:497,0
DA:498,0
DA:499,0
DA:501,0
DA:502,0
DA:503,0
DA:505,0
DA:507,0
DA:509,0
DA:510,0
DA:512,0
DA:514,0
DA:516,0
DA:517,0
DA:518,0
DA:519,0
DA:520,0
DA:522,0
DA:524,0
DA:525,0
DA:526,0
DA:528,0
DA:529,0
DA:530,0
DA:531,0
DA:532,0
DA:533,0
DA:535,0
DA:538,0
DA:541,0
DA:543,0
DA:544,0
DA:545,0
DA:546,0
DA:548,0
DA:551,0
DA:552,0
DA:554,0
DA:557,0
DA:558,0
DA:560,0
DA:576,0
DA:579,0
DA:591,0
DA:594,0
DA:601,0
DA:603,0
DA:604,0
DA:607,0
DA:609,0
DA:610,0
DA:612,0
DA:619,0
DA:620,0
DA:621,0
DA:623,0
DA:626,0
DA:641,0
DA:642,0
DA:643,0
DA:646,0
DA:647,0
DA:648,0
DA:655,0
DA:660,0
DA:661,0
DA:663,0
DA:672,0
DA:674,0
DA:678,0
DA:679,0
DA:680,0
DA:681,0
DA:682,0
DA:683,0
DA:686,0
DA:687,0
DA:688,0
DA:689,0
DA:690,0
DA:691,0
DA:694,0
DA:695,0
DA:696,0
DA:697,0
DA:698,0
DA:699,0
DA:703,0
DA:704,0
DA:705,0
DA:706,0
DA:707,0
DA:708,0
DA:709,0
DA:710,0
DA:711,0
DA:714,0
DA:715,0
DA:716,0
DA:717,0
DA:718,0
DA:719,0
DA:721,0
DA:724,0
DA:725,0
DA:726,0
DA:727,0
DA:728,0
DA:729,0
DA:730,0
DA:732,0
DA:733,0
FNF:11
FNH:0
LF:277
LH:0
end_of_record
TN:
SF:/Library/Developer/CommandLineTools/SDKs/MacOSX.sdk/usr/include/c++/v1/locale
FN:1378,_ZNSt3__116__pad_and_outputIcNS_11char_traitsIcEEEENS_19ostreambuf_iteratorIT_T0_EES6_PKS4_S8_S8_RNS_8ios_baseES4_
FNDA:459,_ZNSt3__116__pad_and_outputIcNS_11char_traitsIcEEEENS_19ostreambuf_iteratorIT_T0_EES6_PKS4_S8_S8_RNS_8ios_baseES4_
DA:1378,459
DA:1382,459
DA:1383,0
DA:1384,459
DA:1385,459
DA:1386,459
DA:1387,0
DA:1389,459
DA:1390,459
DA:1391,459
DA:1393,0
DA:1395,0
DA:1396,0
DA:1398,0
DA:1399,459
DA:1401,0
DA:1402,0
DA:1404,0
DA:1405,0
DA:1407,0
DA:1408,459
DA:1409,459
DA:1411,459
DA:1413,0
DA:1414,0
DA:1416,459
DA:1417,459
DA:1418,459
DA:1419,459
FNF:1
FNH:1
LF:29
LH:16
end_of_record
SF:/Users/phil/Downloads/fractal/protocol/build/_deps/googletest-src/googletest/include/gtest/gtest-printers.h
FN:210,_ZN7testing8internal52internal_stream_operator_without_lexical_name_lookup13StreamPrinter10PrintValueIivRNSt3__113basic_ostreamIcNS4_11char_traitsIcEEEEEEvRKT_PS8_
FNDA:0,_ZN7testing8internal52internal_stream_operator_without_lexical_name_lookup13StreamPrinter10PrintValueIivRNSt3__113basic_ostreamIcNS4_11char_traitsIcEEEEEEvRKT_PS8_
FN:304,_ZN7testing8internal17PrintWithFallbackIiEEvRKT_PNSt3__113basic_ostreamIcNS5_11char_traitsIcEEEE
FNDA:0,_ZN7testing8internal17PrintWithFallbackIiEEvRKT_PNSt3__113basic_ostreamIcNS5_11char_traitsIcEEEE
FN:331,_ZN7testing8internal19FormatForComparisonIiiE6FormatERKi
FNDA:0,_ZN7testing8internal19FormatForComparisonIiiE6FormatERKi
FN:411,_ZN7testing8internal33FormatForComparisonFailureMessageIiiEENSt3__112basic_stringIcNS2_11char_traitsIcEENS2_9allocatorIcEEEERKT_RKT0_
FNDA:0,_ZN7testing8internal33FormatForComparisonFailureMessageIiiEENSt3__112basic_stringIcNS2_11char_traitsIcEENS2_9allocatorIcEEEERKT_RKT0_
FN:438,_ZN7testing8internal7PrintToIiEEvRKT_PNSt3__113basic_ostreamIcNS5_11char_traitsIcEEEE
FNDA:0,_ZN7testing8internal7PrintToIiEEvRKT_PNSt3__113basic_ostreamIcNS5_11char_traitsIcEEEE
FN:680,_ZN7testing8internal16UniversalPrinterIiE5PrintERKiPNSt3__113basic_ostreamIcNS5_11char_traitsIcEEEE
FNDA:0,_ZN7testing8internal16UniversalPrinterIiE5PrintERKiPNSt3__113basic_ostreamIcNS5_11char_traitsIcEEEE
FN:862,_ZN7testing8internal21UniversalTersePrinterIiE5PrintERKiPNSt3__113basic_ostreamIcNS5_11char_traitsIcEEEE
FNDA:0,_ZN7testing8internal21UniversalTersePrinterIiE5PrintERKiPNSt3__113basic_ostreamIcNS5_11char_traitsIcEEEE
FN:974,_ZN7testing8internal14UniversalPrintIiEEvRKT_PNSt3__113basic_ostreamIcNS5_11char_traitsIcEEEE
FNDA:0,_ZN7testing8internal14UniversalPrintIiEEvRKT_PNSt3__113basic_ostreamIcNS5_11char_traitsIcEEEE
FN:1014,_ZN7testing13PrintToStringIiEENSt3__112basic_stringIcNS1_11char_traitsIcEENS1_9allocatorIcEEEERKT_
FNDA:0,_ZN7testing13PrintToStringIiEENSt3__112basic_stringIcNS1_11char_traitsIcEENS1_9allocatorIcEEEERKT_
DA:210,0
DA:213,0
DA:214,0
DA:304,0
DA:310,0
DA:311,0
DA:331,0
DA:332,0
DA:411,0
DA:413,0
DA:438,0
DA:439,0
DA:440,0
DA:680,0
DA:689,0
DA:690,0
DA:862,0
DA:863,0
DA:864,0
DA:974,0
DA:978,0
DA:979,0
DA:1014,0
DA:1015,0
DA:1016,0
DA:1017,0
DA:1018,0
FNF:9
FNH:0
LF:27
LH:0
end_of_record
SF:/Library/Developer/CommandLineTools/SDKs/MacOSX.sdk/usr/include/c++/v1/algorithm
FN:715,_ZNKSt3__16__lessIPcS1_EclERKS1_S4_
FNDA:57,_ZNKSt3__16__lessIPcS1_EclERKS1_S4_
FN:2648,_ZNSt3__1L3maxIPcNS_6__lessIS1_S1_EEEERKT_S6_S6_T0_
FNDA:57,_ZNSt3__1L3maxIPcNS_6__lessIS1_S1_EEEERKT_S6_S6_T0_
FN:2657,_ZNSt3__1L3maxIPcEERKT_S4_S4_
FNDA:57,_ZNSt3__1L3maxIPcEERKT_S4_S4_
DA:715,57
DA:2648,57
DA:2650,57
DA:2657,57
DA:2659,57
FNF:3
FNH:3
LF:5
LH:5
end_of_record
SF:/Users/phil/Downloads/fractal/protocol/build/_deps/googletest-src/googletest/include/gtest/internal/gtest-port.h
FN:973,_ZN7testing8internal8GTestLog9GetStreamEv
FNDA:0,_ZN7testing8internal8GTestLog9GetStreamEv
DA:973,0
FNF:1
FNH:0
LF:1
LH:0
end_of_record
SF:/Library/Developer/CommandLineTools/SDKs/MacOSX.sdk/usr/include/c++/v1/iosfwd
FN:130,_ZNSt3__115basic_stringbufIcNS_11char_traitsIcEENS_9allocatorIcEEED1Ev
FNDA:45,_ZNSt3__115basic_stringbufIcNS_11char_traitsIcEENS_9allocatorIcEEED1Ev
FN:130,_ZNSt3__115basic_stringbufIcNS_11char_traitsIcEENS_9allocatorIcEEED0Ev
FNDA:0,_ZNSt3__115basic_stringbufIcNS_11char_traitsIcEENS_9allocatorIcEEED0Ev
FN:130,_ZNSt3__115basic_stringbufIcNS_11char_traitsIcEENS_9allocatorIcEEED2Ev
FNDA:45,_ZNSt3__115basic_stringbufIcNS_11char_traitsIcEENS_9allocatorIcEEED2Ev
FN:139,_ZNSt3__118basic_stringstreamIcNS_11char_traitsIcEENS_9allocatorIcEEED1Ev
FNDA:45,_ZNSt3__118basic_stringstreamIcNS_11char_traitsIcEENS_9allocatorIcEEED1Ev
FN:139,_ZNSt3__118basic_stringstreamIcNS_11char_traitsIcEENS_9allocatorIcEEED0Ev
FNDA:45,_ZNSt3__118basic_stringstreamIcNS_11char_traitsIcEENS_9allocatorIcEEED0Ev
FN:139,_ZNSt3__118basic_stringstreamIcNS_11char_traitsIcEENS_9allocatorIcEEED2Ev
FNDA:45,_ZNSt3__118basic_stringstreamIcNS_11char_traitsIcEENS_9allocatorIcEEED2Ev
FNF:6
FNH:5
LF:0
LH:0
end_of_record
SF:/Library/Developer/CommandLineTools/SDKs/MacOSX.sdk/usr/include/c++/v1/__string
FN:361,_ZNSt3__111char_traitsIcE6assignERcRKc
FNDA:976,_ZNSt3__111char_traitsIcE6assignERcRKc
FN:362,_ZNSt3__111char_traitsIcE2eqEcc
FNDA:0,_ZNSt3__111char_traitsIcE2eqEcc
FN:370,_ZNSt3__111char_traitsIcE6lengthEPKc
FNDA:101,_ZNSt3__111char_traitsIcE6lengthEPKc
FN:396,_ZNSt3__111char_traitsIcE7not_eofEi
FNDA:0,_ZNSt3__111char_traitsIcE7not_eofEi
FN:398,_ZNSt3__111char_traitsIcE12to_char_typeEi
FNDA:57,_ZNSt3__111char_traitsIcE12to_char_typeEi
FN:400,_ZNSt3__111char_traitsIcE11to_int_typeEc
FNDA:57,_ZNSt3__111char_traitsIcE11to_int_typeEc
FN:402,_ZNSt3__111char_traitsIcE11eq_int_typeEii
FNDA:516,_ZNSt3__111char_traitsIcE11eq_int_typeEii
FN:404,_ZNSt3__111char_traitsIcE3eofEv
FNDA:561,_ZNSt3__111char_traitsIcE3eofEv
DA:361,976
DA:362,0
DA:363,0
DA:370,101
DA:396,0
DA:397,0
DA:398,57
DA:399,57
DA:400,57
DA:401,57
DA:402,516
DA:403,516
DA:404,561
DA:405,561
FNF:8
FNH:6
LF:14
LH:10
end_of_record
SF:/Library/Developer/CommandLineTools/SDKs/MacOSX.sdk/usr/include/c++/v1/iterator
FN:689,_ZNSt3__1L10__distanceIPcEENS_15iterator_traitsIT_E15difference_typeES3_S3_NS_26random_access_iterator_tagE
FNDA:45,_ZNSt3__1L10__distanceIPcEENS_15iterator_traitsIT_E15difference_typeES3_S3_NS_26random_access_iterator_tagE
FN:697,_ZNSt3__1L8distanceIPcEENS_15iterator_traitsIT_E15difference_typeES3_S3_
FNDA:45,_ZNSt3__1L8distanceIPcEENS_15iterator_traitsIT_E15difference_typeES3_S3_
FN:1181,_ZNSt3__119ostreambuf_iteratorIcNS_11char_traitsIcEEEC1ERNS_13basic_ostreamIcS2_EE
FNDA:459,_ZNSt3__119ostreambuf_iteratorIcNS_11char_traitsIcEEEC1ERNS_13basic_ostreamIcS2_EE
FN:1181,_ZNSt3__119ostreambuf_iteratorIcNS_11char_traitsIcEEEC2ERNS_13basic_ostreamIcS2_EE
FNDA:459,_ZNSt3__119ostreambuf_iteratorIcNS_11char_traitsIcEEEC2ERNS_13basic_ostreamIcS2_EE
FN:1194,_ZNKSt3__119ostreambuf_iteratorIcNS_11char_traitsIcEEE6failedEv
FNDA:459,_ZNKSt3__119ostreambuf_iteratorIcNS_11char_traitsIcEEE6failedEv
DA:689,45
DA:691,45
DA:697,45
DA:699,45
DA:1181,918
DA:1182,918
DA:1194,459
FNF:5
FNH:5
LF:7
LH:7
end_of_record
SF:/Library/Developer/CommandLineTools/SDKs/MacOSX.sdk/usr/include/c++/v1/string
FN:545,_ZNSt3__14fposI11__mbstate_tEC1Ex
FNDA:0,_ZNSt3__14fposI11__mbstate_tEC1Ex
FN:545,_ZNSt3__14fposI11__mbstate_tEC2Ex
FNDA:0,_ZNSt3__14fposI11__mbstate_tEC2Ex
FN:547,_ZNKSt3__14fposI11__mbstate_tEcvxEv
FNDA:0,_ZNKSt3__14fposI11__mbstate_tEcvxEv
FN:816,_ZNSt3__112basic_stringIcNS_11char_traitsIcEENS_9allocatorIcEEEC1IDnEEPKc
FNDA:4,_ZNSt3__112basic_stringIcNS_11char_traitsIcEENS_9allocatorIcEEEC1IDnEEPKc
FN:816,_ZNSt3__112basic_stringIcNS_11char_traitsIcEENS_9allocatorIcEEEC2IDnEEPKc
FNDA:4,_ZNSt3__112basic_stringIcNS_11char_traitsIcEENS_9allocatorIcEEEC2IDnEEPKc
FN:946,_ZNKSt3__112basic_stringIcNS_11char_traitsIcEENS_9allocatorIcEEE4sizeEv
FNDA:57,_ZNKSt3__112basic_stringIcNS_11char_traitsIcEENS_9allocatorIcEEE4sizeEv
FN:950,_ZNKSt3__112basic_stringIcNS_11char_traitsIcEENS_9allocatorIcEEE8capacityEv
FNDA:57,_ZNKSt3__112basic_stringIcNS_11char_traitsIcEENS_9allocatorIcEEE8capacityEv
FN:955,_ZNSt3__112basic_stringIcNS_11char_traitsIcEENS_9allocatorIcEEE6resizeEm
FNDA:57,_ZNSt3__112basic_stringIcNS_11char_traitsIcEENS_9allocatorIcEEE6resizeEm
FN:1243,_ZNKSt3__112basic_stringIcNS_11char_traitsIcEENS_9allocatorIcEEE5c_strEv
FNDA:0,_ZNKSt3__112basic_stringIcNS_11char_traitsIcEENS_9allocatorIcEEE5c_strEv
FN:1245,_ZNKSt3__112basic_stringIcNS_11char_traitsIcEENS_9allocatorIcEEE4dataEv
FNDA:114,_ZNKSt3__112basic_stringIcNS_11char_traitsIcEENS_9allocatorIcEEE4dataEv
FN:1252,_ZNKSt3__112basic_stringIcNS_11char_traitsIcEENS_9allocatorIcEEE13get_allocatorEv
FNDA:45,_ZNKSt3__112basic_stringIcNS_11char_traitsIcEENS_9allocatorIcEEE13get_allocatorEv
FN:1422,_ZNKSt3__112basic_stringIcNS_11char_traitsIcEENS_9allocatorIcEEE9__is_longEv
FNDA:228,_ZNKSt3__112basic_stringIcNS_11char_traitsIcEENS_9allocatorIcEEE9__is_longEv
FN:1436,_ZNSt3__112basic_stringIcNS_11char_traitsIcEENS_9allocatorIcEEE7__allocEv
FNDA:11,_ZNSt3__112basic_stringIcNS_11char_traitsIcEENS_9allocatorIcEEE7__allocEv
FN:1439,_ZNKSt3__112basic_stringIcNS_11char_traitsIcEENS_9allocatorIcEEE7__allocEv
FNDA:90,_ZNKSt3__112basic_stringIcNS_11char_traitsIcEENS_9allocatorIcEEE7__allocEv
FN:1445,_ZNSt3__112basic_stringIcNS_11char_traitsIcEENS_9allocatorIcEEE16__set_short_sizeEm
FNDA:34,_ZNSt3__112basic_stringIcNS_11char_traitsIcEENS_9allocatorIcEEE16__set_short_sizeEm
FN:1453,_ZNKSt3__112basic_stringIcNS_11char_traitsIcEENS_9allocatorIcEEE16__get_short_sizeEv
FNDA:45,_ZNKSt3__112basic_stringIcNS_11char_traitsIcEENS_9allocatorIcEEE16__get_short_sizeEv
FN:1481,_ZNSt3__112basic_stringIcNS_11char_traitsIcEENS_9allocatorIcEEE15__set_long_sizeEm
FNDA:11,_ZNSt3__112basic_stringIcNS_11char_traitsIcEENS_9allocatorIcEEE15__set_long_sizeEm
FN:1484,_ZNKSt3__112basic_stringIcNS_11char_traitsIcEENS_9allocatorIcEEE15__get_long_sizeEv
FNDA:12,_ZNKSt3__112basic_stringIcNS_11char_traitsIcEENS_9allocatorIcEEE15__get_long_sizeEv
FN:1491,_ZNSt3__112basic_stringIcNS_11char_traitsIcEENS_9allocatorIcEEE14__set_long_capEm
FNDA:11,_ZNSt3__112basic_stringIcNS_11char_traitsIcEENS_9allocatorIcEEE14__set_long_capEm
FN:1494,_ZNKSt3__112basic_stringIcNS_11char_traitsIcEENS_9allocatorIcEEE14__get_long_capEv
FNDA:12,_ZNKSt3__112basic_stringIcNS_11char_traitsIcEENS_9allocatorIcEEE14__get_long_capEv
FN:1498,_ZNSt3__112basic_stringIcNS_11char_traitsIcEENS_9allocatorIcEEE18__set_long_pointerEPc
FNDA:11,_ZNSt3__112basic_stringIcNS_11char_traitsIcEENS_9allocatorIcEEE18__set_long_pointerEPc
FN:1504,_ZNKSt3__112basic_stringIcNS_11char_traitsIcEENS_9allocatorIcEEE18__get_long_pointerEv
FNDA:24,_ZNKSt3__112basic_stringIcNS_11char_traitsIcEENS_9allocatorIcEEE18__get_long_pointerEv
FN:1507,_ZNSt3__112basic_stringIcNS_11char_traitsIcEENS_9allocatorIcEEE19__get_short_pointerEv
FNDA:34,_ZNSt3__112basic_stringIcNS_11char_traitsIcEENS_9allocatorIcEEE19__get_short_pointerEv
FN:1510,_ZNKSt3__112basic_stringIcNS_11char_traitsIcEENS_9allocatorIcEEE19__get_short_pointerEv
FNDA:90,_ZNKSt3__112basic_stringIcNS_11char_traitsIcEENS_9allocatorIcEEE19__get_short_pointerEv
FN:1516,_ZNKSt3__112basic_stringIcNS_11char_traitsIcEENS_9allocatorIcEEE13__get_pointerEv
FNDA:114,_ZNKSt3__112basic_stringIcNS_11char_traitsIcEENS_9allocatorIcEEE13__get_pointerEv
FN:1520,_ZNSt3__112basic_stringIcNS_11char_traitsIcEENS_9allocatorIcEEE6__zeroEv
FNDA:0,_ZNSt3__112basic_stringIcNS_11char_traitsIcEENS_9allocatorIcEEE6__zeroEv
FN:1529,_ZNSt3__112basic_stringIcNS_11char_traitsIcEENS_9allocatorIcEEE10__align_itILm16EEEmm
FNDA:11,_ZNSt3__112basic_stringIcNS_11char_traitsIcEENS_9allocatorIcEEE10__align_itILm16EEEmm
FN:1533,_ZNSt3__112basic_stringIcNS_11char_traitsIcEENS_9allocatorIcEEE11__recommendEm
FNDA:11,_ZNSt3__112basic_stringIcNS_11char_traitsIcEENS_9allocatorIcEEE11__recommendEm
FN:1766,_ZNSt3__112basic_stringIcNS_11char_traitsIcEENS_9allocatorIcEEEC1Ev
FNDA:0,_ZNSt3__112basic_stringIcNS_11char_traitsIcEENS_9allocatorIcEEEC1Ev
FN:1766,_ZNSt3__112basic_stringIcNS_11char_traitsIcEENS_9allocatorIcEEEC2Ev
FNDA:0,_ZNSt3__112basic_stringIcNS_11char_traitsIcEENS_9allocatorIcEEEC2Ev
FN:1778,_ZNSt3__112basic_stringIcNS_11char_traitsIcEENS_9allocatorIcEEEC1ERKS4_
FNDA:0,_ZNSt3__112basic_stringIcNS_11char_traitsIcEENS_9allocatorIcEEEC1ERKS4_
FN:1778,_ZNSt3__112basic_stringIcNS_11char_traitsIcEENS_9allocatorIcEEEC2ERKS4_
FNDA:0,_ZNSt3__112basic_stringIcNS_11char_traitsIcEENS_9allocatorIcEEEC2ERKS4_
FN:1993,_ZNSt3__112basic_stringIcNS_11char_traitsIcEENS_9allocatorIcEEEC1Emc
FNDA:0,_ZNSt3__112basic_stringIcNS_11char_traitsIcEENS_9allocatorIcEEEC1Emc
FN:1993,_ZNSt3__112basic_stringIcNS_11char_traitsIcEENS_9allocatorIcEEEC2Emc
FNDA:0,_ZNSt3__112basic_stringIcNS_11char_traitsIcEENS_9allocatorIcEEEC2Emc
FN:2113,_ZNSt3__112basic_stringIcNS_11char_traitsIcEENS_9allocatorIcEEE6__initIPcEENS_9_MetaBaseIXsr27__is_cpp17_forward_iteratorIT_EE5valueEE13_EnableIfImplIvEES9_S9_
FNDA:45,_ZNSt3__112basic_stringIcNS_11char_traitsIcEENS_9allocatorIcEEE6__initIPcEENS_9_MetaBaseIXsr27__is_cpp17_forward_iteratorIT_EE5valueEE13_EnableIfImplIvEES9_S9_
FN:2152,_ZNSt3__112basic_stringIcNS_11char_traitsIcEENS_9allocatorIcEEEC1IPcvEET_S8_RKS4_
FNDA:45,_ZNSt3__112basic_stringIcNS_11char_traitsIcEENS_9allocatorIcEEEC1IPcvEET_S8_RKS4_
FN:2152,_ZNSt3__112basic_stringIcNS_11char_traitsIcEENS_9allocatorIcEEEC2IPcvEET_S8_RKS4_
FNDA:45,_ZNSt3__112basic_stringIcNS_11char_traitsIcEENS_9allocatorIcEEEC2IPcvEET_S8_RKS4_
FN:3253,_ZNKSt3__112basic_stringIcNS_11char_traitsIcEENS_9allocatorIcEEE8max_sizeEv
FNDA:45,_ZNKSt3__112basic_stringIcNS_11char_traitsIcEENS_9allocatorIcEEE8max_sizeEv
DA:545,0
DA:547,0
DA:816,8
DA:818,4
DA:822,8
DA:946,57
DA:947,57
DA:950,57
DA:951,57
DA:952,57
DA:955,57
DA:1243,0
DA:1245,114
DA:1252,45
DA:1422,228
DA:1423,228
DA:1436,11
DA:1437,11
DA:1439,90
DA:1440,90
DA:1445,34
DA:1449,34
DA:1453,45
DA:1457,45
DA:1481,11
DA:1482,11
DA:1484,12
DA:1485,12
DA:1491,11
DA:1492,11
DA:1494,12
DA:1495,12
DA:1498,11
DA:1499,11
DA:1504,24
DA:1505,24
DA:1507,34
DA:1508,34
DA:1510,90
DA:1511,90
DA:1516,114
DA:1517,114
DA:1520,0
DA:1522,0
DA:1523,0
DA:1524,0
DA:1525,0
DA:1529,11
DA:1530,11
DA:1533,11
DA:1535,11
DA:1536,22
DA:1537,22
DA:1538,11
DA:1539,11
DA:1540,11
DA:1766,0
DA:1768,0
DA:1769,0
DA:1773,0
DA:1774,0
DA:1778,0
DA:1784,0
DA:1785,0
DA:1789,0
DA:1790,0
DA:1993,0
DA:1994,0
DA:1995,0
DA:1996,0
DA:2000,0
DA:2113,45
DA:2115,45
DA:2116,45
DA:2117,0
DA:2119,45
DA:2121,34
DA:2122,34
DA:2123,34
DA:2126,11
DA:2127,11
DA:2128,11
DA:2129,11
DA:2130,11
DA:2132,976
DA:2133,931
DA:2134,45
DA:2135,45
DA:2152,90
DA:2154,45
DA:2155,90
DA:2156,45
DA:2160,90
DA:3253,45
DA:3255,45
DA:3259,45
FNF:38
FNH:27
LF:96
LH:72
end_of_record
SF:/Library/Developer/CommandLineTools/SDKs/MacOSX.sdk/usr/include/c++/v1/sstream
FN:241,_ZNSt3__115basic_stringbufIcNS_11char_traitsIcEENS_9allocatorIcEEEC1Ej
FNDA:0,_ZNSt3__115basic_stringbufIcNS_11char_traitsIcEENS_9allocatorIcEEEC1Ej
FN:241,_ZNSt3__115basic_stringbufIcNS_11char_traitsIcEENS_9allocatorIcEEEC2Ej
FNDA:0,_ZNSt3__115basic_stringbufIcNS_11char_traitsIcEENS_9allocatorIcEEEC2Ej
FN:438,_ZNKSt3__115basic_stringbufIcNS_11char_traitsIcEENS_9allocatorIcEEE3strEv
FNDA:45,_ZNKSt3__115basic_stringbufIcNS_11char_traitsIcEENS_9allocatorIcEEE3strEv
FN:486,_ZNSt3__115basic_stringbufIcNS_11char_traitsIcEENS_9allocatorIcEEE9underflowEv
FNDA:0,_ZNSt3__115basic_stringbufIcNS_11char_traitsIcEENS_9allocatorIcEEE9underflowEv
FN:502,_ZNSt3__115basic_stringbufIcNS_11char_traitsIcEENS_9allocatorIcEEE9pbackfailEi
FNDA:0,_ZNSt3__115basic_stringbufIcNS_11char_traitsIcEENS_9allocatorIcEEE9pbackfailEi
FN:526,_ZNSt3__115basic_stringbufIcNS_11char_traitsIcEENS_9allocatorIcEEE8overflowEi
FNDA:57,_ZNSt3__115basic_stringbufIcNS_11char_traitsIcEENS_9allocatorIcEEE8overflowEi
FN:568,_ZNSt3__115basic_stringbufIcNS_11char_traitsIcEENS_9allocatorIcEEE7seekoffExNS_8ios_base7seekdirEj
FNDA:0,_ZNSt3__115basic_stringbufIcNS_11char_traitsIcEENS_9allocatorIcEEE7seekoffExNS_8ios_base7seekdirEj
FN:620,_ZNSt3__115basic_stringbufIcNS_11char_traitsIcEENS_9allocatorIcEEE7seekposENS_4fposI11__mbstate_tEEj
FNDA:0,_ZNSt3__115basic_stringbufIcNS_11char_traitsIcEENS_9allocatorIcEEE7seekposENS_4fposI11__mbstate_tEEj
FN:908,_ZNSt3__118basic_stringstreamIcNS_11char_traitsIcEENS_9allocatorIcEEEC1Ej
FNDA:0,_ZNSt3__118basic_stringstreamIcNS_11char_traitsIcEENS_9allocatorIcEEEC1Ej
FN:969,_ZNKSt3__118basic_stringstreamIcNS_11char_traitsIcEENS_9allocatorIcEEE3strEv
FNDA:0,_ZNKSt3__118basic_stringstreamIcNS_11char_traitsIcEENS_9allocatorIcEEE3strEv
DA:212,0
DA:241,0
DA:242,0
DA:243,0
DA:244,0
DA:245,0
DA:438,45
DA:440,45
DA:442,45
DA:443,43
DA:444,45
DA:446,0
DA:447,0
DA:448,0
DA:449,45
DA:486,0
DA:488,0
DA:489,0
DA:490,0
DA:492,0
DA:493,0
DA:494,0
DA:495,0
DA:496,0
DA:497,0
DA:498,0
DA:502,0
DA:504,0
DA:505,0
DA:506,0
DA:508,0
DA:510,0
DA:511,0
DA:513,0
DA:514,0
DA:516,0
DA:517,0
DA:518,0
DA:520,0
DA:521,0
DA:522,0
DA:526,57
DA:528,57
DA:530,57
DA:531,57
DA:533,57
DA:534,0
DA:539,57
DA:540,57
DA:541,57
DA:542,57
DA:543,57
DA:544,57
DA:545,57
DA:546,57
DA:548,57
DA:551,0
DA:552,0
DA:554,57
DA:555,57
DA:556,57
DA:558,57
DA:559,57
DA:560,57
DA:561,57
DA:563,0
DA:564,57
DA:568,0
DA:572,0
DA:573,0
DA:574,0
DA:575,0
DA:576,0
DA:577,0
DA:578,0
DA:579,0
DA:581,0
DA:584,0
DA:585,0
DA:587,0
DA:588,0
DA:590,0
DA:591,0
DA:593,0
DA:594,0
DA:596,0
DA:598,0
DA:599,0
DA:600,0
DA:601,0
DA:603,0
DA:604,0
DA:605,0
DA:606,0
DA:607,0
DA:608,0
DA:609,0
DA:610,0
DA:612,0
DA:613,0
DA:614,0
DA:615,0
DA:616,0
DA:620,0
DA:623,0
DA:884,0
DA:908,0
DA:909,0
DA:910,0
DA:911,0
DA:912,0
DA:969,0
DA:971,0
FNF:10
FNH:2
LF:113
LH:28
end_of_record
SF:/Library/Developer/CommandLineTools/SDKs/MacOSX.sdk/usr/include/c++/v1/ios
FN:344,_ZNSt3__18ios_baseC2Ev
FNDA:0,_ZNSt3__18ios_baseC2Ev
FN:348,_ZNKSt3__18ios_base5rdbufEv
FNDA:459,_ZNKSt3__18ios_base5rdbufEv
FN:459,_ZNKSt3__18ios_base5flagsEv
FNDA:459,_ZNKSt3__18ios_base5flagsEv
FN:521,_ZNKSt3__18ios_base5widthEv
FNDA:459,_ZNKSt3__18ios_base5widthEv
FN:528,_ZNSt3__18ios_base5widthEl
FNDA:459,_ZNSt3__18ios_base5widthEl
FN:546,_ZNSt3__18ios_base8setstateEj
FNDA:0,_ZNSt3__18ios_base8setstateEj
FN:633,_ZNSt3__19basic_iosIcNS_11char_traitsIcEEE8setstateEj
FNDA:0,_ZNSt3__19basic_iosIcNS_11char_traitsIcEEE8setstateEj
FN:675,_ZNSt3__19basic_iosIcNS_11char_traitsIcEEEC2Ev
FNDA:0,_ZNSt3__19basic_iosIcNS_11char_traitsIcEEEC2Ev
FN:710,_ZNSt3__19basic_iosIcNS_11char_traitsIcEEE4initEPNS_15basic_streambufIcS2_EE
FNDA:0,_ZNSt3__19basic_iosIcNS_11char_traitsIcEEE4initEPNS_15basic_streambufIcS2_EE
FN:738,_ZNKSt3__19basic_iosIcNS_11char_traitsIcEEE5rdbufEv
FNDA:459,_ZNKSt3__19basic_iosIcNS_11char_traitsIcEEE5rdbufEv
FN:776,_ZNKSt3__19basic_iosIcNS_11char_traitsIcEEE5widenEc
FNDA:45,_ZNKSt3__19basic_iosIcNS_11char_traitsIcEEE5widenEc
FN:784,_ZNKSt3__19basic_iosIcNS_11char_traitsIcEEE4fillEv
FNDA:459,_ZNKSt3__19basic_iosIcNS_11char_traitsIcEEE4fillEv
DA:344,0
DA:345,0
DA:348,459
DA:459,459
DA:461,459
DA:521,459
DA:523,459
DA:528,459
DA:530,459
DA:531,459
DA:532,459
DA:546,0
DA:548,0
DA:549,0
DA:633,0
DA:675,0
DA:676,0
DA:710,0
DA:712,0
DA:713,0
DA:714,0
DA:715,0
DA:738,459
DA:740,459
DA:776,45
DA:778,45
DA:779,0
DA:784,459
DA:786,459
DA:787,45
DA:788,459
FNF:12
FNH:7
LF:31
LH:17
end_of_record
SF:/Library/Developer/CommandLineTools/SDKs/MacOSX.sdk/usr/include/c++/v1/__locale
FN:248,_ZNSt3__1L9use_facetINS_5ctypeIcEEEERKT_RKNS_6localeE
FNDA:45,_ZNSt3__1L9use_facetINS_5ctypeIcEEEERKT_RKNS_6localeE
FN:685,_ZNKSt3__15ctypeIcE5widenEc
FNDA:45,_ZNKSt3__15ctypeIcE5widenEc
DA:248,45
DA:250,45
DA:685,45
DA:687,45
FNF:2
FNH:2
LF:4
LH:4
end_of_record
SF:/Library/Developer/CommandLineTools/SDKs/MacOSX.sdk/usr/include/c++/v1/memory
FN:880,_ZNSt3__114pointer_traitsIPKcE10pointer_toERS1_
FNDA:90,_ZNSt3__114pointer_traitsIPKcE10pointer_toERS1_
FN:880,_ZNSt3__114pointer_traitsIPcE10pointer_toERc
FNDA:34,_ZNSt3__114pointer_traitsIPcE10pointer_toERc
FN:1015,_ZNSt3__1L12__to_addressIKcEEPT_S3_
FNDA:114,_ZNSt3__1L12__to_addressIKcEEPT_S3_
FN:1399,_ZNSt3__116allocator_traitsINS_9allocatorIcEEE8allocateERS2_m
FNDA:11,_ZNSt3__116allocator_traitsINS_9allocatorIcEEE8allocateERS2_m
FN:1422,_ZNSt3__116allocator_traitsINS_9allocatorIcEEE8max_sizeERKS2_
FNDA:45,_ZNSt3__116allocator_traitsINS_9allocatorIcEEE8max_sizeERKS2_
FN:1589,_ZNSt3__116allocator_traitsINS_9allocatorIcEEE10__max_sizeENS_17integral_constantIbLb1EEERKS2_
FNDA:45,_ZNSt3__116allocator_traitsINS_9allocatorIcEEE10__max_sizeENS_17integral_constantIbLb1EEERKS2_
FN:1643,_ZNSt3__19allocatorIcEC2Ev
FNDA:4,_ZNSt3__19allocatorIcEC2Ev
FN:1658,_ZNSt3__19allocatorIcE8allocateEm
FNDA:11,_ZNSt3__19allocatorIcE8allocateEm
FN:1676,_ZNKSt3__19allocatorIcE8max_sizeEv
FNDA:45,_ZNKSt3__19allocatorIcE8max_sizeEv
FN:1915,_ZNSt3__122__compressed_pair_elemINS_12basic_stringIcNS_11char_traitsIcEENS_9allocatorIcEEE5__repELi0ELb0EEC2ENS_18__default_init_tagE
FNDA:49,_ZNSt3__122__compressed_pair_elemINS_12basic_stringIcNS_11char_traitsIcEENS_9allocatorIcEEE5__repELi0ELb0EEC2ENS_18__default_init_tagE
FN:1924,_ZNSt3__122__compressed_pair_elemIPNS_12basic_stringIcNS_11char_traitsIcEENS_9allocatorIcEEEELi0ELb0EEC2IS7_vEEOT_
FNDA:0,_ZNSt3__122__compressed_pair_elemIPNS_12basic_stringIcNS_11char_traitsIcEENS_9allocatorIcEEEELi0ELb0EEC2IS7_vEEOT_
FN:1939,_ZNSt3__122__compressed_pair_elemIPNS_18basic_stringstreamIcNS_11char_traitsIcEENS_9allocatorIcEEEELi0ELb0EE5__getEv
FNDA:90,_ZNSt3__122__compressed_pair_elemIPNS_18basic_stringstreamIcNS_11char_traitsIcEENS_9allocatorIcEEEELi0ELb0EE5__getEv
FN:1939,_ZNSt3__122__compressed_pair_elemIPNS_12basic_stringIcNS_11char_traitsIcEENS_9allocatorIcEEEELi0ELb0EE5__getEv
FNDA:0,_ZNSt3__122__compressed_pair_elemIPNS_12basic_stringIcNS_11char_traitsIcEENS_9allocatorIcEEEELi0ELb0EE5__getEv
FN:1939,_ZNSt3__122__compressed_pair_elemINS_12basic_stringIcNS_11char_traitsIcEENS_9allocatorIcEEE5__repELi0ELb0EE5__getEv
FNDA:101,_ZNSt3__122__compressed_pair_elemINS_12basic_stringIcNS_11char_traitsIcEENS_9allocatorIcEEE5__repELi0ELb0EE5__getEv
FN:1941,_ZNKSt3__122__compressed_pair_elemIPNS_12basic_stringIcNS_11char_traitsIcEENS_9allocatorIcEEEELi0ELb0EE5__getEv
FNDA:0,_ZNKSt3__122__compressed_pair_elemIPNS_12basic_stringIcNS_11char_traitsIcEENS_9allocatorIcEEEELi0ELb0EE5__getEv
FN:1941,_ZNKSt3__122__compressed_pair_elemINS_12basic_stringIcNS_11char_traitsIcEENS_9allocatorIcEEE5__repELi0ELb0EE5__getEv
FNDA:411,_ZNKSt3__122__compressed_pair_elemINS_12basic_stringIcNS_11char_traitsIcEENS_9allocatorIcEEE5__repELi0ELb0EE5__getEv
FN:1941,_ZNKSt3__122__compressed_pair_elemIPNS_18basic_stringstreamIcNS_11char_traitsIcEENS_9allocatorIcEEEELi0ELb0EE5__getEv
FNDA:21,_ZNKSt3__122__compressed_pair_elemIPNS_18basic_stringstreamIcNS_11char_traitsIcEENS_9allocatorIcEEEELi0ELb0EE5__getEv
FN:1956,_ZNSt3__122__compressed_pair_elemINS_9allocatorIcEELi1ELb1EEC2ENS_18__default_init_tagE
FNDA:4,_ZNSt3__122__compressed_pair_elemINS_9allocatorIcEELi1ELb1EEC2ENS_18__default_init_tagE
FN:1956,_ZNSt3__122__compressed_pair_elemINS_14default_deleteINS_12basic_stringIcNS_11char_traitsIcEENS_9allocatorIcEEEEEELi1ELb1EEC2ENS_18__default_init_tagE
FNDA:0,_ZNSt3__122__compressed_pair_elemINS_14default_deleteINS_12basic_stringIcNS_11char_traitsIcEENS_9allocatorIcEEEEEELi1ELb1EEC2ENS_18__default_init_tagE
FN:1965,_ZNSt3__122__compressed_pair_elemINS_9allocatorIcEELi1ELb1EEC2IRKS2_vEEOT_
FNDA:45,_ZNSt3__122__compressed_pair_elemINS_9allocatorIcEELi1ELb1EEC2IRKS2_vEEOT_
FN:1977,_ZNSt3__122__compressed_pair_elemINS_14default_deleteINS_18basic_stringstreamIcNS_11char_traitsIcEENS_9allocatorIcEEEEEELi1ELb1EE5__getEv
FNDA:45,_ZNSt3__122__compressed_pair_elemINS_14default_deleteINS_18basic_stringstreamIcNS_11char_traitsIcEENS_9allocatorIcEEEEEELi1ELb1EE5__getEv
FN:1977,_ZNSt3__122__compressed_pair_elemINS_14default_deleteINS_12basic_stringIcNS_11char_traitsIcEENS_9allocatorIcEEEEEELi1ELb1EE5__getEv
FNDA:0,_ZNSt3__122__compressed_pair_elemINS_14default_deleteINS_12basic_stringIcNS_11char_traitsIcEENS_9allocatorIcEEEEEELi1ELb1EE5__getEv
FN:1977,_ZNSt3__122__compressed_pair_elemINS_9allocatorIcEELi1ELb1EE5__getEv
FNDA:11,_ZNSt3__122__compressed_pair_elemINS_9allocatorIcEELi1ELb1EE5__getEv
FN:1979,_ZNKSt3__122__compressed_pair_elemINS_9allocatorIcEELi1ELb1EE5__getEv
FNDA:90,_ZNKSt3__122__compressed_pair_elemINS_9allocatorIcEELi1ELb1EE5__getEv
FN:2009,_ZNSt3__117__compressed_pairINS_12basic_stringIcNS_11char_traitsIcEENS_9allocatorIcEEE5__repES5_EC1INS_18__default_init_tagESA_EEOT_OT0_
FNDA:4,_ZNSt3__117__compressed_pairINS_12basic_stringIcNS_11char_traitsIcEENS_9allocatorIcEEE5__repES5_EC1INS_18__default_init_tagESA_EEOT_OT0_
FN:2009,_ZNSt3__117__compressed_pairINS_12basic_stringIcNS_11char_traitsIcEENS_9allocatorIcEEE5__repES5_EC2INS_18__default_init_tagESA_EEOT_OT0_
FNDA:4,_ZNSt3__117__compressed_pairINS_12basic_stringIcNS_11char_traitsIcEENS_9allocatorIcEEE5__repES5_EC2INS_18__default_init_tagESA_EEOT_OT0_
FN:2009,_ZNSt3__117__compressed_pairINS_12basic_stringIcNS_11char_traitsIcEENS_9allocatorIcEEE5__repES5_EC1INS_18__default_init_tagERKS5_EEOT_OT0_
FNDA:45,_ZNSt3__117__compressed_pairINS_12basic_stringIcNS_11char_traitsIcEENS_9allocatorIcEEE5__repES5_EC1INS_18__default_init_tagERKS5_EEOT_OT0_
FN:2009,_ZNSt3__117__compressed_pairINS_12basic_stringIcNS_11char_traitsIcEENS_9allocatorIcEEE5__repES5_EC2INS_18__default_init_tagERKS5_EEOT_OT0_
FNDA:45,_ZNSt3__117__compressed_pairINS_12basic_stringIcNS_11char_traitsIcEENS_9allocatorIcEEE5__repES5_EC2INS_18__default_init_tagERKS5_EEOT_OT0_
FN:2009,_ZNSt3__117__compressed_pairIPNS_12basic_stringIcNS_11char_traitsIcEENS_9allocatorIcEEEENS_14default_deleteIS6_EEEC1IS7_NS_18__default_init_tagEEEOT_OT0_
FNDA:0,_ZNSt3__117__compressed_pairIPNS_12basic_stringIcNS_11char_traitsIcEENS_9allocatorIcEEEENS_14default_deleteIS6_EEEC1IS7_NS_18__default_init_tagEEEOT_OT0_
FN:2009,_ZNSt3__117__compressed_pairIPNS_12basic_stringIcNS_11char_traitsIcEENS_9allocatorIcEEEENS_14default_deleteIS6_EEEC2IS7_NS_18__default_init_tagEEEOT_OT0_
FNDA:0,_ZNSt3__117__compressed_pairIPNS_12basic_stringIcNS_11char_traitsIcEENS_9allocatorIcEEEENS_14default_deleteIS6_EEEC2IS7_NS_18__default_init_tagEEEOT_OT0_
FN:2024,_ZNSt3__117__compressed_pairIPNS_18basic_stringstreamIcNS_11char_traitsIcEENS_9allocatorIcEEEENS_14default_deleteIS6_EEE5firstEv
FNDA:90,_ZNSt3__117__compressed_pairIPNS_18basic_stringstreamIcNS_11char_traitsIcEENS_9allocatorIcEEEENS_14default_deleteIS6_EEE5firstEv
FN:2024,_ZNSt3__117__compressed_pairIPNS_12basic_stringIcNS_11char_traitsIcEENS_9allocatorIcEEEENS_14default_deleteIS6_EEE5firstEv
FNDA:0,_ZNSt3__117__compressed_pairIPNS_12basic_stringIcNS_11char_traitsIcEENS_9allocatorIcEEEENS_14default_deleteIS6_EEE5firstEv
FN:2024,_ZNSt3__117__compressed_pairINS_12basic_stringIcNS_11char_traitsIcEENS_9allocatorIcEEE5__repES5_E5firstEv
FNDA:101,_ZNSt3__117__compressed_pairINS_12basic_stringIcNS_11char_traitsIcEENS_9allocatorIcEEE5__repES5_E5firstEv
FN:2029,_ZNKSt3__117__compressed_pairIPNS_12basic_stringIcNS_11char_traitsIcEENS_9allocatorIcEEEENS_14default_deleteIS6_EEE5firstEv
FNDA:0,_ZNKSt3__117__compressed_pairIPNS_12basic_stringIcNS_11char_traitsIcEENS_9allocatorIcEEEENS_14default_deleteIS6_EEE5firstEv
FN:2029,_ZNKSt3__117__compressed_pairINS_12basic_stringIcNS_11char_traitsIcEENS_9allocatorIcEEE5__repES5_E5firstEv
FNDA:411,_ZNKSt3__117__compressed_pairINS_12basic_stringIcNS_11char_traitsIcEENS_9allocatorIcEEE5__repES5_E5firstEv
FN:2029,_ZNKSt3__117__compressed_pairIPNS_18basic_stringstreamIcNS_11char_traitsIcEENS_9allocatorIcEEEENS_14default_deleteIS6_EEE5firstEv
FNDA:21,_ZNKSt3__117__compressed_pairIPNS_18basic_stringstreamIcNS_11char_traitsIcEENS_9allocatorIcEEEENS_14default_deleteIS6_EEE5firstEv
FN:2034,_ZNSt3__117__compressed_pairIPNS_18basic_stringstreamIcNS_11char_traitsIcEENS_9allocatorIcEEEENS_14default_deleteIS6_EEE6secondEv
FNDA:45,_ZNSt3__117__compressed_pairIPNS_18basic_stringstreamIcNS_11char_traitsIcEENS_9allocatorIcEEEENS_14default_deleteIS6_EEE6secondEv
FN:2034,_ZNSt3__117__compressed_pairIPNS_12basic_stringIcNS_11char_traitsIcEENS_9allocatorIcEEEENS_14default_deleteIS6_EEE6secondEv
FNDA:0,_ZNSt3__117__compressed_pairIPNS_12basic_stringIcNS_11char_traitsIcEENS_9allocatorIcEEEENS_14default_deleteIS6_EEE6secondEv
FN:2034,_ZNSt3__117__compressed_pairINS_12basic_stringIcNS_11char_traitsIcEENS_9allocatorIcEEE5__repES5_E6secondEv
FNDA:11,_ZNSt3__117__compressed_pairINS_12basic_stringIcNS_11char_traitsIcEENS_9allocatorIcEEE5__repES5_E6secondEv
FN:2039,_ZNKSt3__117__compressed_pairINS_12basic_stringIcNS_11char_traitsIcEENS_9allocatorIcEEE5__repES5_E6secondEv
FNDA:90,_ZNKSt3__117__compressed_pairINS_12basic_stringIcNS_11char_traitsIcEENS_9allocatorIcEEE5__repES5_E6secondEv
FN:2079,_ZNKSt3__114default_deleteINS_18basic_stringstreamIcNS_11char_traitsIcEENS_9allocatorIcEEEEEclEPS6_
FNDA:45,_ZNKSt3__114default_deleteINS_18basic_stringstreamIcNS_11char_traitsIcEENS_9allocatorIcEEEEEclEPS6_
FN:2079,_ZNKSt3__114default_deleteINS_12basic_stringIcNS_11char_traitsIcEENS_9allocatorIcEEEEEclEPS6_
FNDA:0,_ZNKSt3__114default_deleteINS_12basic_stringIcNS_11char_traitsIcEENS_9allocatorIcEEEEEclEPS6_
FN:2207,_ZNSt3__110unique_ptrINS_12basic_stringIcNS_11char_traitsIcEENS_9allocatorIcEEEENS_14default_deleteIS6_EEEC1ILb1EvEEv
FNDA:0,_ZNSt3__110unique_ptrINS_12basic_stringIcNS_11char_traitsIcEENS_9allocatorIcEEEENS_14default_deleteIS6_EEEC1ILb1EvEEv
FN:2207,_ZNSt3__110unique_ptrINS_12basic_stringIcNS_11char_traitsIcEENS_9allocatorIcEEEENS_14default_deleteIS6_EEEC2ILb1EvEEv
FNDA:0,_ZNSt3__110unique_ptrINS_12basic_stringIcNS_11char_traitsIcEENS_9allocatorIcEEEENS_14default_deleteIS6_EEEC2ILb1EvEEv
FN:2299,_ZNSt3__110unique_ptrINS_18basic_stringstreamIcNS_11char_traitsIcEENS_9allocatorIcEEEENS_14default_deleteIS6_EEED1Ev
FNDA:45,_ZNSt3__110unique_ptrINS_18basic_stringstreamIcNS_11char_traitsIcEENS_9allocatorIcEEEENS_14default_deleteIS6_EEED1Ev
FN:2299,_ZNSt3__110unique_ptrINS_18basic_stringstreamIcNS_11char_traitsIcEENS_9allocatorIcEEEENS_14default_deleteIS6_EEED2Ev
FNDA:45,_ZNSt3__110unique_ptrINS_18basic_stringstreamIcNS_11char_traitsIcEENS_9allocatorIcEEEENS_14default_deleteIS6_EEED2Ev
FN:2299,_ZNSt3__110unique_ptrINS_12basic_stringIcNS_11char_traitsIcEENS_9allocatorIcEEEENS_14default_deleteIS6_EEED1Ev
FNDA:0,_ZNSt3__110unique_ptrINS_12basic_stringIcNS_11char_traitsIcEENS_9allocatorIcEEEENS_14default_deleteIS6_EEED1Ev
FN:2299,_ZNSt3__110unique_ptrINS_12basic_stringIcNS_11char_traitsIcEENS_9allocatorIcEEEENS_14default_deleteIS6_EEED2Ev
FNDA:0,_ZNSt3__110unique_ptrINS_12basic_stringIcNS_11char_traitsIcEENS_9allocatorIcEEEENS_14default_deleteIS6_EEED2Ev
FN:2309,_ZNKSt3__110unique_ptrINS_18basic_stringstreamIcNS_11char_traitsIcEENS_9allocatorIcEEEENS_14default_deleteIS6_EEEdeEv
FNDA:21,_ZNKSt3__110unique_ptrINS_18basic_stringstreamIcNS_11char_traitsIcEENS_9allocatorIcEEEENS_14default_deleteIS6_EEEdeEv
FN:2313,_ZNKSt3__110unique_ptrINS_12basic_stringIcNS_11char_traitsIcEENS_9allocatorIcEEEENS_14default_deleteIS6_EEEptEv
FNDA:0,_ZNKSt3__110unique_ptrINS_12basic_stringIcNS_11char_traitsIcEENS_9allocatorIcEEEENS_14default_deleteIS6_EEEptEv
FN:2317,_ZNKSt3__110unique_ptrINS_12basic_stringIcNS_11char_traitsIcEENS_9allocatorIcEEEENS_14default_deleteIS6_EEE3getEv
FNDA:0,_ZNKSt3__110unique_ptrINS_12basic_stringIcNS_11char_traitsIcEENS_9allocatorIcEEEENS_14default_deleteIS6_EEE3getEv
FN:2341,_ZNSt3__110unique_ptrINS_18basic_stringstreamIcNS_11char_traitsIcEENS_9allocatorIcEEEENS_14default_deleteIS6_EEE5resetEPS6_
FNDA:45,_ZNSt3__110unique_ptrINS_18basic_stringstreamIcNS_11char_traitsIcEENS_9allocatorIcEEEENS_14default_deleteIS6_EEE5resetEPS6_
FN:2341,_ZNSt3__110unique_ptrINS_12basic_stringIcNS_11char_traitsIcEENS_9allocatorIcEEEENS_14default_deleteIS6_EEE5resetEPS6_
FNDA:0,_ZNSt3__110unique_ptrINS_12basic_stringIcNS_11char_traitsIcEENS_9allocatorIcEEEENS_14default_deleteIS6_EEE5resetEPS6_
DA:880,124
DA:882,124
DA:1015,114
DA:1018,114
DA:1399,11
DA:1400,11
DA:1422,45
DA:1423,45
DA:1589,45
DA:1592,45
DA:1643,4
DA:1658,11
DA:1661,11
DA:1662,0
DA:1664,11
DA:1676,45
DA:1677,45
DA:1915,49
DA:1924,0
DA:1925,0
DA:1927,0
DA:1939,191
DA:1941,432
DA:1956,4
DA:1965,45
DA:1966,45
DA:1967,90
DA:1977,56
DA:1979,90
DA:2009,98
DA:2010,98
DA:2024,191
DA:2025,191
DA:2029,432
DA:2030,432
DA:2034,56
DA:2035,56
DA:2039,90
DA:2040,90
DA:2079,45
DA:2084,45
DA:2085,45
DA:2207,0
DA:2299,90
DA:2309,21
DA:2310,21
DA:2313,0
DA:2314,0
DA:2317,0
DA:2318,0
DA:2341,45
DA:2342,45
DA:2343,45
DA:2344,45
DA:2345,45
DA:2346,45
FNF:53
FNH:35
LF:56
LH:47
end_of_record
SF:/Users/phil/Downloads/fractal/protocol/build/_deps/googletest-src/googletest/include/gtest/gtest-message.h
FN:89,_ZN7testing7MessageD1Ev
FNDA:45,_ZN7testing7MessageD1Ev
FN:89,_ZN7testing7MessageD2Ev
FNDA:45,_ZN7testing7MessageD2Ev
FN:111,_ZN7testing7MessagelsIA12_cEERS0_RKT_
FNDA:0,_ZN7testing7MessagelsIA12_cEERS0_RKT_
FN:111,_ZN7testing7MessagelsIA3_cEERS0_RKT_
FNDA:0,_ZN7testing7MessagelsIA3_cEERS0_RKT_
FN:111,_ZN7testing7MessagelsINSt3__112basic_stringIcNS2_11char_traitsIcEENS2_9allocatorIcEEEEEERS0_RKT_
FNDA:0,_ZN7testing7MessagelsINSt3__112basic_stringIcNS2_11char_traitsIcEENS2_9allocatorIcEEEEEERS0_RKT_
FN:111,_ZN7testing7MessagelsIA5_cEERS0_RKT_
FNDA:0,_ZN7testing7MessagelsIA5_cEERS0_RKT_
FN:145,_ZN7testing7MessagelsIKcEERS0_RKPT_
FNDA:21,_ZN7testing7MessagelsIKcEERS0_RKPT_
DA:111,0
DA:127,0
DA:128,0
DA:145,21
DA:146,21
DA:147,0
DA:148,0
DA:149,21
DA:151,21
FNF:7
FNH:3
LF:9
LH:4
end_of_record
SF:/Library/Developer/CommandLineTools/SDKs/MacOSX.sdk/usr/include/c++/v1/streambuf
FN:220,_ZNSt3__115basic_streambufIcNS_11char_traitsIcEEE5sputcEc
FNDA:57,_ZNSt3__115basic_streambufIcNS_11char_traitsIcEEE5sputcEc
FN:228,_ZNSt3__115basic_streambufIcNS_11char_traitsIcEEE5sputnEPKcl
FNDA:459,_ZNSt3__115basic_streambufIcNS_11char_traitsIcEEE5sputnEPKcl
FN:238,_ZNKSt3__115basic_streambufIcNS_11char_traitsIcEEE5ebackEv
FNDA:57,_ZNKSt3__115basic_streambufIcNS_11char_traitsIcEEE5ebackEv
FN:239,_ZNKSt3__115basic_streambufIcNS_11char_traitsIcEEE4gptrEv
FNDA:57,_ZNKSt3__115basic_streambufIcNS_11char_traitsIcEEE4gptrEv
FN:240,_ZNKSt3__115basic_streambufIcNS_11char_traitsIcEEE5egptrEv
FNDA:0,_ZNKSt3__115basic_streambufIcNS_11char_traitsIcEEE5egptrEv
FN:246,_ZNSt3__115basic_streambufIcNS_11char_traitsIcEEE4setgEPcS4_S4_
FNDA:57,_ZNSt3__115basic_streambufIcNS_11char_traitsIcEEE4setgEPcS4_S4_
FN:253,_ZNKSt3__115basic_streambufIcNS_11char_traitsIcEEE5pbaseEv
FNDA:216,_ZNKSt3__115basic_streambufIcNS_11char_traitsIcEEE5pbaseEv
FN:254,_ZNKSt3__115basic_streambufIcNS_11char_traitsIcEEE4pptrEv
FNDA:259,_ZNKSt3__115basic_streambufIcNS_11char_traitsIcEEE4pptrEv
FN:255,_ZNKSt3__115basic_streambufIcNS_11char_traitsIcEEE5epptrEv
FNDA:57,_ZNKSt3__115basic_streambufIcNS_11char_traitsIcEEE5epptrEv
FN:258,_ZNSt3__115basic_streambufIcNS_11char_traitsIcEEE5pbumpEi
FNDA:0,_ZNSt3__115basic_streambufIcNS_11char_traitsIcEEE5pbumpEi
FN:261,_ZNSt3__115basic_streambufIcNS_11char_traitsIcEEE7__pbumpEl
FNDA:57,_ZNSt3__115basic_streambufIcNS_11char_traitsIcEEE7__pbumpEl
FN:264,_ZNSt3__115basic_streambufIcNS_11char_traitsIcEEE4setpEPcS4_
FNDA:57,_ZNSt3__115basic_streambufIcNS_11char_traitsIcEEE4setpEPcS4_
DA:220,57
DA:221,57
DA:222,0
DA:223,57
DA:224,57
DA:225,57
DA:228,459
DA:229,459
DA:238,57
DA:239,57
DA:240,0
DA:246,57
DA:247,57
DA:248,57
DA:249,57
DA:250,57
DA:253,216
DA:254,259
DA:255,57
DA:258,0
DA:261,57
DA:264,57
DA:265,57
DA:266,57
DA:267,57
FNF:12
FNH:10
LF:25
LH:22
end_of_record
SF:/Library/Developer/CommandLineTools/SDKs/MacOSX.sdk/usr/include/c++/v1/ostream
FN:241,_ZNSt3__113basic_ostreamIcNS_11char_traitsIcEEEC2Ev
FNDA:0,_ZNSt3__113basic_ostreamIcNS_11char_traitsIcEEEC2Ev
FN:259,_ZNKSt3__113basic_ostreamIcNS_11char_traitsIcEEE6sentrycvbEv
FNDA:459,_ZNKSt3__113basic_ostreamIcNS_11char_traitsIcEEE6sentrycvbEv
FN:719,_ZNSt3__124__put_character_sequenceIcNS_11char_traitsIcEEEERNS_13basic_ostreamIT_T0_EES7_PKS4_m
FNDA:459,_ZNSt3__124__put_character_sequenceIcNS_11char_traitsIcEEEERNS_13basic_ostreamIT_T0_EES7_PKS4_m
FN:867,_ZNSt3__1lsINS_11char_traitsIcEEEERNS_13basic_ostreamIcT_EES6_PKc
FNDA:45,_ZNSt3__1lsINS_11char_traitsIcEEEERNS_13basic_ostreamIcT_EES6_PKc
FN:1049,_ZNSt3__1lsIcNS_11char_traitsIcEENS_9allocatorIcEEEERNS_13basic_ostreamIT_T0_EES9_RKNS_12basic_stringIS6_S7_T1_EE
FNDA:0,_ZNSt3__1lsIcNS_11char_traitsIcEENS_9allocatorIcEEEERNS_13basic_ostreamIT_T0_EES9_RKNS_12basic_stringIS6_S7_T1_EE
DA:241,0
DA:259,459
DA:719,459
DA:726,459
DA:727,459
DA:730,918
DA:731,459
DA:732,459
DA:733,0
DA:734,459
DA:735,459
DA:736,459
DA:737,918
DA:738,0
DA:739,459
DA:741,459
DA:744,0
DA:745,0
DA:747,459
DA:748,0
DA:867,45
DA:869,45
DA:1049,0
DA:1052,0
FNF:5
FNH:3
LF:24
LH:16
end_of_record
SF:/Library/Developer/CommandLineTools/SDKs/MacOSX.sdk/usr/include/c++/v1/stdexcept
FN:155,_ZNSt12length_errorC1EPKc
FNDA:0,_ZNSt12length_errorC1EPKc
FN:155,_ZNSt12length_errorC2EPKc
FNDA:0,_ZNSt12length_errorC2EPKc
FN:255,_ZNSt3__1L20__throw_length_errorEPKc
FNDA:0,_ZNSt3__1L20__throw_length_errorEPKc
DA:155,0
DA:255,0
DA:258,0
DA:263,0
FNF:3
FNH:0
LF:4
LH:0
end_of_record
SF:/Users/phil/Downloads/fractal/protocol/build/_deps/googletest-src/googletest/include/gtest/internal/gtest-internal.h
FN:452,_ZN7testing8internal15TestFactoryBaseD1Ev
FNDA:0,_ZN7testing8internal15TestFactoryBaseD1Ev
FN:452,_ZN7testing8internal15TestFactoryBaseD0Ev
FNDA:0,_ZN7testing8internal15TestFactoryBaseD0Ev
FN:452,_ZN7testing8internal15TestFactoryBaseD2Ev
FNDA:4,_ZN7testing8internal15TestFactoryBaseD2Ev
FN:459,_ZN7testing8internal15TestFactoryBaseC2Ev
FNDA:4,_ZN7testing8internal15TestFactoryBaseC2Ev
FN:468,_ZN7testing8internal15TestFactoryImplI28ClientTest_EqualityTest_TestEC1Ev
FNDA:1,_ZN7testing8internal15TestFactoryImplI28ClientTest_EqualityTest_TestEC1Ev
FN:468,_ZN7testing8internal15TestFactoryImplI31ClientTest_NotEqualityTest_TestEC1Ev
FNDA:1,_ZN7testing8internal15TestFactoryImplI31ClientTest_NotEqualityTest_TestEC1Ev
FN:468,_ZN7testing8internal15TestFactoryImplI39ClientTest_ArgParsingEmptyArgsTest_TestEC1Ev
FNDA:1,_ZN7testing8internal15TestFactoryImplI39ClientTest_ArgParsingEmptyArgsTest_TestEC1Ev
FN:468,_ZN7testing8internal15TestFactoryImplI32ClientTest_FractalColorTest_TestEC1Ev
FNDA:1,_ZN7testing8internal15TestFactoryImplI32ClientTest_FractalColorTest_TestEC1Ev
FN:468,_ZN7testing8internal15TestFactoryImplI28ClientTest_EqualityTest_TestEC2Ev
FNDA:1,_ZN7testing8internal15TestFactoryImplI28ClientTest_EqualityTest_TestEC2Ev
FN:468,_ZN7testing8internal15TestFactoryImplI28ClientTest_EqualityTest_TestED1Ev
FNDA:1,_ZN7testing8internal15TestFactoryImplI28ClientTest_EqualityTest_TestED1Ev
FN:468,_ZN7testing8internal15TestFactoryImplI28ClientTest_EqualityTest_TestED0Ev
FNDA:1,_ZN7testing8internal15TestFactoryImplI28ClientTest_EqualityTest_TestED0Ev
FN:468,_ZN7testing8internal15TestFactoryImplI28ClientTest_EqualityTest_TestED2Ev
FNDA:1,_ZN7testing8internal15TestFactoryImplI28ClientTest_EqualityTest_TestED2Ev
FN:468,_ZN7testing8internal15TestFactoryImplI31ClientTest_NotEqualityTest_TestEC2Ev
FNDA:1,_ZN7testing8internal15TestFactoryImplI31ClientTest_NotEqualityTest_TestEC2Ev
FN:468,_ZN7testing8internal15TestFactoryImplI31ClientTest_NotEqualityTest_TestED1Ev
FNDA:1,_ZN7testing8internal15TestFactoryImplI31ClientTest_NotEqualityTest_TestED1Ev
FN:468,_ZN7testing8internal15TestFactoryImplI31ClientTest_NotEqualityTest_TestED0Ev
FNDA:1,_ZN7testing8internal15TestFactoryImplI31ClientTest_NotEqualityTest_TestED0Ev
FN:468,_ZN7testing8internal15TestFactoryImplI31ClientTest_NotEqualityTest_TestED2Ev
FNDA:1,_ZN7testing8internal15TestFactoryImplI31ClientTest_NotEqualityTest_TestED2Ev
FN:468,_ZN7testing8internal15TestFactoryImplI39ClientTest_ArgParsingEmptyArgsTest_TestEC2Ev
FNDA:1,_ZN7testing8internal15TestFactoryImplI39ClientTest_ArgParsingEmptyArgsTest_TestEC2Ev
FN:468,_ZN7testing8internal15TestFactoryImplI39ClientTest_ArgParsingEmptyArgsTest_TestED1Ev
FNDA:1,_ZN7testing8internal15TestFactoryImplI39ClientTest_ArgParsingEmptyArgsTest_TestED1Ev
FN:468,_ZN7testing8internal15TestFactoryImplI39ClientTest_ArgParsingEmptyArgsTest_TestED0Ev
FNDA:1,_ZN7testing8internal15TestFactoryImplI39ClientTest_ArgParsingEmptyArgsTest_TestED0Ev
FN:468,_ZN7testing8internal15TestFactoryImplI39ClientTest_ArgParsingEmptyArgsTest_TestED2Ev
FNDA:1,_ZN7testing8internal15TestFactoryImplI39ClientTest_ArgParsingEmptyArgsTest_TestED2Ev
FN:468,_ZN7testing8internal15TestFactoryImplI32ClientTest_FractalColorTest_TestEC2Ev
FNDA:1,_ZN7testing8internal15TestFactoryImplI32ClientTest_FractalColorTest_TestEC2Ev
FN:468,_ZN7testing8internal15TestFactoryImplI32ClientTest_FractalColorTest_TestED1Ev
FNDA:1,_ZN7testing8internal15TestFactoryImplI32ClientTest_FractalColorTest_TestED1Ev
FN:468,_ZN7testing8internal15TestFactoryImplI32ClientTest_FractalColorTest_TestED0Ev
FNDA:1,_ZN7testing8internal15TestFactoryImplI32ClientTest_FractalColorTest_TestED0Ev
FN:468,_ZN7testing8internal15TestFactoryImplI32ClientTest_FractalColorTest_TestED2Ev
FNDA:1,_ZN7testing8internal15TestFactoryImplI32ClientTest_FractalColorTest_TestED2Ev
FN:470,_ZN7testing8internal15TestFactoryImplI28ClientTest_EqualityTest_TestE10CreateTestEv
FNDA:0,_ZN7testing8internal15TestFactoryImplI28ClientTest_EqualityTest_TestE10CreateTestEv
FN:470,_ZN7testing8internal15TestFactoryImplI31ClientTest_NotEqualityTest_TestE10CreateTestEv
FNDA:0,_ZN7testing8internal15TestFactoryImplI31ClientTest_NotEqualityTest_TestE10CreateTestEv
FN:470,_ZN7testing8internal15TestFactoryImplI39ClientTest_ArgParsingEmptyArgsTest_TestE10CreateTestEv
FNDA:0,_ZN7testing8internal15TestFactoryImplI39ClientTest_ArgParsingEmptyArgsTest_TestE10CreateTestEv
FN:470,_ZN7testing8internal15TestFactoryImplI32ClientTest_FractalColorTest_TestE10CreateTestEv
FNDA:0,_ZN7testing8internal15TestFactoryImplI32ClientTest_FractalColorTest_TestE10CreateTestEv
FN:490,_ZN7testing8internal12CodeLocationD1Ev
FNDA:12,_ZN7testing8internal12CodeLocationD1Ev
FN:490,_ZN7testing8internal12CodeLocationD2Ev
FNDA:12,_ZN7testing8internal12CodeLocationD2Ev
FN:491,_ZN7testing8internal12CodeLocationC1ERKNSt3__112basic_stringIcNS2_11char_traitsIcEENS2_9allocatorIcEEEEi
FNDA:4,_ZN7testing8internal12CodeLocationC1ERKNSt3__112basic_stringIcNS2_11char_traitsIcEENS2_9allocatorIcEEEEi
FN:491,_ZN7testing8internal12CodeLocationC2ERKNSt3__112basic_stringIcNS2_11char_traitsIcEENS2_9allocatorIcEEEEi
FNDA:4,_ZN7testing8internal12CodeLocationC2ERKNSt3__112basic_stringIcNS2_11char_traitsIcEENS2_9allocatorIcEEEEi
FN:504,_ZN7testing8internal19GetNotDefaultOrNullEPFvvES2_
FNDA:16,_ZN7testing8internal19GetNotDefaultOrNullEPFvvES2_
FN:519,_ZN7testing8internal16SuiteApiResolverINS_4TestEE19GetSetUpCaseOrSuiteEPKci
FNDA:4,_ZN7testing8internal16SuiteApiResolverINS_4TestEE19GetSetUpCaseOrSuiteEPKci
FN:540,_ZN7testing8internal16SuiteApiResolverINS_4TestEE22GetTearDownCaseOrSuiteEPKci
FNDA:4,_ZN7testing8internal16SuiteApiResolverINS_4TestEE22GetTearDownCaseOrSuiteEPKci
DA:452,4
DA:459,4
DA:470,0
DA:491,8
DA:492,8
DA:504,16
DA:506,16
DA:519,4
DA:522,4
DA:523,4
DA:524,4
DA:525,4
DA:527,4
DA:528,0
DA:530,0
DA:532,4
DA:538,0
DA:540,4
DA:543,4
DA:544,4
DA:545,4
DA:546,4
DA:548,4
DA:549,0
DA:551,0
DA:553,4
DA:559,0
FNF:35
FNH:29
LF:27
LH:20
end_of_record
SF:/Library/Developer/CommandLineTools/SDKs/MacOSX.sdk/usr/include/c++/v1/istream
FN:190,_ZNSt3__113basic_istreamIcNS_11char_traitsIcEEEC2EPNS_15basic_streambufIcS2_EE
FNDA:0,_ZNSt3__113basic_istreamIcNS_11char_traitsIcEEEC2EPNS_15basic_streambufIcS2_EE
FN:1407,_ZNSt3__114basic_iostreamIcNS_11char_traitsIcEEEC2EPNS_15basic_streambufIcS2_EE
FNDA:0,_ZNSt3__114basic_iostreamIcNS_11char_traitsIcEEEC2EPNS_15basic_streambufIcS2_EE
DA:190,0
DA:191,0
DA:1407,0
DA:1408,0
DA:1409,0
FNF:2
FNH:0
LF:5
LH:0
end_of_record
SF:/Users/phil/Downloads/fractal/protocol/build/_deps/googletest-src/googletest/include/gtest/gtest.h
FN:286,_ZN7testing15AssertionResultD1Ev
FNDA:0,_ZN7testing15AssertionResultD1Ev
FN:286,_ZN7testing15AssertionResultD2Ev
FNDA:0,_ZN7testing15AssertionResultD2Ev
FN:308,_ZN7testing15AssertionResultC1IbEERKT_PNSt3__19enable_ifIXntsr3std14is_convertibleIS2_S0_EE5valueEvE4typeE
FNDA:0,_ZN7testing15AssertionResultC1IbEERKT_PNSt3__19enable_ifIXntsr3std14is_convertibleIS2_S0_EE5valueEvE4typeE
FN:308,_ZN7testing15AssertionResultC2IbEERKT_PNSt3__19enable_ifIXntsr3std14is_convertibleIS2_S0_EE5valueEvE4typeE
FNDA:0,_ZN7testing15AssertionResultC2IbEERKT_PNSt3__19enable_ifIXntsr3std14is_convertibleIS2_S0_EE5valueEvE4typeE
FN:327,_ZNK7testing15AssertionResultcvbEv
FNDA:0,_ZNK7testing15AssertionResultcvbEv
FN:336,_ZNK7testing15AssertionResult7messageEv
FNDA:0,_ZNK7testing15AssertionResult7messageEv
FN:340,_ZNK7testing15AssertionResult15failure_messageEv
FNDA:0,_ZNK7testing15AssertionResult15failure_messageEv
FN:343,_ZN7testing15AssertionResultlsIA12_cEERS0_RKT_
FNDA:0,_ZN7testing15AssertionResultlsIA12_cEERS0_RKT_
FN:343,_ZN7testing15AssertionResultlsIPKcEERS0_RKT_
FNDA:0,_ZN7testing15AssertionResultlsIPKcEERS0_RKT_
FN:343,_ZN7testing15AssertionResultlsIA3_cEERS0_RKT_
FNDA:0,_ZN7testing15AssertionResultlsIA3_cEERS0_RKT_
FN:343,_ZN7testing15AssertionResultlsINSt3__112basic_stringIcNS2_11char_traitsIcEENS2_9allocatorIcEEEEEERS0_RKT_
FNDA:0,_ZN7testing15AssertionResultlsINSt3__112basic_stringIcNS2_11char_traitsIcEENS2_9allocatorIcEEEEEERS0_RKT_
FN:343,_ZN7testing15AssertionResultlsIA5_cEERS0_RKT_
FNDA:0,_ZN7testing15AssertionResultlsIA5_cEERS0_RKT_
FN:358,_ZN7testing15AssertionResult13AppendMessageERKNS_7MessageE
FNDA:0,_ZN7testing15AssertionResult13AppendMessageERKNS_7MessageE
FN:430,_ZN7testing4Test14SetUpTestSuiteEv
FNDA:0,_ZN7testing4Test14SetUpTestSuiteEv
FN:438,_ZN7testing4Test17TearDownTestSuiteEv
FNDA:0,_ZN7testing4Test17TearDownTestSuiteEv
FN:443,_ZN7testing4Test16TearDownTestCaseEv
FNDA:0,_ZN7testing4Test16TearDownTestCaseEv
FN:444,_ZN7testing4Test13SetUpTestCaseEv
FNDA:0,_ZN7testing4Test13SetUpTestCaseEv
FN:525,_ZN7testing4Test5SetupEv
FNDA:0,_ZN7testing4Test5SetupEv
FN:1525,_ZN7testing8internal18CmpHelperEQFailureIiiEENS_15AssertionResultEPKcS4_RKT_RKT0_
FNDA:0,_ZN7testing8internal18CmpHelperEQFailureIiiEENS_15AssertionResultEPKcS4_RKT_RKT0_
FN:1544,_ZN7testing8internal11CmpHelperEQIiiEENS_15AssertionResultEPKcS4_RKT_RKT0_
FNDA:0,_ZN7testing8internal11CmpHelperEQIiiEENS_15AssertionResultEPKcS4_RKT_RKT0_
FN:1564,_ZN7testing8internal8EqHelper7CompareIiiLPv0EEENS_15AssertionResultEPKcS6_RKT_RKT0_
FNDA:0,_ZN7testing8internal8EqHelper7CompareIiiLPv0EEENS_15AssertionResultEPKcS6_RKT_RKT0_
FN:1598,_ZN7testing8internal18CmpHelperOpFailureIiiEENS_15AssertionResultEPKcS4_RKT_RKT0_S4_
FNDA:0,_ZN7testing8internal18CmpHelperOpFailureIiiEENS_15AssertionResultEPKcS4_RKT_RKT0_S4_
FN:1627,_ZN7testing8internal11CmpHelperNEIiiEENS_15AssertionResultEPKcS4_RKT_RKT0_
FNDA:0,_ZN7testing8internal11CmpHelperNEIiiEENS_15AssertionResultEPKcS4_RKT_RKT0_
FN:2491,_Z13RUN_ALL_TESTSv
FNDA:1,_Z13RUN_ALL_TESTSv
DA:308,0
DA:314,0
DA:327,0
DA:336,0
DA:337,0
DA:340,0
DA:343,0
DA:344,0
DA:345,0
DA:346,0
DA:358,0
DA:359,0
DA:360,0
DA:361,0
DA:430,0
DA:438,0
DA:443,0
DA:444,0
DA:525,0
DA:1525,0
DA:1528,0
DA:1529,0
DA:1530,0
DA:1531,0
DA:1533,0
DA:1544,0
DA:1548,0
DA:1549,0
DA:1552,0
DA:1553,0
DA:1564,0
DA:1567,0
DA:1598,0
DA:1601,0
DA:1602,0
DA:1603,0
DA:1604,0
DA:1605,0
DA:1627,0
DA:2491,1
DA:2492,1
FNF:24
FNH:1
LF:41
LH:2
end_of_record
SF:/Users/phil/Downloads/fractal/protocol/test/ClientTest.cpp
FN:0,__cxx_global_var_init
FNDA:1,__cxx_global_var_init
FN:0,__cxx_global_var_init.5
FNDA:1,__cxx_global_var_init.5
FN:0,__cxx_global_var_init.7
FNDA:1,__cxx_global_var_init.7
FN:0,__cxx_global_var_init.11
FNDA:1,__cxx_global_var_init.11
FN:17,_ZN28ClientTest_EqualityTest_Test8TestBodyEv
FNDA:0,_ZN28ClientTest_EqualityTest_Test8TestBodyEv
FN:17,_ZN28ClientTest_EqualityTest_TestD1Ev
FNDA:0,_ZN28ClientTest_EqualityTest_TestD1Ev
FN:17,_ZN28ClientTest_EqualityTest_TestD0Ev
FNDA:0,_ZN28ClientTest_EqualityTest_TestD0Ev
FN:17,_ZN28ClientTest_EqualityTest_TestC1Ev
FNDA:0,_ZN28ClientTest_EqualityTest_TestC1Ev
FN:17,_ZN28ClientTest_EqualityTest_TestC2Ev
FNDA:0,_ZN28ClientTest_EqualityTest_TestC2Ev
FN:17,_ZN28ClientTest_EqualityTest_TestD2Ev
FNDA:0,_ZN28ClientTest_EqualityTest_TestD2Ev
FN:23,_ZN31ClientTest_NotEqualityTest_Test8TestBodyEv
FNDA:0,_ZN31ClientTest_NotEqualityTest_Test8TestBodyEv
FN:23,_ZN31ClientTest_NotEqualityTest_TestD1Ev
FNDA:0,_ZN31ClientTest_NotEqualityTest_TestD1Ev
FN:23,_ZN31ClientTest_NotEqualityTest_TestD0Ev
FNDA:0,_ZN31ClientTest_NotEqualityTest_TestD0Ev
FN:23,_ZN31ClientTest_NotEqualityTest_TestC1Ev
FNDA:0,_ZN31ClientTest_NotEqualityTest_TestC1Ev
FN:23,_ZN31ClientTest_NotEqualityTest_TestC2Ev
FNDA:0,_ZN31ClientTest_NotEqualityTest_TestC2Ev
FN:23,_ZN31ClientTest_NotEqualityTest_TestD2Ev
FNDA:0,_ZN31ClientTest_NotEqualityTest_TestD2Ev
FN:30,_ZN39ClientTest_ArgParsingEmptyArgsTest_Test8TestBodyEv
FNDA:0,_ZN39ClientTest_ArgParsingEmptyArgsTest_Test8TestBodyEv
FN:30,_ZN39ClientTest_ArgParsingEmptyArgsTest_TestD1Ev
FNDA:0,_ZN39ClientTest_ArgParsingEmptyArgsTest_TestD1Ev
FN:30,_ZN39ClientTest_ArgParsingEmptyArgsTest_TestD0Ev
FNDA:0,_ZN39ClientTest_ArgParsingEmptyArgsTest_TestD0Ev
FN:30,_ZN39ClientTest_ArgParsingEmptyArgsTest_TestC1Ev
FNDA:0,_ZN39ClientTest_ArgParsingEmptyArgsTest_TestC1Ev
FN:30,_ZN39ClientTest_ArgParsingEmptyArgsTest_TestC2Ev
FNDA:0,_ZN39ClientTest_ArgParsingEmptyArgsTest_TestC2Ev
FN:30,_ZN39ClientTest_ArgParsingEmptyArgsTest_TestD2Ev
FNDA:0,_ZN39ClientTest_ArgParsingEmptyArgsTest_TestD2Ev
FN:40,_ZN32ClientTest_FractalColorTest_Test8TestBodyEv
FNDA:0,_ZN32ClientTest_FractalColorTest_Test8TestBodyEv
FN:40,_ZN32ClientTest_FractalColorTest_TestD1Ev
FNDA:0,_ZN32ClientTest_FractalColorTest_TestD1Ev
FN:40,_ZN32ClientTest_FractalColorTest_TestD0Ev
FNDA:0,_ZN32ClientTest_FractalColorTest_TestD0Ev
FN:40,_ZN32ClientTest_FractalColorTest_TestC1Ev
FNDA:0,_ZN32ClientTest_FractalColorTest_TestC1Ev
FN:40,_ZN32ClientTest_FractalColorTest_TestC2Ev
FNDA:0,_ZN32ClientTest_FractalColorTest_TestC2Ev
FN:40,_ZN32ClientTest_FractalColorTest_TestD2Ev
FNDA:0,_ZN32ClientTest_FractalColorTest_TestD2Ev
FN:68,main
FNDA:1,main
DA:17,1
DA:18,0
DA:19,0
DA:20,0
DA:21,0
DA:23,1
DA:24,0
DA:25,0
DA:26,0
DA:27,0
DA:30,1
DA:31,0
DA:33,0
DA:34,0
DA:36,0
DA:37,0
DA:38,0
DA:40,1
DA:41,0
DA:42,0
DA:43,0
DA:44,0
DA:45,0
DA:46,0
DA:49,0
DA:50,0
DA:53,0
DA:54,0
DA:57,0
DA:60,0
DA:63,0
DA:64,0
DA:65,0
DA:66,0
DA:68,1
DA:69,1
DA:70,1
FNF:29
FNH:5
LF:37
LH:7
end_of_record
SF:/Library/Developer/CommandLineTools/SDKs/MacOSX.sdk/usr/include/c++/v1/new
FN:237,_ZNSt3__1L17__libcpp_allocateEmm
FNDA:11,_ZNSt3__1L17__libcpp_allocateEmm
DA:237,11
DA:253,11
FNF:1
FNH:1
LF:2
LH:2
end_of_record
SF:/Library/Developer/CommandLineTools/SDKs/MacOSX.sdk/usr/include/c++/v1/type_traits
FN:605,_ZNSt3__1L9addressofIKcEEPT_RS2_
FNDA:90,_ZNSt3__1L9addressofIKcEEPT_RS2_
FN:605,_ZNSt3__1L9addressofIcEEPT_RS1_
FNDA:34,_ZNSt3__1L9addressofIcEEPT_RS1_
FN:2627,_ZNSt3__1L7forwardINS_18__default_init_tagEEEOT_RNS_16remove_referenceIS2_E4typeE
FNDA:53,_ZNSt3__1L7forwardINS_18__default_init_tagEEEOT_RNS_16remove_referenceIS2_E4typeE
FN:2627,_ZNSt3__1L7forwardIRKNS_9allocatorIcEEEEOT_RNS_16remove_referenceIS5_E4typeE
FNDA:90,_ZNSt3__1L7forwardIRKNS_9allocatorIcEEEEOT_RNS_16remove_referenceIS5_E4typeE
FN:2627,_ZNSt3__1L7forwardIPNS_12basic_stringIcNS_11char_traitsIcEENS_9allocatorIcEEEEEEOT_RNS_16remove_referenceIS8_E4typeE
FNDA:0,_ZNSt3__1L7forwardIPNS_12basic_stringIcNS_11char_traitsIcEENS_9allocatorIcEEEEEEOT_RNS_16remove_referenceIS8_E4typeE
DA:605,124
DA:607,124
DA:2627,143
DA:2629,143
FNF:5
FNH:4
LF:4
LH:4
end_of_record
TN:
SF:/Users/phil/Downloads/fractal/protocol/fractal/video/videodecode.c
FN:62,set_opt
FNDA:0,set_opt
FN:77,set_decoder_opts
FNDA:0,set_decoder_opts
FN:89,hw_decoder_init
FNDA:0,hw_decoder_init
FN:111,match_format
FNDA:0,match_format
FN:159,get_format
FNDA:0,get_format
FN:214,try_setup_video_decoder
FNDA:0,try_setup_video_decoder
FN:384,try_next_decoder
FNDA:0,try_next_decoder
FN:439,destroy_video_decoder_members
FNDA:0,destroy_video_decoder_members
FN:476,create_video_decoder
FNDA:0,create_video_decoder
FN:513,destroy_video_decoder
FNDA:0,destroy_video_decoder
FN:527,video_decoder_send_packets
FNDA:0,video_decoder_send_packets
FN:559,video_decoder_get_frame
FNDA:0,video_decoder_get_frame
FN:612,video_decoder_decode
FNDA:0,video_decoder_decode
DA:62,0
DA:71,0
DA:72,0
DA:73,0
DA:74,0
DA:75,0
DA:77,0
DA:86,0
DA:87,0
DA:89,0
DA:101,0
DA:103,0
DA:104,0
DA:105,0
DA:108,0
DA:109,0
DA:111,0
DA:126,0
DA:129,0
DA:130,0
DA:131,0
DA:133,0
DA:135,0
DA:136,0
DA:137,0
DA:139,0
DA:141,0
DA:142,0
DA:143,0
DA:144,0
DA:146,0
DA:149,0
DA:150,0
DA:151,0
DA:155,0
DA:156,0
DA:157,0
DA:159,0
DA:172,0
DA:174,0
DA:178,0
DA:181,0
DA:182,0
DA:183,0
DA:184,0
DA:191,0
DA:192,0
DA:193,0
DA:194,0
DA:196,0
DA:197,0
DA:198,0
DA:199,0
DA:200,0
DA:202,0
DA:204,0
DA:205,0
DA:206,0
DA:207,0
DA:209,0
DA:211,0
DA:212,0
DA:214,0
DA:228,0
DA:230,0
DA:231,0
DA:233,0
DA:235,0
DA:237,0
DA:238,0
DA:239,0
DA:240,0
DA:241,0
DA:243,0
DA:244,0
DA:245,0
DA:247,0
DA:248,0
DA:250,0
DA:251,0
DA:252,0
DA:253,0
DA:254,0
DA:256,0
DA:257,0
DA:258,0
DA:261,0
DA:264,0
DA:266,0
DA:267,0
DA:268,0
DA:269,0
DA:270,0
DA:271,0
DA:273,0
DA:274,0
DA:275,0
DA:277,0
DA:279,0
DA:280,0
DA:282,0
DA:283,0
DA:284,0
DA:287,0
DA:288,0
DA:292,0
DA:293,0
DA:295,0
DA:307,0
DA:308,0
DA:315,0
DA:316,0
DA:318,0
DA:319,0
DA:321,0
DA:323,0
DA:324,0
DA:327,0
DA:328,0
DA:329,0
DA:330,0
DA:331,0
DA:333,0
DA:334,0
DA:335,0
DA:337,0
DA:339,0
DA:341,0
DA:342,0
DA:343,0
DA:346,0
DA:347,0
DA:348,0
DA:351,0
DA:353,0
DA:354,0
DA:356,0
DA:357,0
DA:358,0
DA:362,0
DA:363,0
DA:364,0
DA:367,0
DA:368,0
DA:384,0
DA:394,0
DA:395,0
DA:396,0
DA:397,0
DA:398,0
DA:400,0
DA:401,0
DA:403,0
DA:404,0
DA:406,0
DA:409,0
DA:410,0
DA:411,0
DA:412,0
DA:413,0
DA:414,0
DA:415,0
DA:416,0
DA:418,0
DA:419,0
DA:421,0
DA:423,0
DA:424,0
DA:427,0
DA:428,0
DA:429,0
DA:430,0
DA:431,0
DA:433,0
DA:434,0
DA:437,0
DA:439,0
DA:447,0
DA:448,0
DA:449,0
DA:453,0
DA:456,0
DA:459,0
DA:460,0
DA:461,0
DA:464,0
DA:465,0
DA:466,0
DA:467,0
DA:468,0
DA:476,0
DA:494,0
DA:495,0
DA:497,0
DA:498,0
DA:499,0
DA:500,0
DA:501,0
DA:504,0
DA:505,0
DA:506,0
DA:507,0
DA:510,0
DA:511,0
DA:513,0
DA:520,0
DA:523,0
DA:524,0
DA:527,0
DA:541,0
DA:544,0
DA:545,0
DA:546,0
DA:547,0
DA:548,0
DA:549,0
DA:550,0
DA:551,0
DA:552,0
DA:553,0
DA:555,0
DA:556,0
DA:557,0
DA:559,0
DA:576,0
DA:577,0
DA:578,0
DA:579,0
DA:580,0
DA:581,0
DA:582,0
DA:583,0
DA:584,0
DA:585,0
DA:594,0
DA:595,0
DA:596,0
DA:597,0
DA:598,0
DA:600,0
DA:601,0
DA:602,0
DA:603,0
DA:604,0
DA:605,0
DA:606,0
DA:609,0
DA:610,0
DA:612,0
DA:626,0
DA:629,0
DA:630,0
DA:631,0
DA:633,0
DA:636,0
DA:638,0
DA:640,0
DA:641,0
DA:642,0
DA:643,0
DA:644,0
DA:646,0
DA:647,0
DA:651,0
DA:654,0
DA:655,0
DA:660,0
DA:661,0
DA:662,0
DA:664,0
DA:666,0
DA:667,0
DA:669,0
DA:670,0
DA:671,0
DA:672,0
DA:673,0
DA:674,0
DA:675,0
DA:678,0
DA:680,0
DA:681,0
DA:682,0
DA:683,0
DA:686,0
DA:688,0
DA:689,0
DA:690,0
DA:691,0
DA:694,0
DA:695,0
DA:696,0
DA:697,0
DA:698,0
DA:699,0
DA:701,0
DA:702,0
DA:703,0
DA:704,0
DA:708,0
DA:714,0
DA:715,0
DA:716,0
DA:718,0
DA:719,0
DA:720,0
DA:721,0
DA:722,0
DA:723,0
DA:724,0
DA:725,0
FNF:13
FNH:0
LF:311
LH:0
end_of_record
SF:/Users/phil/Downloads/fractal/protocol/build/include/ffmpeg/libavutil/error.h
FN:109,av_make_error_string
FNDA:0,av_make_error_string
DA:109,0
DA:111,0
DA:112,0
FNF:1
FNH:0
LF:3
LH:0
end_of_record
TN:
SF:/Users/phil/Downloads/fractal/protocol/fractal/core/fractal_memory.c
FN:28,safe_malloc
FNDA:2,safe_malloc
FN:45,safe_realloc
FNDA:0,safe_realloc
FN:75,init_dynamic_buffer
FNDA:0,init_dynamic_buffer
FN:106,resize_dynamic_buffer
FNDA:0,resize_dynamic_buffer
FN:149,free_dynamic_buffer
FNDA:0,free_dynamic_buffer
FN:191,create_block_allocator
FNDA:0,create_block_allocator
FN:215,allocate_block
FNDA:0,allocate_block
FN:242,free_block
FNDA:0,free_block
FN:303,get_page_size
FNDA:0,get_page_size
FN:331,allocate_region
FNDA:0,allocate_region
FN:367,mark_unused_region
FNDA:0,mark_unused_region
FN:398,mark_used_region
FNDA:0,mark_used_region
FN:428,realloc_region
FNDA:0,realloc_region
FN:459,deallocate_region
FNDA:0,deallocate_region
DA:28,2
DA:37,2
DA:38,2
DA:39,0
DA:41,2
DA:45,0
DA:58,0
DA:59,0
DA:60,0
DA:62,0
DA:75,0
DA:90,0
DA:91,0
DA:92,0
DA:93,0
DA:96,0
DA:97,0
DA:98,0
DA:99,0
DA:100,0
DA:103,0
DA:106,0
DA:116,0
DA:118,0
DA:119,0
DA:122,0
DA:123,0
DA:126,0
DA:127,0
DA:128,0
DA:129,0
DA:133,0
DA:135,0
DA:136,0
DA:137,0
DA:138,0
DA:141,0
DA:142,0
DA:143,0
DA:146,0
DA:147,0
DA:149,0
DA:157,0
DA:158,0
DA:159,0
DA:160,0
DA:162,0
DA:163,0
DA:191,0
DA:205,0
DA:208,0
DA:209,0
DA:210,0
DA:212,0
DA:215,0
DA:226,0
DA:229,0
DA:230,0
DA:231,0
DA:232,0
DA:236,0
DA:237,0
DA:239,0
DA:240,0
DA:242,0
DA:251,0
DA:254,0
DA:255,0
DA:256,0
DA:257,0
DA:259,0
DA:260,0
DA:262,0
DA:303,0
DA:318,0
DA:331,0
DA:345,0
DA:347,0
DA:349,0
DA:358,0
DA:359,0
DA:360,0
DA:362,0
DA:364,0
DA:367,0
DA:377,0
DA:378,0
DA:381,0
DA:382,0
DA:383,0
DA:390,0
DA:395,0
DA:396,0
DA:398,0
DA:407,0
DA:408,0
DA:409,0
DA:410,0
DA:411,0
DA:419,0
DA:425,0
DA:426,0
DA:428,0
DA:442,0
DA:443,0
DA:446,0
DA:448,0
DA:450,0
DA:453,0
DA:459,0
DA:467,0
DA:474,0
DA:475,0
DA:478,0
FNF:14
FNH:1
LF:114
LH:4
end_of_record
TN:
SF:/Users/phil/Downloads/fractal/protocol/fractal/core/fractal_frame.c
FN:3,set_frame_cursor_image
FNDA:0,set_frame_cursor_image
FN:22,get_frame_cursor_image
FNDA:0,get_frame_cursor_image
FN:41,get_frame_videodata
FNDA:0,get_frame_videodata
FN:65,get_frame_peer_messages
FNDA:0,get_frame_peer_messages
FN:84,get_total_frame_size
FNDA:0,get_total_frame_size
DA:3,0
DA:14,0
DA:15,0
DA:16,0
DA:17,0
DA:18,0
DA:20,0
DA:22,0
DA:34,0
DA:35,0
DA:37,0
DA:39,0
DA:41,0
DA:58,0
DA:59,0
DA:60,0
DA:61,0
DA:62,0
DA:65,0
DA:81,0
DA:84,0
DA:96,0
DA:97,0
DA:98,0
DA:99,0
DA:100,0
FNF:5
FNH:0
LF:26
LH:0
end_of_record
TN:
SF:/Users/phil/Downloads/fractal/protocol/fractal/core/fractal.c
FN:27,multithreaded_print_system_info
FNDA:0,multithreaded_print_system_info
FN:52,print_system_info
FNDA:0,print_system_info
FN:62,runcmd
FNDA:0,runcmd
FN:255,read_hexadecimal_private_key
FNDA:0,read_hexadecimal_private_key
FN:294,get_fmsg_size
FNDA:0,get_fmsg_size
FN:315,terminate_protocol
FNDA:0,terminate_protocol
FN:330,safe_strncpy
FNDA:4,safe_strncpy
FN:365,fractal_git_revision
FNDA:0,fractal_git_revision
DA:27,0
DA:32,0
DA:34,0
DA:36,0
DA:37,0
DA:38,0
DA:39,0
DA:40,0
DA:41,0
DA:43,0
DA:52,0
DA:57,0
DA:58,0
DA:59,0
DA:60,0
DA:62,0
DA:197,0
DA:198,0
DA:199,0
DA:208,0
DA:209,0
DA:211,0
DA:212,0
DA:213,0
DA:214,0
DA:216,0
DA:220,0
DA:221,0
DA:223,0
DA:224,0
DA:226,0
DA:228,0
DA:229,0
DA:230,0
DA:232,0
DA:233,0
DA:238,0
DA:241,0
DA:244,0
DA:245,0
DA:247,0
DA:248,0
DA:249,0
DA:253,0
DA:255,0
DA:275,0
DA:276,0
DA:278,0
DA:279,0
DA:280,0
DA:282,0
DA:283,0
DA:285,0
DA:291,0
DA:292,0
DA:294,0
DA:305,0
DA:306,0
DA:307,0
DA:308,0
DA:311,0
DA:313,0
DA:315,0
DA:320,0
DA:321,0
DA:323,0
DA:324,0
DA:325,0
DA:327,0
DA:330,4
DA:349,4
DA:351,12
DA:352,8
DA:353,8
DA:354,4
DA:355,4
DA:357,0
DA:358,4
DA:365,0
DA:374,0
FNF:8
FNH:1
LF:80
LH:8
end_of_record
SF:/Library/Developer/CommandLineTools/SDKs/MacOSX.sdk/usr/include/libkern/arm/OSByteOrder.h
FN:25,_OSSwapInt32
FNDA:0,_OSSwapInt32
DA:25,0
DA:30,0
DA:36,0
FNF:1
FNH:0
LF:3
LH:0
end_of_record
TN:
SF:/Users/phil/Downloads/fractal/protocol/fractal/core/fractalgetopt.c
FN:61,progname
FNDA:0,progname
FN:82,getopt_internal
FNDA:2,getopt_internal
FN:163,getopt_long
FNDA:2,getopt_long
DA:61,0
DA:64,0
DA:66,0
DA:67,0
DA:68,0
DA:70,0
DA:71,0
DA:82,2
DA:86,2
DA:87,2
DA:89,2
DA:90,2
DA:91,2
DA:92,2
DA:93,2
DA:95,0
DA:97,0
DA:98,0
DA:100,0
DA:101,0
DA:106,0
DA:107,0
DA:108,0
DA:109,0
DA:110,0
DA:112,0
DA:113,0
DA:114,0
DA:115,0
DA:116,0
DA:117,0
DA:118,0
DA:119,0
DA:120,0
DA:121,0
DA:122,0
DA:123,0
DA:124,0
DA:125,0
DA:126,0
DA:127,0
DA:128,0
DA:129,0
DA:131,0
DA:132,0
DA:134,0
DA:135,0
DA:136,2
DA:163,2
DA:167,2
DA:168,2
DA:169,2
DA:172,2
DA:173,0
DA:174,0
DA:176,0
DA:177,0
DA:179,0
DA:180,0
DA:181,0
DA:182,0
DA:183,0
DA:185,0
DA:186,0
DA:188,0
DA:189,0
DA:190,0
DA:192,0
DA:193,0
DA:194,0
DA:195,0
DA:196,0
DA:197,0
DA:198,0
DA:200,0
DA:201,0
DA:202,0
DA:207,0
DA:208,0
DA:209,0
DA:210,0
DA:212,0
DA:213,0
DA:214,0
DA:215,0
DA:217,0
DA:218,0
DA:219,0
DA:220,0
DA:221,0
DA:222,0
DA:223,0
DA:224,2
DA:225,2
FNF:3
FNH:2
LF:94
LH:16
end_of_record
TN:
SF:/Users/phil/Downloads/fractal/protocol/fractal/network/network.c
FN:213,handshake_private_key
FNDA:0,handshake_private_key
FN:276,socketp_tcp
FNDA:0,socketp_tcp
FN:314,socketp_udp
FNDA:0,socketp_udp
FN:344,acceptp
FNDA:0,acceptp
FN:380,tcp_connect
FNDA:0,tcp_connect
FN:449,create_tcp_server_context
FNDA:0,create_tcp_server_context
FN:554,create_tcp_server_context_stun
FNDA:0,create_tcp_server_context_stun
FN:708,create_tcp_client_context
FNDA:0,create_tcp_client_context
FN:766,create_tcp_client_context_stun
FNDA:0,create_tcp_client_context_stun
FN:933,create_tcp_context
FNDA:0,create_tcp_context
FN:998,create_udp_server_context
FNDA:0,create_udp_server_context
FN:1066,create_udp_server_context_stun
FNDA:0,create_udp_server_context_stun
FN:1195,create_udp_client_context
FNDA:0,create_udp_client_context
FN:1238,create_udp_client_context_stun
FNDA:0,create_udp_client_context_stun
FN:1337,write_curl_response_callback
FNDA:0,write_curl_response_callback
FN:1366,set_timeout
FNDA:0,set_timeout
FN:1413,prepare_private_key_request
FNDA:0,prepare_private_key_request
FN:1428,sign_private_key
FNDA:0,sign_private_key
FN:1454,confirm_private_key
FNDA:0,confirm_private_key
FN:1499,init_networking
FNDA:2,init_networking
FN:1509,get_last_network_error
FNDA:0,get_last_network_error
FN:1525,recvp
FNDA:0,recvp
FN:1550,sendp
FNDA:0,sendp
FN:1591,create_udp_context
FNDA:0,create_udp_context
FN:1642,send_tcp_packet
FNDA:0,send_tcp_packet
FN:1708,send_udp_packet
FNDA:0,send_udp_packet
FN:1834,replay_packet
FNDA:0,replay_packet
FN:1880,ack
FNDA:0,ack
FN:1898,read_tcp_packet
FNDA:0,read_tcp_packet
FN:1995,read_udp_packet
FNDA:0,read_udp_packet
FN:2057,free_tcp_packet
FNDA:0,free_tcp_packet
DA:213,0
DA:224,0
DA:230,0
DA:233,0
DA:234,0
DA:235,0
DA:237,0
DA:239,0
DA:242,0
DA:243,0
DA:244,0
DA:246,0
DA:247,0
DA:249,0
DA:251,0
DA:252,0
DA:253,0
DA:254,0
DA:256,0
DA:257,0
DA:259,0
DA:261,0
DA:264,0
DA:265,0
DA:266,0
DA:267,0
DA:268,0
DA:270,0
DA:271,0
DA:272,0
DA:274,0
DA:276,0
DA:295,0
DA:296,0
DA:297,0
DA:298,0
DA:304,0
DA:305,0
DA:306,0
DA:311,0
DA:312,0
DA:314,0
DA:329,0
DA:334,0
DA:335,0
DA:336,0
DA:341,0
DA:342,0
DA:344,0
DA:361,0
DA:362,0
DA:363,0
DA:364,0
DA:370,0
DA:371,0
DA:372,0
DA:377,0
DA:378,0
DA:380,0
DA:396,0
DA:399,0
DA:400,0
DA:402,0
DA:403,0
DA:407,0
DA:408,0
DA:410,0
DA:414,0
DA:415,0
DA:417,0
DA:418,0
DA:419,0
DA:420,0
DA:421,0
DA:422,0
DA:423,0
DA:428,0
DA:429,0
DA:433,0
DA:434,0
DA:435,0
DA:436,0
DA:437,0
DA:439,0
DA:440,0
DA:441,0
DA:442,0
DA:445,0
DA:446,0
DA:447,0
DA:449,0
DA:464,0
DA:465,0
DA:466,0
DA:469,0
DA:474,0
DA:475,0
DA:476,0
DA:479,0
DA:481,0
DA:484,0
DA:485,0
DA:486,0
DA:487,0
DA:491,0
DA:492,0
DA:493,0
DA:496,0
DA:497,0
DA:498,0
DA:499,0
DA:503,0
DA:504,0
DA:505,0
DA:506,0
DA:507,0
DA:511,0
DA:512,0
DA:513,0
DA:514,0
DA:517,0
DA:518,0
DA:521,0
DA:522,0
DA:523,0
DA:524,0
DA:525,0
DA:526,0
DA:528,0
DA:529,0
DA:533,0
DA:534,0
DA:536,0
DA:538,0
DA:541,0
DA:543,0
DA:544,0
DA:546,0
DA:549,0
DA:551,0
DA:552,0
DA:554,0
DA:569,0
DA:570,0
DA:571,0
DA:574,0
DA:578,0
DA:579,0
DA:580,0
DA:584,0
DA:585,0
DA:588,0
DA:591,0
DA:592,0
DA:593,0
DA:597,0
DA:598,0
DA:601,0
DA:604,0
DA:605,0
DA:606,0
DA:607,0
DA:612,0
DA:613,0
DA:614,0
DA:615,0
DA:618,0
DA:619,0
DA:620,0
DA:621,0
DA:622,0
DA:626,0
DA:627,0
DA:628,0
DA:630,0
DA:631,0
DA:632,0
DA:633,0
DA:638,0
DA:640,0
DA:641,0
DA:643,0
DA:645,0
DA:646,0
DA:647,0
DA:648,0
DA:649,0
DA:651,0
DA:654,0
DA:655,0
DA:656,0
DA:657,0
DA:662,0
DA:663,0
DA:664,0
DA:665,0
DA:668,0
DA:671,0
DA:672,0
DA:675,0
DA:676,0
DA:677,0
DA:680,0
DA:681,0
DA:682,0
DA:683,0
DA:687,0
DA:688,0
DA:689,0
DA:690,0
DA:693,0
DA:696,0
DA:697,0
DA:698,0
DA:701,0
DA:702,0
DA:704,0
DA:705,0
DA:706,0
DA:708,0
DA:724,0
DA:725,0
DA:726,0
DA:727,0
DA:729,0
DA:730,0
DA:731,0
DA:733,0
DA:736,0
DA:737,0
DA:740,0
DA:743,0
DA:745,0
DA:746,0
DA:747,0
DA:749,0
DA:751,0
DA:754,0
DA:755,0
DA:756,0
DA:759,0
DA:761,0
DA:763,0
DA:764,0
DA:766,0
DA:782,0
DA:783,0
DA:784,0
DA:786,0
DA:787,0
DA:788,0
DA:790,0
DA:794,0
DA:795,0
DA:796,0
DA:800,0
DA:801,0
DA:804,0
DA:807,0
DA:808,0
DA:809,0
DA:813,0
DA:814,0
DA:816,0
DA:819,0
DA:820,0
DA:821,0
DA:822,0
DA:826,0
DA:827,0
DA:828,0
DA:832,0
DA:833,0
DA:834,0
DA:835,0
DA:836,0
DA:840,0
DA:841,0
DA:842,0
DA:843,0
DA:845,0
DA:846,0
DA:847,0
DA:848,0
DA:853,0
DA:855,0
DA:856,0
DA:858,0
DA:860,0
DA:861,0
DA:862,0
DA:863,0
DA:864,0
DA:866,0
DA:869,0
DA:870,0
DA:871,0
DA:872,0
DA:873,0
DA:874,0
DA:875,0
DA:876,0
DA:877,0
DA:878,0
DA:879,0
DA:880,0
DA:881,0
DA:883,0
DA:886,0
DA:887,0
DA:888,0
DA:893,0
DA:894,0
DA:897,0
DA:900,0
DA:901,0
DA:905,0
DA:906,0
DA:907,0
DA:908,0
DA:912,0
DA:913,0
DA:914,0
DA:915,0
DA:917,0
DA:919,0
DA:922,0
DA:923,0
DA:924,0
DA:927,0
DA:929,0
DA:930,0
DA:931,0
DA:933,0
DA:951,0
DA:952,0
DA:953,0
DA:954,0
DA:955,0
DA:956,0
DA:958,0
DA:960,0
DA:961,0
DA:962,0
DA:964,0
DA:965,0
DA:966,0
DA:970,0
DA:971,0
DA:972,0
DA:973,0
DA:975,0
DA:976,0
DA:977,0
DA:978,0
DA:979,0
DA:981,0
DA:982,0
DA:985,0
DA:986,0
DA:989,0
DA:990,0
DA:991,0
DA:992,0
DA:995,0
DA:996,0
DA:998,0
DA:1013,0
DA:1014,0
DA:1015,0
DA:1018,0
DA:1019,0
DA:1021,0
DA:1022,0
DA:1025,0
DA:1027,0
DA:1031,0
DA:1032,0
DA:1033,0
DA:1035,0
DA:1036,0
DA:1037,0
DA:1038,0
DA:1041,0
DA:1043,0
DA:1045,0
DA:1046,0
DA:1047,0
DA:1048,0
DA:1049,0
DA:1052,0
DA:1053,0
DA:1054,0
DA:1055,0
DA:1058,0
DA:1061,0
DA:1063,0
DA:1064,0
DA:1066,0
DA:1081,0
DA:1082,0
DA:1085,0
DA:1086,0
DA:1089,0
DA:1092,0
DA:1096,0
DA:1097,0
DA:1098,0
DA:1100,0
DA:1101,0
DA:1102,0
DA:1104,0
DA:1105,0
DA:1106,0
DA:1107,0
DA:1108,0
DA:1109,0
DA:1112,0
DA:1116,0
DA:1120,0
DA:1122,0
DA:1123,0
DA:1125,0
DA:1126,0
DA:1129,0
DA:1130,0
DA:1131,0
DA:1132,0
DA:1133,0
DA:1134,0
DA:1135,0
DA:1136,0
DA:1138,0
DA:1140,0
DA:1141,0
DA:1142,0
DA:1145,0
DA:1147,0
DA:1148,0
DA:1149,0
DA:1150,0
DA:1154,0
DA:1155,0
DA:1156,0
DA:1158,0
DA:1162,0
DA:1163,0
DA:1164,0
DA:1166,0
DA:1168,0
DA:1169,0
DA:1170,0
DA:1171,0
DA:1173,0
DA:1176,0
DA:1177,0
DA:1181,0
DA:1182,0
DA:1183,0
DA:1185,0
DA:1186,0
DA:1189,0
DA:1192,0
DA:1193,0
DA:1195,0
DA:1197,0
DA:1198,0
DA:1201,0
DA:1202,0
DA:1205,0
DA:1208,0
DA:1209,0
DA:1210,0
DA:1211,0
DA:1213,0
DA:1216,0
DA:1217,0
DA:1218,0
DA:1219,0
DA:1222,0
DA:1224,0
DA:1225,0
DA:1226,0
DA:1227,0
DA:1230,0
DA:1233,0
DA:1235,0
DA:1236,0
DA:1238,0
DA:1254,0
DA:1255,0
DA:1258,0
DA:1259,0
DA:1262,0
DA:1265,0
DA:1268,0
DA:1269,0
DA:1270,0
DA:1272,0
DA:1273,0
DA:1274,0
DA:1275,0
DA:1277,0
DA:1278,0
DA:1279,0
DA:1280,0
DA:1281,0
DA:1282,0
DA:1285,0
DA:1287,0
DA:1288,0
DA:1289,0
DA:1290,0
DA:1293,0
DA:1294,0
DA:1295,0
DA:1296,0
DA:1297,0
DA:1298,0
DA:1299,0
DA:1300,0
DA:1301,0
DA:1302,0
DA:1303,0
DA:1304,0
DA:1305,0
DA:1307,0
DA:1310,0
DA:1311,0
DA:1312,0
DA:1315,0
DA:1318,0
DA:1319,0
DA:1320,0
DA:1322,0
DA:1324,0
DA:1325,0
DA:1326,0
DA:1327,0
DA:1330,0
DA:1332,0
DA:1334,0
DA:1335,0
DA:1337,0
DA:1352,0
DA:1353,0
DA:1356,0
DA:1357,0
DA:1358,0
DA:1359,0
DA:1361,0
DA:1363,0
DA:1364,0
DA:1366,0
DA:1379,0
DA:1380,0
DA:1383,0
DA:1385,0
DA:1386,0
DA:1389,0
DA:1390,0
DA:1391,0
DA:1392,0
DA:1394,0
DA:1396,0
DA:1397,0
DA:1398,0
DA:1401,0
DA:1403,0
DA:1404,0
DA:1405,0
DA:1406,0
DA:1408,0
DA:1411,0
DA:1413,0
DA:1422,0
DA:1425,0
DA:1426,0
DA:1428,0
DA:1441,0
DA:1443,0
DA:1444,0
DA:1445,0
DA:1446,0
DA:1448,0
DA:1450,0
DA:1452,0
DA:1454,0
DA:1470,0
DA:1471,0
DA:1472,0
DA:1473,0
DA:1476,0
DA:1477,0
DA:1478,0
DA:1479,0
DA:1480,0
DA:1481,0
DA:1483,0
DA:1487,0
DA:1489,0
DA:1491,0
DA:1499,2
DA:1504,131074
DA:1505,131072
DA:1506,131072
DA:1507,2
DA:1509,0
DA:1521,0
DA:1525,0
DA:1540,0
DA:1541,0
DA:1542,0
DA:1544,0
DA:1545,0
DA:1550,0
DA:1563,0
DA:1564,0
DA:1565,0
DA:1567,0
DA:1568,0
DA:1569,0
DA:1572,0
DA:1573,0
DA:1575,0
DA:1578,0
DA:1579,0
DA:1580,0
DA:1581,0
DA:1582,0
DA:1584,0
DA:1585,0
DA:1586,0
DA:1589,0
DA:1591,0
DA:1609,0
DA:1610,0
DA:1611,0
DA:1612,0
DA:1613,0
DA:1614,0
DA:1616,0
DA:1618,0
DA:1619,0
DA:1620,0
DA:1623,0
DA:1624,0
DA:1625,0
DA:1626,0
DA:1628,0
DA:1629,0
DA:1631,0
DA:1632,0
DA:1634,0
DA:1635,0
DA:1637,0
DA:1642,0
DA:1657,0
DA:1658,0
DA:1659,0
DA:1665,0
DA:1666,0
DA:1668,0
DA:1671,0
DA:1672,0
DA:1673,0
DA:1674,0
DA:1675,0
DA:1676,0
DA:1679,0
DA:1682,0
DA:1683,0
DA:1684,0
DA:1685,0
DA:1688,0
DA:1691,0
DA:1692,0
DA:1693,0
DA:1694,0
DA:1695,0
DA:1696,0
DA:1698,0
DA:1699,0
DA:1702,0
DA:1703,0
DA:1708,0
DA:1731,0
DA:1732,0
DA:1733,0
DA:1735,0
DA:1736,0
DA:1737,0
DA:1741,0
DA:1743,0
DA:1745,0
DA:1767,0
DA:1769,0
DA:1771,0
DA:1772,0
DA:1773,0
DA:1777,0
DA:1778,0
DA:1780,0
DA:1781,0
DA:1785,0
DA:1786,0
DA:1787,0
DA:1789,0
DA:1790,0
DA:1791,0
DA:1793,0
DA:1796,0
DA:1797,0
DA:1798,0
DA:1799,0
DA:1800,0
DA:1801,0
DA:1802,0
DA:1803,0
DA:1806,0
DA:1810,0
DA:1811,0
DA:1814,0
DA:1816,0
DA:1817,0
DA:1819,0
DA:1820,0
DA:1821,0
DA:1822,0
DA:1825,0
DA:1826,0
DA:1831,0
DA:1832,0
DA:1834,0
DA:1848,0
DA:1849,0
DA:1850,0
DA:1852,0
DA:1853,0
DA:1854,0
DA:1856,0
DA:1857,0
DA:1858,0
DA:1861,0
DA:1864,0
DA:1865,0
DA:1867,0
DA:1868,0
DA:1869,0
DA:1870,0
DA:1872,0
DA:1873,0
DA:1874,0
DA:1877,0
DA:1878,0
DA:1880,0
DA:1895,0
DA:1898,0
DA:1912,0
DA:1913,0
DA:1914,0
DA:1916,0
DA:1917,0
DA:1918,0
DA:1921,0
DA:1925,0
DA:1926,0
DA:1928,0
DA:1929,0
DA:1931,0
DA:1934,0
DA:1935,0
DA:1936,0
DA:1937,0
DA:1938,0
DA:1940,0
DA:1942,0
DA:1943,0
DA:1949,0
DA:1952,0
DA:1953,0
DA:1957,0
DA:1958,0
DA:1960,0
DA:1961,0
DA:1962,0
DA:1963,0
DA:1967,0
DA:1968,0
DA:1969,0
DA:1970,0
DA:1971,0
DA:1972,0
DA:1975,0
DA:1977,0
DA:1982,0
DA:1983,0
DA:1984,0
DA:1987,0
DA:1990,0
DA:1992,0
DA:1993,0
DA:1995,0
DA:2006,0
DA:2007,0
DA:2008,0
DA:2013,0
DA:2018,0
DA:2019,0
DA:2020,0
DA:2024,0
DA:2025,0
DA:2027,0
DA:2028,0
DA:2030,0
DA:2031,0
DA:2032,0
DA:2035,0
DA:2037,0
DA:2038,0
DA:2039,0
DA:2045,0
DA:2047,0
DA:2048,0
DA:2050,0
DA:2053,0
DA:2055,0
DA:2057,0
DA:2065,0
DA:2066,0
FNF:31
FNH:1
LF:830
LH:5
end_of_record
SF:/Library/Developer/CommandLineTools/SDKs/MacOSX.sdk/usr/include/sys/_types/_fd_def.h
FN:58,__darwin_check_fd_set
FNDA:0,__darwin_check_fd_set
FN:90,__darwin_fd_set
FNDA:0,__darwin_fd_set
DA:58,0
DA:64,0
DA:68,0
DA:71,0
DA:76,0
DA:90,0
DA:92,0
DA:93,0
DA:94,0
DA:95,0
FNF:2
FNH:0
LF:10
LH:0
end_of_record
SF:/Library/Developer/CommandLineTools/SDKs/MacOSX.sdk/usr/include/libkern/arm/OSByteOrder.h
FN:15,_OSSwapInt16
FNDA:0,_OSSwapInt16
DA:15,0
DA:20,0
FNF:1
FNH:0
LF:2
LH:0
end_of_record
TN:
SF:/Users/phil/Downloads/fractal/protocol/fractal/utils/aes.c
FN:27,hash
FNDA:0,hash
FN:55,handle_errors
FNDA:0,handle_errors
FN:60,gen_iv
FNDA:0,gen_iv
FN:72,hmac
FNDA:0,hmac
FN:83,verify_hmac
FNDA:0,verify_hmac
FN:101,encrypt_packet
FNDA:0,encrypt_packet
FN:131,decrypt_packet
FNDA:0,decrypt_packet
FN:142,decrypt_packet_n
FNDA:0,decrypt_packet_n
FN:182,aes_encrypt
FNDA:0,aes_encrypt
FN:210,aes_decrypt
FNDA:0,aes_decrypt
DA:27,0
DA:28,0
DA:30,0
DA:31,0
DA:32,0
DA:33,0
DA:34,0
DA:35,0
DA:36,0
DA:37,0
DA:38,0
DA:39,0
DA:40,0
DA:43,0
DA:44,0
DA:45,0
DA:46,0
DA:47,0
DA:48,0
DA:49,0
DA:50,0
DA:51,0
DA:52,0
DA:55,0
DA:56,0
DA:57,0
DA:60,0
DA:61,0
DA:62,0
DA:63,0
DA:64,0
DA:65,0
DA:67,0
DA:68,0
DA:69,0
DA:70,0
DA:72,0
DA:74,0
DA:76,0
DA:77,0
DA:78,0
DA:80,0
DA:81,0
DA:83,0
DA:85,0
DA:86,0
DA:87,0
DA:88,0
DA:90,0
DA:91,0
DA:92,0
DA:101,0
DA:103,0
DA:104,0
DA:107,0
DA:109,0
DA:110,0
DA:111,0
DA:112,0
DA:114,0
DA:119,0
DA:120,0
DA:122,0
DA:128,0
DA:131,0
DA:133,0
DA:134,0
DA:135,0
DA:137,0
DA:138,0
DA:139,0
DA:140,0
DA:142,0
DA:145,0
DA:146,0
DA:147,0
DA:150,0
DA:151,0
DA:152,0
DA:153,0
DA:154,0
DA:157,0
DA:158,0
DA:160,0
DA:161,0
DA:162,0
DA:163,0
DA:165,0
DA:166,0
DA:167,0
DA:171,0
DA:174,0
DA:175,0
DA:176,0
DA:179,0
DA:180,0
DA:182,0
DA:190,0
DA:193,0
DA:196,0
DA:197,0
DA:200,0
DA:201,0
DA:202,0
DA:205,0
DA:207,0
DA:210,0
DA:218,0
DA:221,0
DA:224,0
DA:225,0
DA:228,0
DA:229,0
DA:232,0
DA:234,0
FNF:10
FNH:0
LF:115
LH:0
end_of_record
TN:
SF:/Users/phil/Downloads/fractal/protocol/fractal/utils/sysinfo.c
FN:45,print_os_info
FNDA:0,print_os_info
FN:106,print_model_info
FNDA:0,print_model_info
FN:179,print_monitors
FNDA:0,print_monitors
FN:267,print_ram_info
FNDA:0,print_ram_info
FN:315,print_memory_info
FNDA:0,print_memory_info
FN:359,print_cpu_info
FNDA:0,print_cpu_info
FN:436,print_hard_drive_info
FNDA:0,print_hard_drive_info
DA:45,0
DA:85,0
DA:86,0
DA:87,0
DA:88,0
DA:89,0
DA:90,0
DA:91,0
DA:92,0
DA:104,0
DA:106,0
DA:150,0
DA:151,0
DA:152,0
DA:153,0
DA:154,0
DA:155,0
DA:156,0
DA:157,0
DA:177,0
DA:179,0
DA:265,0
DA:267,0
DA:288,0
DA:289,0
DA:290,0
DA:291,0
DA:292,0
DA:293,0
DA:294,0
DA:295,0
DA:296,0
DA:310,0
DA:312,0
DA:313,0
DA:315,0
DA:333,0
DA:359,0
DA:361,0
DA:362,0
DA:363,0
DA:364,0
DA:365,0
DA:421,0
DA:422,0
DA:423,0
DA:424,0
DA:425,0
DA:429,0
DA:430,0
DA:431,0
DA:432,0
DA:434,0
DA:436,0
DA:451,0
DA:452,0
DA:453,0
DA:454,0
DA:456,0
DA:458,0
FNF:7
FNH:0
LF:60
LH:0
end_of_record
TN:
SF:/Users/phil/Downloads/fractal/protocol/fractal/utils/lodepng.c
FN:79,lodepng_malloc
FNDA:0,lodepng_malloc
FN:87,lodepng_realloc
FNDA:0,lodepng_realloc
FN:94,lodepng_free
FNDA:0,lodepng_free
FN:124,lodepng_memcpy
FNDA:0,lodepng_memcpy
FN:130,lodepng_memset
FNDA:0,lodepng_memset
FN:136,lodepng_strlen
FNDA:0,lodepng_strlen
FN:151,lodepng_addofl
FNDA:0,lodepng_addofl
FN:160,lodepng_mulofl
FNDA:0,lodepng_mulofl
FN:167,lodepng_gtofl
FNDA:0,lodepng_gtofl
FN:231,uivector_cleanup
FNDA:0,uivector_cleanup
FN:238,uivector_resize
FNDA:0,uivector_resize
FN:253,uivector_init
FNDA:0,uivector_init
FN:259,uivector_push_back
FNDA:0,uivector_push_back
FN:277,ucvector_resize
FNDA:0,ucvector_resize
FN:291,ucvector_init
FNDA:0,ucvector_init
FN:304,string_cleanup
FNDA:0,string_cleanup
FN:310,alloc_string_sized
FNDA:0,alloc_string_sized
FN:320,alloc_string
FNDA:0,alloc_string
FN:327,lodepng_read32bitInt
FNDA:0,lodepng_read32bitInt
FN:335,lodepng_set32bitInt
FNDA:0,lodepng_set32bitInt
FN:350,lodepng_filesize
FNDA:0,lodepng_filesize
FN:370,lodepng_buffer_file
FNDA:0,lodepng_buffer_file
FN:383,lodepng_load_file
FNDA:0,lodepng_load_file
FN:395,lodepng_save_file
FNDA:0,lodepng_save_file
FN:420,LodePNGBitWriter_init
FNDA:0,LodePNGBitWriter_init
FN:438,writeBits
FNDA:0,writeBits
FN:451,writeBitsReversed
FNDA:0,writeBitsReversed
FN:471,LodePNGBitReader_init
FNDA:0,LodePNGBitReader_init
FN:501,ensureBits9
FNDA:0,ensureBits9
FN:518,ensureBits17
FNDA:0,ensureBits17
FN:537,ensureBits25
FNDA:0,ensureBits25
FN:557,ensureBits32
FNDA:0,ensureBits32
FN:580,peekBits
FNDA:0,peekBits
FN:586,advanceBits
FNDA:0,advanceBits
FN:592,readBits
FNDA:0,readBits
FN:599,lode_png_test_bitreader
FNDA:0,lode_png_test_bitreader
FN:623,reverseBits
FNDA:0,reverseBits
FN:685,HuffmanTree_init
FNDA:0,HuffmanTree_init
FN:692,HuffmanTree_cleanup
FNDA:0,HuffmanTree_cleanup
FN:709,HuffmanTree_makeTable
FNDA:0,HuffmanTree_makeTable
FN:838,HuffmanTree_makeFromLengths2
FNDA:0,HuffmanTree_makeFromLengths2
FN:879,HuffmanTree_makeFromLengths
FNDA:0,HuffmanTree_makeFromLengths
FN:918,bpmnode_create
FNDA:0,bpmnode_create
FN:947,bpmnode_sort
FNDA:0,bpmnode_sort
FN:972,boundaryPM
FNDA:0,boundaryPM
FN:998,lodepng_huffman_code_lengths
FNDA:0,lodepng_huffman_code_lengths
FN:1081,HuffmanTree_makeFromFrequencies
FNDA:0,HuffmanTree_makeFromFrequencies
FN:1099,generateFixedLitLenTree
FNDA:0,generateFixedLitLenTree
FN:1118,generateFixedDistanceTree
FNDA:0,generateFixedDistanceTree
FN:1136,huffmanDecodeSymbol
FNDA:0,huffmanDecodeSymbol
FN:1161,getTreeInflateFixed
FNDA:0,getTreeInflateFixed
FN:1169,getTreeInflateDynamic
FNDA:0,getTreeInflateDynamic
FN:1324,inflateHuffmanBlock
FNDA:0,inflateHuffmanBlock
FN:1422,inflateNoCompression
FNDA:0,inflateNoCompression
FN:1456,lodepng_inflatev
FNDA:0,lodepng_inflatev
FN:1485,lodepng_inflate
FNDA:0,lodepng_inflate
FN:1494,inflatev
FNDA:0,inflatev
FN:1525,searchCodeIndex
FNDA:0,searchCodeIndex
FN:1542,addLengthDistance
FNDA:0,addLengthDistance
FN:1584,hash_init
FNDA:0,hash_init
FN:1612,hash_cleanup
FNDA:0,hash_cleanup
FN:1622,getHash
FNDA:0,getHash
FN:1641,countZeros
FNDA:0,countZeros
FN:1653,updateHashChain
FNDA:0,updateHashChain
FN:1672,encodeLZ77
FNDA:0,encodeLZ77
FN:1839,deflateNoCompression
FNDA:0,deflateNoCompression
FN:1876,writeLZ77data
FNDA:0,writeLZ77data
FN:1901,deflateDynamic
FNDA:0,deflateDynamic
FN:2132,deflateFixed
FNDA:0,deflateFixed
FN:2176,lodepng_deflatev
FNDA:0,lodepng_deflatev
FN:2222,lodepng_deflate
FNDA:0,lodepng_deflate
FN:2231,deflate
FNDA:0,deflate
FN:2249,update_adler32
FNDA:0,update_adler32
FN:2271,adler32
FNDA:0,adler32
FN:2281,lodepng_zlib_decompressv
FNDA:0,lodepng_zlib_decompressv
FN:2324,lodepng_zlib_decompress
FNDA:0,lodepng_zlib_decompress
FN:2335,zlib_decompress
FNDA:0,zlib_decompress
FN:2367,lodepng_zlib_compress
FNDA:0,lodepng_zlib_compress
FN:2407,zlib_compress
FNDA:0,zlib_compress
FN:2449,lodepng_compress_settings_init
FNDA:0,lodepng_compress_settings_init
FN:2471,lodepng_decompress_settings_init
FNDA:0,lodepng_decompress_settings_init
FN:2539,lodepng_crc32
FNDA:0,lodepng_crc32
FN:2558,readBitFromReversedStream
FNDA:0,readBitFromReversedStream
FN:2566,readBitsFromReversedStream
FNDA:0,readBitsFromReversedStream
FN:2577,setBitOfReversedStream
FNDA:0,setBitOfReversedStream
FN:2591,lodepng_chunk_length
FNDA:0,lodepng_chunk_length
FN:2595,lodepng_chunk_type
FNDA:0,lodepng_chunk_type
FN:2601,lodepng_chunk_type_equals
FNDA:0,lodepng_chunk_type_equals
FN:2607,lodepng_chunk_ancillary
FNDA:0,lodepng_chunk_ancillary
FN:2609,lodepng_chunk_private
FNDA:0,lodepng_chunk_private
FN:2611,lodepng_chunk_safetocopy
FNDA:0,lodepng_chunk_safetocopy
FN:2615,lodepng_chunk_data
FNDA:0,lodepng_chunk_data
FN:2617,lodepng_chunk_data_const
FNDA:0,lodepng_chunk_data_const
FN:2619,lodepng_chunk_check_crc
FNDA:0,lodepng_chunk_check_crc
FN:2630,lodepng_chunk_generate_crc
FNDA:0,lodepng_chunk_generate_crc
FN:2636,lodepng_chunk_next
FNDA:0,lodepng_chunk_next
FN:2652,lodepng_chunk_next_const
FNDA:0,lodepng_chunk_next_const
FN:2669,lodepng_chunk_find
FNDA:0,lodepng_chunk_find
FN:2677,lodepng_chunk_find_const
FNDA:0,lodepng_chunk_find_const
FN:2686,lodepng_chunk_append
FNDA:0,lodepng_chunk_append
FN:2709,lodepng_chunk_init
FNDA:0,lodepng_chunk_init
FN:2727,lodepng_chunk_createv
FNDA:0,lodepng_chunk_createv
FN:2741,lodepng_chunk_create
FNDA:0,lodepng_chunk_create
FN:2756,checkColorValidity
FNDA:0,checkColorValidity
FN:2781,getNumColorChannels
FNDA:0,getNumColorChannels
FN:2800,lodepng_get_bpp_lct
FNDA:0,lodepng_get_bpp_lct
FN:2807,lodepng_color_mode_init
FNDA:0,lodepng_color_mode_init
FN:2817,lodepng_color_mode_alloc_palette
FNDA:0,lodepng_color_mode_alloc_palette
FN:2835,lodepng_color_mode_cleanup
FNDA:0,lodepng_color_mode_cleanup
FN:2837,lodepng_color_mode_copy
FNDA:0,lodepng_color_mode_copy
FN:2848,lodepng_color_mode_make
FNDA:0,lodepng_color_mode_make
FN:2856,lodepng_color_mode_equal
FNDA:0,lodepng_color_mode_equal
FN:2873,lodepng_palette_clear
FNDA:0,lodepng_palette_clear
FN:2879,lodepng_palette_add
FNDA:0,lodepng_palette_add
FN:2897,lodepng_get_bpp
FNDA:0,lodepng_get_bpp
FN:2901,lodepng_get_channels
FNDA:0,lodepng_get_channels
FN:2905,lodepng_is_greyscale_type
FNDA:0,lodepng_is_greyscale_type
FN:2909,lodepng_is_alpha_type
FNDA:0,lodepng_is_alpha_type
FN:2913,lodepng_is_palette_type
FNDA:0,lodepng_is_palette_type
FN:2917,lodepng_has_palette_alpha
FNDA:0,lodepng_has_palette_alpha
FN:2925,lodepng_can_have_alpha
FNDA:0,lodepng_can_have_alpha
FN:2929,lodepng_get_raw_size_lct
FNDA:0,lodepng_get_raw_size_lct
FN:2936,lodepng_get_raw_size
FNDA:0,lodepng_get_raw_size
FN:2945,lodepng_get_raw_size_idat
FNDA:0,lodepng_get_raw_size_idat
FN:2962,lodepng_pixel_overflow
FNDA:0,lodepng_pixel_overflow
FN:2987,LodePNGUnknownChunks_init
FNDA:0,LodePNGUnknownChunks_init
FN:2993,LodePNGUnknownChunks_cleanup
FNDA:0,LodePNGUnknownChunks_cleanup
FN:2998,LodePNGUnknownChunks_copy
FNDA:0,LodePNGUnknownChunks_copy
FN:3018,LodePNGText_init
FNDA:0,LodePNGText_init
FN:3024,LodePNGText_cleanup
FNDA:0,LodePNGText_cleanup
FN:3034,LodePNGText_copy
FNDA:0,LodePNGText_copy
FN:3045,lodepng_add_text_sized
FNDA:0,lodepng_add_text_sized
FN:3066,lodepng_add_text
FNDA:0,lodepng_add_text
FN:3070,lodepng_clear_text
FNDA:0,lodepng_clear_text
FN:3074,LodePNGIText_init
FNDA:0,LodePNGIText_init
FN:3082,LodePNGIText_cleanup
FNDA:0,LodePNGIText_cleanup
FN:3096,LodePNGIText_copy
FNDA:0,LodePNGIText_copy
FN:3110,lodepng_clear_itext
FNDA:0,lodepng_clear_itext
FN:3112,lodepng_add_itext_sized
FNDA:0,lodepng_add_itext_sized
FN:3140,lodepng_add_itext
FNDA:0,lodepng_add_itext
FN:3146,lodepng_assign_icc
FNDA:0,lodepng_assign_icc
FN:3161,lodepng_set_icc
FNDA:0,lodepng_set_icc
FN:3169,lodepng_clear_icc
FNDA:0,lodepng_clear_icc
FN:3178,lodepng_info_init
FNDA:0,lodepng_info_init
FN:3204,lodepng_info_cleanup
FNDA:0,lodepng_info_cleanup
FN:3216,lodepng_info_copy
FNDA:0,lodepng_info_copy
FN:3240,addColorBits
FNDA:0,addColorBits
FN:3266,color_tree_init
FNDA:0,color_tree_init
FN:3271,color_tree_cleanup
FNDA:0,color_tree_cleanup
FN:3282,color_tree_get
FNDA:0,color_tree_get
FN:3297,color_tree_has
FNDA:0,color_tree_has
FN:3306,color_tree_add
FNDA:0,color_tree_add
FN:3324,rgba8ToPixel
FNDA:0,rgba8ToPixel
FN:3382,rgba16ToPixel
FNDA:0,rgba16ToPixel
FN:3414,getPixelColorRGBA8
FNDA:0,getPixelColorRGBA8
FN:3501,getPixelColorsRGBA8
FNDA:0,getPixelColorsRGBA8
FN:3604,getPixelColorsRGB8
FNDA:0,getPixelColorsRGB8
FN:3679,getPixelColorRGBA16
FNDA:0,getPixelColorRGBA16
FN:3709,lodepng_convert
FNDA:0,lodepng_convert
FN:3789,lodepng_convert_rgb
FNDA:0,lodepng_convert_rgb
FN:3840,lodepng_color_stats_init
FNDA:0,lodepng_color_stats_init
FN:3867,getValueRequiredBits
FNDA:0,getValueRequiredBits
FN:3875,lodepng_compute_color_stats
FNDA:0,lodepng_compute_color_stats
FN:4070,lodepng_color_stats_add
FNDA:0,lodepng_color_stats_add
FN:4100,auto_choose_color
FNDA:0,auto_choose_color
FN:4175,paethPredictor
FNDA:0,paethPredictor
FN:4209,Adam7_getpassvalues
FNDA:0,Adam7_getpassvalues
FN:4244,lodepng_inspect
FNDA:0,lodepng_inspect
FN:4311,unfilterScanline
FNDA:0,unfilterScanline
FN:4421,unfilter
FNDA:0,unfilter
FN:4465,Adam7_deinterlace
FNDA:0,Adam7_deinterlace
FN:4508,removePaddingBits
FNDA:0,removePaddingBits
FN:4535,postProcessScanlines
FNDA:0,postProcessScanlines
FN:4583,readChunk_PLTE
FNDA:0,readChunk_PLTE
FN:4605,readChunk_tRNS
FNDA:0,readChunk_tRNS
FN:4635,readChunk_bKGD
FNDA:0,readChunk_bKGD
FN:4667,readChunk_tEXt
FNDA:0,readChunk_tEXt
FN:4707,readChunk_zTXt
FNDA:0,readChunk_zTXt
FN:4755,readChunk_iTXt
FNDA:0,readChunk_iTXt
FN:4846,readChunk_tIME
FNDA:0,readChunk_tIME
FN:4860,readChunk_pHYs
FNDA:0,readChunk_pHYs
FN:4871,readChunk_gAMA
FNDA:0,readChunk_gAMA
FN:4880,readChunk_cHRM
FNDA:0,readChunk_cHRM
FN:4896,readChunk_sRGB
FNDA:0,readChunk_sRGB
FN:4905,readChunk_iCCP
FNDA:0,readChunk_iCCP
FN:4946,lodepng_inspect_chunk
FNDA:0,lodepng_inspect_chunk
FN:4999,decodeGeneric
FNDA:0,decodeGeneric
FN:5202,lodepng_decode
FNDA:0,lodepng_decode
FN:5239,lodepng_decode_memory
FNDA:0,lodepng_decode_memory
FN:5257,lodepng_decode32
FNDA:0,lodepng_decode32
FN:5262,lodepng_decode24
FNDA:0,lodepng_decode24
FN:5268,lodepng_decode_file
FNDA:0,lodepng_decode_file
FN:5282,lodepng_decode32_file
FNDA:0,lodepng_decode32_file
FN:5287,lodepng_decode24_file
FNDA:0,lodepng_decode24_file
FN:5293,lodepng_decoder_settings_init
FNDA:0,lodepng_decoder_settings_init
FN:5312,lodepng_state_init
FNDA:0,lodepng_state_init
FN:5324,lodepng_state_cleanup
FNDA:0,lodepng_state_cleanup
FN:5329,lodepng_state_copy
FNDA:0,lodepng_state_copy
FN:5348,writeSignature
FNDA:0,writeSignature
FN:5357,addChunk_IHDR
FNDA:0,addChunk_IHDR
FN:5376,addChunk_PLTE
FNDA:0,addChunk_PLTE
FN:5393,addChunk_tRNS
FNDA:0,addChunk_tRNS
FN:5430,addChunk_IDAT
FNDA:0,addChunk_IDAT
FN:5444,addChunk_IEND
FNDA:0,addChunk_IEND
FN:5448,addChunk_tEXt
FNDA:0,addChunk_tEXt
FN:5461,addChunk_zTXt
FNDA:0,addChunk_zTXt
FN:5489,addChunk_iTXt
FNDA:0,addChunk_iTXt
FN:5536,addChunk_bKGD
FNDA:0,addChunk_bKGD
FN:5558,addChunk_tIME
FNDA:0,addChunk_tIME
FN:5572,addChunk_pHYs
FNDA:0,addChunk_pHYs
FN:5582,addChunk_gAMA
FNDA:0,addChunk_gAMA
FN:5590,addChunk_cHRM
FNDA:0,addChunk_cHRM
FN:5605,addChunk_sRGB
FNDA:0,addChunk_sRGB
FN:5610,addChunk_iCCP
FNDA:0,addChunk_iCCP
FN:5639,filterScanline
FNDA:0,filterScanline
FN:5690,ilog2
FNDA:0,ilog2
FN:5715,ilog2i
FNDA:0,ilog2i
FN:5724,filter
FNDA:0,filter
FN:5935,addPaddingBits
FNDA:0,addPaddingBits
FN:5965,Adam7_interlace
FNDA:0,Adam7_interlace
FN:6010,preProcessScanlines
FNDA:0,preProcessScanlines
FN:6089,addUnknownChunks
FNDA:0,addUnknownChunks
FN:6099,isGrayICCProfile
FNDA:0,isGrayICCProfile
FN:6113,isRGBICCProfile
FNDA:0,isRGBICCProfile
FN:6120,lodepng_encode
FNDA:0,lodepng_encode
FN:6393,lodepng_encode_memory
FNDA:0,lodepng_encode_memory
FN:6409,lodepng_encode32
FNDA:0,lodepng_encode32
FN:6414,lodepng_encode24
FNDA:0,lodepng_encode24
FN:6420,lodepng_encode_file
FNDA:0,lodepng_encode_file
FN:6430,lodepng_encode32_file
FNDA:0,lodepng_encode32_file
FN:6435,lodepng_encode24_file
FNDA:0,lodepng_encode24_file
FN:6441,lodepng_encoder_settings_init
FNDA:0,lodepng_encoder_settings_init
FN:6462,lodepng_error_text
FNDA:0,lodepng_error_text
DA:79,0
DA:83,0
DA:87,0
DA:91,0
DA:94,0
DA:124,0
DA:127,0
DA:128,0
DA:130,0
DA:132,0
DA:133,0
DA:136,0
DA:137,0
DA:140,0
DA:141,0
DA:151,0
DA:152,0
DA:153,0
DA:160,0
DA:161,0
DA:162,0
DA:167,0
DA:169,0
DA:170,0
DA:171,0
DA:231,0
DA:232,0
DA:233,0
DA:234,0
DA:235,0
DA:238,0
DA:239,0
DA:240,0
DA:241,0
DA:242,0
DA:243,0
DA:244,0
DA:245,0
DA:246,0
DA:247,0
DA:248,0
DA:249,0
DA:250,0
DA:251,0
DA:253,0
DA:254,0
DA:255,0
DA:256,0
DA:259,0
DA:260,0
DA:261,0
DA:262,0
DA:263,0
DA:277,0
DA:278,0
DA:279,0
DA:280,0
DA:281,0
DA:282,0
DA:283,0
DA:284,0
DA:285,0
DA:286,0
DA:287,0
DA:288,0
DA:289,0
DA:291,0
DA:293,0
DA:294,0
DA:295,0
DA:304,0
DA:305,0
DA:306,0
DA:307,0
DA:310,0
DA:311,0
DA:312,0
DA:313,0
DA:314,0
DA:315,0
DA:316,0
DA:320,0
DA:327,0
DA:328,0
DA:329,0
DA:335,0
DA:336,0
DA:337,0
DA:338,0
DA:339,0
DA:340,0
DA:350,0
DA:353,0
DA:354,0
DA:356,0
DA:357,0
DA:358,0
DA:361,0
DA:363,0
DA:365,0
DA:366,0
DA:367,0
DA:370,0
DA:373,0
DA:374,0
DA:376,0
DA:377,0
DA:379,0
DA:380,0
DA:381,0
DA:383,0
DA:384,0
DA:385,0
DA:386,0
DA:388,0
DA:389,0
DA:391,0
DA:392,0
DA:395,0
DA:397,0
DA:398,0
DA:399,0
DA:400,0
DA:401,0
DA:402,0
DA:420,0
DA:421,0
DA:422,0
DA:423,0
DA:438,0
DA:439,0
DA:440,0
DA:441,0
DA:444,0
DA:445,0
DA:446,0
DA:448,0
DA:451,0
DA:453,0
DA:455,0
DA:456,0
DA:457,0
DA:471,0
DA:474,0
DA:475,0
DA:477,0
DA:480,0
DA:481,0
DA:482,0
DA:483,0
DA:484,0
DA:501,0
DA:502,0
DA:503,0
DA:504,0
DA:505,0
DA:506,0
DA:507,0
DA:508,0
DA:510,0
DA:511,0
DA:512,0
DA:513,0
DA:515,0
DA:518,0
DA:519,0
DA:520,0
DA:521,0
DA:522,0
DA:523,0
DA:524,0
DA:525,0
DA:526,0
DA:528,0
DA:529,0
DA:530,0
DA:531,0
DA:532,0
DA:534,0
DA:537,0
DA:538,0
DA:539,0
DA:540,0
DA:541,0
DA:542,0
DA:543,0
DA:544,0
DA:545,0
DA:547,0
DA:548,0
DA:549,0
DA:550,0
DA:551,0
DA:552,0
DA:554,0
DA:557,0
DA:558,0
DA:559,0
DA:560,0
DA:561,0
DA:562,0
DA:563,0
DA:564,0
DA:565,0
DA:566,0
DA:568,0
DA:569,0
DA:570,0
DA:571,0
DA:572,0
DA:573,0
DA:574,0
DA:576,0
DA:580,0
DA:582,0
DA:586,0
DA:587,0
DA:588,0
DA:589,0
DA:592,0
DA:593,0
DA:594,0
DA:595,0
DA:599,0
DA:603,0
DA:604,0
DA:605,0
DA:606,0
DA:608,0
DA:609,0
DA:610,0
DA:611,0
DA:612,0
DA:613,0
DA:615,0
DA:616,0
DA:617,0
DA:618,0
DA:619,0
DA:620,0
DA:623,0
DA:625,0
DA:626,0
DA:627,0
DA:685,0
DA:686,0
DA:687,0
DA:688,0
DA:689,0
DA:690,0
DA:692,0
DA:693,0
DA:694,0
DA:695,0
DA:696,0
DA:697,0
DA:709,0
DA:713,0
DA:714,0
DA:717,0
DA:718,0
DA:719,0
DA:720,0
DA:722,0
DA:723,0
DA:726,0
DA:727,0
DA:728,0
DA:731,0
DA:732,0
DA:733,0
DA:734,0
DA:735,0
DA:736,0
DA:737,0
DA:738,0
DA:739,0
DA:741,0
DA:744,0
DA:747,0
DA:748,0
DA:749,0
DA:750,0
DA:751,0
DA:752,0
DA:753,0
DA:754,0
DA:755,0
DA:758,0
DA:759,0
DA:760,0
DA:761,0
DA:764,0
DA:765,0
DA:766,0
DA:768,0
DA:770,0
DA:772,0
DA:775,0
DA:776,0
DA:777,0
DA:778,0
DA:779,0
DA:780,0
DA:781,0
DA:785,0
DA:786,0
DA:788,0
DA:789,0
DA:790,0
DA:791,0
DA:792,0
DA:794,0
DA:795,0
DA:796,0
DA:797,0
DA:798,0
DA:799,0
DA:800,0
DA:802,0
DA:804,0
DA:811,0
DA:812,0
DA:816,0
DA:817,0
DA:818,0
DA:819,0
DA:820,0
DA:825,0
DA:826,0
DA:827,0
DA:830,0
DA:831,0
DA:838,0
DA:841,0
DA:844,0
DA:845,0
DA:846,0
DA:847,0
DA:849,0
DA:850,0
DA:852,0
DA:854,0
DA:855,0
DA:856,0
DA:858,0
DA:859,0
DA:860,0
DA:862,0
DA:863,0
DA:864,0
DA:865,0
DA:867,0
DA:868,0
DA:870,0
DA:871,0
DA:879,0
DA:882,0
DA:883,0
DA:884,0
DA:885,0
DA:886,0
DA:887,0
DA:888,0
DA:918,0
DA:923,0
DA:925,0
DA:926,0
DA:928,0
DA:929,0
DA:930,0
DA:932,0
DA:933,0
DA:934,0
DA:935,0
DA:936,0
DA:937,0
DA:939,0
DA:940,0
DA:941,0
DA:942,0
DA:943,0
DA:947,0
DA:948,0
DA:949,0
DA:950,0
DA:951,0
DA:952,0
DA:954,0
DA:955,0
DA:956,0
DA:957,0
DA:958,0
DA:959,0
DA:960,0
DA:962,0
DA:963,0
DA:964,0
DA:965,0
DA:966,0
DA:967,0
DA:968,0
DA:969,0
DA:972,0
DA:973,0
DA:975,0
DA:976,0
DA:977,0
DA:978,0
DA:979,0
DA:981,0
DA:982,0
DA:983,0
DA:984,0
DA:985,0
DA:986,0
DA:988,0
DA:991,0
DA:992,0
DA:993,0
DA:994,0
DA:996,0
DA:998,0
DA:1000,0
DA:1002,0
DA:1005,0
DA:1006,0
DA:1008,0
DA:1009,0
DA:1011,0
DA:1012,0
DA:1013,0
DA:1014,0
DA:1015,0
DA:1016,0
DA:1017,0
DA:1019,0
DA:1026,0
DA:1027,0
DA:1029,0
DA:1030,0
DA:1031,0
DA:1032,0
DA:1036,0
DA:1038,0
DA:1039,0
DA:1040,0
DA:1041,0
DA:1042,0
DA:1043,0
DA:1044,0
DA:1045,0
DA:1046,0
DA:1047,0
DA:1049,0
DA:1050,0
DA:1052,0
DA:1053,0
DA:1055,0
DA:1056,0
DA:1057,0
DA:1058,0
DA:1062,0
DA:1063,0
DA:1065,0
DA:1066,0
DA:1067,0
DA:1068,0
DA:1070,0
DA:1071,0
DA:1072,0
DA:1073,0
DA:1076,0
DA:1077,0
DA:1078,0
DA:1081,0
DA:1084,0
DA:1085,0
DA:1086,0
DA:1087,0
DA:1088,0
DA:1089,0
DA:1091,0
DA:1092,0
DA:1093,0
DA:1094,0
DA:1099,0
DA:1100,0
DA:1101,0
DA:1102,0
DA:1105,0
DA:1106,0
DA:1107,0
DA:1108,0
DA:1110,0
DA:1112,0
DA:1113,0
DA:1114,0
DA:1118,0
DA:1119,0
DA:1120,0
DA:1121,0
DA:1124,0
DA:1125,0
DA:1127,0
DA:1128,0
DA:1129,0
DA:1136,0
DA:1137,0
DA:1138,0
DA:1139,0
DA:1140,0
DA:1141,0
DA:1142,0
DA:1145,0
DA:1146,0
DA:1147,0
DA:1148,0
DA:1150,0
DA:1161,0
DA:1162,0
DA:1163,0
DA:1164,0
DA:1165,0
DA:1169,0
DA:1173,0
DA:1178,0
DA:1179,0
DA:1182,0
DA:1186,0
DA:1187,0
DA:1191,0
DA:1193,0
DA:1195,0
DA:1197,0
DA:1198,0
DA:1200,0
DA:1202,0
DA:1204,0
DA:1205,0
DA:1207,0
DA:1208,0
DA:1209,0
DA:1210,0
DA:1211,0
DA:1212,0
DA:1213,0
DA:1215,0
DA:1216,0
DA:1219,0
DA:1220,0
DA:1221,0
DA:1222,0
DA:1223,0
DA:1227,0
DA:1228,0
DA:1230,0
DA:1231,0
DA:1232,0
DA:1233,0
DA:1234,0
DA:1236,0
DA:1237,0
DA:1238,0
DA:1239,0
DA:1242,0
DA:1244,0
DA:1246,0
DA:1247,0
DA:1249,0
DA:1251,0
DA:1252,0
DA:1253,0
DA:1254,0
DA:1255,0
DA:1257,0
DA:1258,0
DA:1259,0
DA:1260,0
DA:1261,0
DA:1262,0
DA:1265,0
DA:1266,0
DA:1267,0
DA:1269,0
DA:1270,0
DA:1272,0
DA:1273,0
DA:1274,0
DA:1275,0
DA:1276,0
DA:1277,0
DA:1280,0
DA:1281,0
DA:1282,0
DA:1284,0
DA:1285,0
DA:1287,0
DA:1288,0
DA:1289,0
DA:1290,0
DA:1291,0
DA:1294,0
DA:1298,0
DA:1301,0
DA:1303,0
DA:1304,0
DA:1308,0
DA:1309,0
DA:1310,0
DA:1312,0
DA:1315,0
DA:1316,0
DA:1317,0
DA:1318,0
DA:1320,0
DA:1321,0
DA:1324,0
DA:1326,0
DA:1330,0
DA:1331,0
DA:1333,0
DA:1334,0
DA:1336,0
DA:1338,0
DA:1341,0
DA:1343,0
DA:1344,0
DA:1345,0
DA:1346,0
DA:1347,0
DA:1348,0
DA:1354,0
DA:1357,0
DA:1358,0
DA:1360,0
DA:1361,0
DA:1364,0
DA:1366,0
DA:1367,0
DA:1368,0
DA:1369,0
DA:1371,0
DA:1374,0
DA:1377,0
DA:1378,0
DA:1380,0
DA:1381,0
DA:1384,0
DA:1385,0
DA:1386,0
DA:1388,0
DA:1389,0
DA:1391,0
DA:1392,0
DA:1393,0
DA:1394,0
DA:1395,0
DA:1396,0
DA:1397,0
DA:1399,0
DA:1400,0
DA:1402,0
DA:1405,0
DA:1409,0
DA:1411,0
DA:1412,0
DA:1416,0
DA:1417,0
DA:1419,0
DA:1422,0
DA:1425,0
DA:1426,0
DA:1429,0
DA:1432,0
DA:1433,0
DA:1434,0
DA:1435,0
DA:1436,0
DA:1439,0
DA:1440,0
DA:1443,0
DA:1446,0
DA:1448,0
DA:1449,0
DA:1451,0
DA:1453,0
DA:1454,0
DA:1456,0
DA:1458,0
DA:1460,0
DA:1462,0
DA:1464,0
DA:1466,0
DA:1467,0
DA:1468,0
DA:1470,0
DA:1471,0
DA:1472,0
DA:1473,0
DA:1475,0
DA:1476,0
DA:1477,0
DA:1478,0
DA:1479,0
DA:1482,0
DA:1483,0
DA:1485,0
DA:1487,0
DA:1488,0
DA:1489,0
DA:1490,0
DA:1491,0
DA:1494,0
DA:1496,0
DA:1497,0
DA:1498,0
DA:1499,0
DA:1502,0
DA:1505,0
DA:1506,0
DA:1507,0
DA:1509,0
DA:1511,0
DA:1525,0
DA:1528,0
DA:1529,0
DA:1531,0
DA:1532,0
DA:1533,0
DA:1534,0
DA:1536,0
DA:1538,0
DA:1539,0
DA:1542,0
DA:1549,0
DA:1550,0
DA:1551,0
DA:1552,0
DA:1554,0
DA:1556,0
DA:1557,0
DA:1558,0
DA:1559,0
DA:1560,0
DA:1561,0
DA:1562,0
DA:1563,0
DA:1584,0
DA:1586,0
DA:1587,0
DA:1588,0
DA:1590,0
DA:1591,0
DA:1592,0
DA:1594,0
DA:1595,0
DA:1596,0
DA:1600,0
DA:1601,0
DA:1602,0
DA:1603,0
DA:1605,0
DA:1606,0
DA:1607,0
DA:1609,0
DA:1610,0
DA:1612,0
DA:1613,0
DA:1614,0
DA:1615,0
DA:1617,0
DA:1618,0
DA:1619,0
DA:1620,0
DA:1622,0
DA:1623,0
DA:1624,0
DA:1629,0
DA:1630,0
DA:1631,0
DA:1632,0
DA:1634,0
DA:1635,0
DA:1636,0
DA:1638,0
DA:1639,0
DA:1641,0
DA:1642,0
DA:1643,0
DA:1644,0
DA:1645,0
DA:1646,0
DA:1649,0
DA:1653,0
DA:1654,0
DA:1655,0
DA:1656,0
DA:1658,0
DA:1659,0
DA:1660,0
DA:1661,0
DA:1672,0
DA:1676,0
DA:1679,0
DA:1680,0
DA:1682,0
DA:1684,0
DA:1688,0
DA:1689,0
DA:1696,0
DA:1697,0
DA:1698,0
DA:1700,0
DA:1702,0
DA:1703,0
DA:1704,0
DA:1706,0
DA:1708,0
DA:1709,0
DA:1710,0
DA:1711,0
DA:1712,0
DA:1713,0
DA:1714,0
DA:1717,0
DA:1720,0
DA:1721,0
DA:1723,0
DA:1725,0
DA:1726,0
DA:1727,0
DA:1730,0
DA:1731,0
DA:1732,0
DA:1733,0
DA:1734,0
DA:1736,0
DA:1737,0
DA:1738,0
DA:1739,0
DA:1741,0
DA:1742,0
DA:1745,0
DA:1746,0
DA:1747,0
DA:1748,0
DA:1749,0
DA:1750,0
DA:1752,0
DA:1753,0
DA:1754,0
DA:1755,0
DA:1757,0
DA:1759,0
DA:1760,0
DA:1761,0
DA:1764,0
DA:1765,0
DA:1766,0
DA:1768,0
DA:1770,0
DA:1771,0
DA:1772,0
DA:1773,0
DA:1774,0
DA:1777,0
DA:1781,0
DA:1782,0
DA:1783,0
DA:1784,0
DA:1785,0
DA:1786,0
DA:1787,0
DA:1789,0
DA:1790,0
DA:1791,0
DA:1792,0
DA:1794,0
DA:1795,0
DA:1796,0
DA:1797,0
DA:1798,0
DA:1800,0
DA:1801,0
DA:1803,0
DA:1804,0
DA:1805,0
DA:1806,0
DA:1809,0
DA:1810,0
DA:1811,0
DA:1814,0
DA:1815,0
DA:1816,0
DA:1817,0
DA:1818,0
DA:1819,0
DA:1820,0
DA:1821,0
DA:1822,0
DA:1823,0
DA:1824,0
DA:1825,0
DA:1826,0
DA:1827,0
DA:1829,0
DA:1830,0
DA:1832,0
DA:1834,0
DA:1835,0
DA:1839,0
DA:1843,0
DA:1844,0
DA:1845,0
DA:1848,0
DA:1850,0
DA:1851,0
DA:1853,0
DA:1854,0
DA:1855,0
DA:1857,0
DA:1859,0
DA:1860,0
DA:1861,0
DA:1862,0
DA:1863,0
DA:1864,0
DA:1865,0
DA:1866,0
DA:1867,0
DA:1869,0
DA:1870,0
DA:1876,0
DA:1878,0
DA:1879,0
DA:1880,0
DA:1881,0
DA:1882,0
DA:1883,0
DA:1884,0
DA:1885,0
DA:1887,0
DA:1889,0
DA:1890,0
DA:1891,0
DA:1893,0
DA:1894,0
DA:1895,0
DA:1896,0
DA:1897,0
DA:1898,0
DA:1901,0
DA:1904,0
DA:1923,0
DA:1924,0
DA:1925,0
DA:1926,0
DA:1928,0
DA:1930,0
DA:1940,0
DA:1945,0
DA:1946,0
DA:1947,0
DA:1948,0
DA:1950,0
DA:1951,0
DA:1952,0
DA:1954,0
DA:1958,0
DA:1959,0
DA:1960,0
DA:1961,0
DA:1963,0
DA:1964,0
DA:1965,0
DA:1966,0
DA:1967,0
DA:1968,0
DA:1969,0
DA:1970,0
DA:1971,0
DA:1975,0
DA:1976,0
DA:1977,0
DA:1978,0
DA:1979,0
DA:1980,0
DA:1981,0
DA:1982,0
DA:1983,0
DA:1984,0
DA:1987,0
DA:1988,0
DA:1991,0
DA:1992,0
DA:1994,0
DA:1995,0
DA:1997,0
DA:1998,0
DA:2000,0
DA:2001,0
DA:2002,0
DA:2004,0
DA:2005,0
DA:2009,0
DA:2010,0
DA:2011,0
DA:2013,0
DA:2014,0
DA:2015,0
DA:2016,0
DA:2017,0
DA:2018,0
DA:2019,0
DA:2020,0
DA:2021,0
DA:2023,0
DA:2024,0
DA:2026,0
DA:2027,0
DA:2028,0
DA:2029,0
DA:2030,0
DA:2031,0
DA:2032,0
DA:2033,0
DA:2034,0
DA:2035,0
DA:2036,0
DA:2037,0
DA:2038,0
DA:2039,0
DA:2041,0
DA:2044,0
DA:2045,0
DA:2048,0
DA:2049,0
DA:2051,0
DA:2053,0
DA:2056,0
DA:2058,0
DA:2059,0
DA:2077,0
DA:2078,0
DA:2079,0
DA:2084,0
DA:2085,0
DA:2086,0
DA:2087,0
DA:2088,0
DA:2089,0
DA:2092,0
DA:2095,0
DA:2096,0
DA:2097,0
DA:2099,0
DA:2100,0
DA:2101,0
DA:2102,0
DA:2103,0
DA:2104,0
DA:2105,0
DA:2108,0
DA:2110,0
DA:2113,0
DA:2115,0
DA:2119,0
DA:2120,0
DA:2121,0
DA:2122,0
DA:2123,0
DA:2124,0
DA:2125,0
DA:2126,0
DA:2127,0
DA:2129,0
DA:2132,0
DA:2138,0
DA:2139,0
DA:2142,0
DA:2143,0
DA:2145,0
DA:2146,0
DA:2148,0
DA:2149,0
DA:2150,0
DA:2151,0
DA:2153,0
DA:2155,0
DA:2156,0
DA:2157,0
DA:2158,0
DA:2159,0
DA:2160,0
DA:2161,0
DA:2162,0
DA:2163,0
DA:2166,0
DA:2167,0
DA:2170,0
DA:2171,0
DA:2173,0
DA:2176,0
DA:2178,0
DA:2183,0
DA:2185,0
DA:2186,0
DA:2187,0
DA:2188,0
DA:2189,0
DA:2190,0
DA:2193,0
DA:2194,0
DA:2195,0
DA:2198,0
DA:2199,0
DA:2201,0
DA:2203,0
DA:2204,0
DA:2205,0
DA:2206,0
DA:2207,0
DA:2208,0
DA:2210,0
DA:2211,0
DA:2212,0
DA:2213,0
DA:2214,0
DA:2215,0
DA:2217,0
DA:2219,0
DA:2220,0
DA:2222,0
DA:2224,0
DA:2225,0
DA:2226,0
DA:2227,0
DA:2228,0
DA:2231,0
DA:2233,0
DA:2234,0
DA:2237,0
DA:2239,0
DA:2241,0
DA:2249,0
DA:2250,0
DA:2251,0
DA:2253,0
DA:2257,0
DA:2258,0
DA:2259,0
DA:2260,0
DA:2261,0
DA:2262,0
DA:2263,0
DA:2264,0
DA:2267,0
DA:2271,0
DA:2272,0
DA:2281,0
DA:2283,0
DA:2286,0
DA:2288,0
DA:2291,0
DA:2294,0
DA:2295,0
DA:2297,0
DA:2300,0
DA:2303,0
DA:2305,0
DA:2308,0
DA:2311,0
DA:2312,0
DA:2314,0
DA:2315,0
DA:2316,0
DA:2317,0
DA:2318,0
DA:2319,0
DA:2321,0
DA:2322,0
DA:2324,0
DA:2326,0
DA:2327,0
DA:2328,0
DA:2329,0
DA:2330,0
DA:2335,0
DA:2339,0
DA:2340,0
DA:2341,0
DA:2344,0
DA:2347,0
DA:2348,0
DA:2349,0
DA:2350,0
DA:2351,0
DA:2353,0
DA:2354,0
DA:2355,0
DA:2356,0
DA:2357,0
DA:2358,0
DA:2360,0
DA:2367,0
DA:2371,0
DA:2372,0
DA:2374,0
DA:2376,0
DA:2377,0
DA:2378,0
DA:2379,0
DA:2380,0
DA:2381,0
DA:2382,0
DA:2384,0
DA:2385,0
DA:2388,0
DA:2390,0
DA:2391,0
DA:2392,0
DA:2393,0
DA:2394,0
DA:2396,0
DA:2397,0
DA:2398,0
DA:2399,0
DA:2400,0
DA:2402,0
DA:2403,0
DA:2407,0
DA:2409,0
DA:2410,0
DA:2413,0
DA:2415,0
DA:2417,0
DA:2449,0
DA:2452,0
DA:2453,0
DA:2454,0
DA:2455,0
DA:2456,0
DA:2457,0
DA:2459,0
DA:2460,0
DA:2461,0
DA:2462,0
DA:2471,0
DA:2472,0
DA:2473,0
DA:2474,0
DA:2476,0
DA:2477,0
DA:2478,0
DA:2479,0
DA:2539,0
DA:2540,0
DA:2542,0
DA:2543,0
DA:2544,0
DA:2545,0
DA:2558,0
DA:2559,0
DA:2560,0
DA:2561,0
DA:2562,0
DA:2566,0
DA:2568,0
DA:2570,0
DA:2571,0
DA:2572,0
DA:2573,0
DA:2574,0
DA:2577,0
DA:2580,0
DA:2581,0
DA:2583,0
DA:2584,0
DA:2585,0
DA:2591,0
DA:2592,0
DA:2595,0
DA:2597,0
DA:2598,0
DA:2599,0
DA:2601,0
DA:2602,0
DA:2603,0
DA:2604,0
DA:2605,0
DA:2607,0
DA:2609,0
DA:2611,0
DA:2612,0
DA:2615,0
DA:2617,0
DA:2619,0
DA:2620,0
DA:2621,0
DA:2623,0
DA:2624,0
DA:2625,0
DA:2627,0
DA:2628,0
DA:2630,0
DA:2631,0
DA:2632,0
DA:2633,0
DA:2634,0
DA:2636,0
DA:2637,0
DA:2638,0
DA:2639,0
DA:2641,0
DA:2645,0
DA:2646,0
DA:2647,0
DA:2648,0
DA:2650,0
DA:2652,0
DA:2654,0
DA:2655,0
DA:2656,0
DA:2658,0
DA:2662,0
DA:2663,0
DA:2664,0
DA:2665,0
DA:2667,0
DA:2669,0
DA:2670,0
DA:2671,0
DA:2672,0
DA:2673,0
DA:2675,0
DA:2677,0
DA:2679,0
DA:2680,0
DA:2681,0
DA:2682,0
DA:2684,0
DA:2686,0
DA:2691,0
DA:2692,0
DA:2694,0
DA:2695,0
DA:2696,0
DA:2697,0
DA:2698,0
DA:2700,0
DA:2702,0
DA:2703,0
DA:2709,0
DA:2711,0
DA:2712,0
DA:2713,0
DA:2714,0
DA:2715,0
DA:2718,0
DA:2721,0
DA:2723,0
DA:2724,0
DA:2727,0
DA:2730,0
DA:2733,0
DA:2736,0
DA:2738,0
DA:2739,0
DA:2741,0
DA:2743,0
DA:2744,0
DA:2745,0
DA:2746,0
DA:2747,0
DA:2756,0
DA:2757,0
DA:2759,0
DA:2760,0
DA:2762,0
DA:2763,0
DA:2765,0
DA:2766,0
DA:2768,0
DA:2769,0
DA:2771,0
DA:2772,0
DA:2774,0
DA:2776,0
DA:2778,0
DA:2779,0
DA:2781,0
DA:2782,0
DA:2784,0
DA:2786,0
DA:2788,0
DA:2790,0
DA:2792,0
DA:2794,0
DA:2796,0
DA:2798,0
DA:2800,0
DA:2802,0
DA:2807,0
DA:2808,0
DA:2809,0
DA:2810,0
DA:2811,0
DA:2812,0
DA:2813,0
DA:2814,0
DA:2817,0
DA:2822,0
DA:2823,0
DA:2824,0
DA:2828,0
DA:2829,0
DA:2830,0
DA:2831,0
DA:2832,0
DA:2833,0
DA:2835,0
DA:2837,0
DA:2838,0
DA:2839,0
DA:2840,0
DA:2841,0
DA:2842,0
DA:2843,0
DA:2844,0
DA:2845,0
DA:2846,0
DA:2848,0
DA:2850,0
DA:2851,0
DA:2852,0
DA:2853,0
DA:2856,0
DA:2858,0
DA:2859,0
DA:2860,0
DA:2861,0
DA:2862,0
DA:2863,0
DA:2864,0
DA:2865,0
DA:2866,0
DA:2867,0
DA:2868,0
DA:2869,0
DA:2870,0
DA:2871,0
DA:2873,0
DA:2874,0
DA:2875,0
DA:2876,0
DA:2877,0
DA:2879,0
DA:2881,0
DA:2882,0
DA:2883,0
DA:2884,0
DA:2885,0
DA:2886,0
DA:2888,0
DA:2889,0
DA:2890,0
DA:2891,0
DA:2892,0
DA:2893,0
DA:2894,0
DA:2897,0
DA:2898,0
DA:2901,0
DA:2902,0
DA:2905,0
DA:2906,0
DA:2909,0
DA:2910,0
DA:2913,0
DA:2914,0
DA:2917,0
DA:2919,0
DA:2920,0
DA:2921,0
DA:2922,0
DA:2923,0
DA:2925,0
DA:2926,0
DA:2929,0
DA:2931,0
DA:2932,0
DA:2933,0
DA:2936,0
DA:2937,0
DA:2945,0
DA:2949,0
DA:2950,0
DA:2962,0
DA:2964,0
DA:2968,0
DA:2969,0
DA:2970,0
DA:2973,0
DA:2974,0
DA:2976,0
DA:2977,0
DA:2978,0
DA:2980,0
DA:2981,0
DA:2987,0
DA:2989,0
DA:2990,0
DA:2991,0
DA:2993,0
DA:2995,0
DA:2996,0
DA:2998,0
DA:3001,0
DA:3003,0
DA:3005,0
DA:3006,0
DA:3007,0
DA:3008,0
DA:3009,0
DA:3010,0
DA:3011,0
DA:3013,0
DA:3014,0
DA:3018,0
DA:3019,0
DA:3020,0
DA:3021,0
DA:3022,0
DA:3024,0
DA:3026,0
DA:3027,0
DA:3028,0
DA:3029,0
DA:3030,0
DA:3031,0
DA:3032,0
DA:3034,0
DA:3035,0
DA:3036,0
DA:3037,0
DA:3038,0
DA:3039,0
DA:3040,0
DA:3041,0
DA:3042,0
DA:3043,0
DA:3045,0
DA:3047,0
DA:3048,0
DA:3049,0
DA:3050,0
DA:3052,0
DA:3053,0
DA:3055,0
DA:3057,0
DA:3058,0
DA:3059,0
DA:3060,0
DA:3061,0
DA:3063,0
DA:3064,0
DA:3066,0
DA:3067,0
DA:3070,0
DA:3074,0
DA:3075,0
DA:3076,0
DA:3077,0
DA:3078,0
DA:3079,0
DA:3080,0
DA:3082,0
DA:3084,0
DA:3085,0
DA:3086,0
DA:3087,0
DA:3088,0
DA:3089,0
DA:3090,0
DA:3091,0
DA:3092,0
DA:3093,0
DA:3094,0
DA:3096,0
DA:3097,0
DA:3098,0
DA:3099,0
DA:3100,0
DA:3101,0
DA:3102,0
DA:3103,0
DA:3104,0
DA:3106,0
DA:3107,0
DA:3108,0
DA:3110,0
DA:3112,0
DA:3114,0
DA:3115,0
DA:3116,0
DA:3117,0
DA:3118,0
DA:3119,0
DA:3120,0
DA:3121,0
DA:3123,0
DA:3124,0
DA:3125,0
DA:3126,0
DA:3128,0
DA:3130,0
DA:3132,0
DA:3133,0
DA:3134,0
DA:3135,0
DA:3137,0
DA:3138,0
DA:3140,0
DA:3142,0
DA:3146,0
DA:3148,0
DA:3150,0
DA:3151,0
DA:3153,0
DA:3155,0
DA:3156,0
DA:3158,0
DA:3159,0
DA:3161,0
DA:3163,0
DA:3164,0
DA:3166,0
DA:3169,0
DA:3170,0
DA:3171,0
DA:3172,0
DA:3173,0
DA:3174,0
DA:3175,0
DA:3178,0
DA:3179,0
DA:3180,0
DA:3181,0
DA:3182,0
DA:3184,0
DA:3185,0
DA:3187,0
DA:3188,0
DA:3190,0
DA:3191,0
DA:3193,0
DA:3194,0
DA:3195,0
DA:3196,0
DA:3197,0
DA:3198,0
DA:3200,0
DA:3202,0
DA:3204,0
DA:3205,0
DA:3207,0
DA:3208,0
DA:3210,0
DA:3212,0
DA:3214,0
DA:3216,0
DA:3217,0
DA:3218,0
DA:3219,0
DA:3220,0
DA:3223,0
DA:3224,0
DA:3225,0
DA:3226,0
DA:3228,0
DA:3230,0
DA:3231,0
DA:3233,0
DA:3234,0
DA:3240,0
DA:3241,0
DA:3244,0
DA:3245,0
DA:3246,0
DA:3247,0
DA:3248,0
DA:3250,0
DA:3251,0
DA:3266,0
DA:3267,0
DA:3268,0
DA:3269,0
DA:3271,0
DA:3273,0
DA:3274,0
DA:3275,0
DA:3276,0
DA:3277,0
DA:3278,0
DA:3279,0
DA:3282,0
DA:3284,0
DA:3285,0
DA:3286,0
DA:3287,0
DA:3288,0
DA:3289,0
DA:3291,0
DA:3292,0
DA:3293,0
DA:3294,0
DA:3297,0
DA:3299,0
DA:3306,0
DA:3309,0
DA:3310,0
DA:3311,0
DA:3312,0
DA:3313,0
DA:3314,0
DA:3315,0
DA:3316,0
DA:3317,0
DA:3318,0
DA:3319,0
DA:3320,0
DA:3321,0
DA:3324,0
DA:3327,0
DA:3328,0
DA:3329,0
DA:3330,0
DA:3331,0
DA:3332,0
DA:3335,0
DA:3336,0
DA:3338,0
DA:3339,0
DA:3340,0
DA:3341,0
DA:3342,0
DA:3343,0
DA:3344,0
DA:3345,0
DA:3346,0
DA:3348,0
DA:3349,0
DA:3350,0
DA:3351,0
DA:3352,0
DA:3354,0
DA:3355,0
DA:3356,0
DA:3357,0
DA:3358,0
DA:3359,0
DA:3360,0
DA:3361,0
DA:3362,0
DA:3363,0
DA:3364,0
DA:3365,0
DA:3366,0
DA:3367,0
DA:3368,0
DA:3369,0
DA:3370,0
DA:3371,0
DA:3372,0
DA:3373,0
DA:3374,0
DA:3376,0
DA:3378,0
DA:3379,0
DA:3382,0
DA:3384,0
DA:3385,0
DA:3386,0
DA:3387,0
DA:3388,0
DA:3389,0
DA:3390,0
DA:3391,0
DA:3392,0
DA:3393,0
DA:3394,0
DA:3395,0
DA:3396,0
DA:3397,0
DA:3398,0
DA:3399,0
DA:3400,0
DA:3401,0
DA:3402,0
DA:3403,0
DA:3404,0
DA:3405,0
DA:3406,0
DA:3407,0
DA:3408,0
DA:3409,0
DA:3410,0
DA:3411,0
DA:3414,0
DA:3417,0
DA:3418,0
DA:3419,0
DA:3420,0
DA:3421,0
DA:3423,0
DA:3424,0
DA:3425,0
DA:3426,0
DA:3427,0
DA:3429,0
DA:3430,0
DA:3431,0
DA:3432,0
DA:3433,0
DA:3434,0
DA:3435,0
DA:3436,0
DA:3437,0
DA:3439,0
DA:3441,0
DA:3442,0
DA:3443,0
DA:3444,0
DA:3445,0
DA:3446,0
DA:3447,0
DA:3449,0
DA:3450,0
DA:3451,0
DA:3452,0
DA:3453,0
DA:3454,0
DA:3455,0
DA:3456,0
DA:3457,0
DA:3459,0
DA:3461,0
DA:3463,0
DA:3464,0
DA:3466,0
DA:3467,0
DA:3470,0
DA:3471,0
DA:3472,0
DA:3473,0
DA:3474,0
DA:3475,0
DA:3476,0
DA:3477,0
DA:3478,0
DA:3479,0
DA:3480,0
DA:3482,0
DA:3483,0
DA:3484,0
DA:3485,0
DA:3486,0
DA:3487,0
DA:3488,0
DA:3489,0
DA:3490,0
DA:3491,0
DA:3492,0
DA:3494,0
DA:3495,0
DA:3501,0
DA:3504,0
DA:3506,0
DA:3507,0
DA:3508,0
DA:3509,0
DA:3510,0
DA:3511,0
DA:3512,0
DA:3513,0
DA:3514,0
DA:3515,0
DA:3516,0
DA:3517,0
DA:3518,0
DA:3519,0
DA:3520,0
DA:3521,0
DA:3524,0
DA:3525,0
DA:3526,0
DA:3527,0
DA:3528,0
DA:3529,0
DA:3530,0
DA:3531,0
DA:3532,0
DA:3533,0
DA:3535,0
DA:3536,0
DA:3537,0
DA:3538,0
DA:3539,0
DA:3540,0
DA:3541,0
DA:3542,0
DA:3543,0
DA:3544,0
DA:3545,0
DA:3546,0
DA:3547,0
DA:3548,0
DA:3549,0
DA:3550,0
DA:3551,0
DA:3552,0
DA:3553,0
DA:3554,0
DA:3555,0
DA:3556,0
DA:3557,0
DA:3560,0
DA:3562,0
DA:3563,0
DA:3564,0
DA:3565,0
DA:3567,0
DA:3568,0
DA:3569,0
DA:3570,0
DA:3571,0
DA:3572,0
DA:3574,0
DA:3575,0
DA:3577,0
DA:3578,0
DA:3579,0
DA:3580,0
DA:3581,0
DA:3582,0
DA:3583,0
DA:3584,0
DA:3585,0
DA:3586,0
DA:3587,0
DA:3589,0
DA:3590,0
DA:3591,0
DA:3592,0
DA:3593,0
DA:3594,0
DA:3595,0
DA:3596,0
DA:3597,0
DA:3598,0
DA:3600,0
DA:3601,0
DA:3604,0
DA:3607,0
DA:3609,0
DA:3610,0
DA:3611,0
DA:3612,0
DA:3613,0
DA:3614,0
DA:3615,0
DA:3616,0
DA:3617,0
DA:3618,0
DA:3619,0
DA:3620,0
DA:3621,0
DA:3622,0
DA:3623,0
DA:3624,0
DA:3625,0
DA:3627,0
DA:3628,0
DA:3629,0
DA:3630,0
DA:3631,0
DA:3632,0
DA:3633,0
DA:3634,0
DA:3635,0
DA:3637,0
DA:3638,0
DA:3639,0
DA:3640,0
DA:3642,0
DA:3643,0
DA:3644,0
DA:3645,0
DA:3646,0
DA:3647,0
DA:3649,0
DA:3650,0
DA:3652,0
DA:3653,0
DA:3654,0
DA:3655,0
DA:3656,0
DA:3657,0
DA:3658,0
DA:3659,0
DA:3660,0
DA:3662,0
DA:3663,0
DA:3664,0
DA:3665,0
DA:3666,0
DA:3667,0
DA:3668,0
DA:3669,0
DA:3670,0
DA:3671,0
DA:3672,0
DA:3674,0
DA:3675,0
DA:3679,0
DA:3682,0
DA:3683,0
DA:3684,0
DA:3685,0
DA:3687,0
DA:3688,0
DA:3689,0
DA:3690,0
DA:3691,0
DA:3692,0
DA:3693,0
DA:3694,0
DA:3695,0
DA:3697,0
DA:3698,0
DA:3699,0
DA:3700,0
DA:3701,0
DA:3702,0
DA:3703,0
DA:3704,0
DA:3705,0
DA:3706,0
DA:3707,0
DA:3709,0
DA:3714,0
DA:3715,0
DA:3717,0
DA:3718,0
DA:3721,0
DA:3722,0
DA:3723,0
DA:3724,0
DA:3727,0
DA:3728,0
DA:3729,0
DA:3730,0
DA:3734,0
DA:3735,0
DA:3736,0
DA:3740,0
DA:3741,0
DA:3742,0
DA:3743,0
DA:3745,0
DA:3746,0
DA:3747,0
DA:3748,0
DA:3749,0
DA:3750,0
DA:3751,0
DA:3752,0
DA:3753,0
DA:3755,0
DA:3756,0
DA:3757,0
DA:3758,0
DA:3759,0
DA:3760,0
DA:3761,0
DA:3762,0
DA:3763,0
DA:3764,0
DA:3765,0
DA:3766,0
DA:3767,0
DA:3768,0
DA:3769,0
DA:3770,0
DA:3771,0
DA:3772,0
DA:3774,0
DA:3776,0
DA:3777,0
DA:3778,0
DA:3780,0
DA:3781,0
DA:3789,0
DA:3792,0
DA:3793,0
DA:3794,0
DA:3796,0
DA:3797,0
DA:3798,0
DA:3799,0
DA:3800,0
DA:3801,0
DA:3802,0
DA:3803,0
DA:3804,0
DA:3805,0
DA:3806,0
DA:3807,0
DA:3808,0
DA:3812,0
DA:3813,0
DA:3814,0
DA:3815,0
DA:3816,0
DA:3817,0
DA:3818,0
DA:3821,0
DA:3822,0
DA:3823,0
DA:3824,0
DA:3825,0
DA:3826,0
DA:3827,0
DA:3829,0
DA:3830,0
DA:3832,0
DA:3835,0
DA:3836,0
DA:3840,0
DA:3842,0
DA:3843,0
DA:3844,0
DA:3845,0
DA:3846,0
DA:3847,0
DA:3848,0
DA:3850,0
DA:3851,0
DA:3852,0
DA:3867,0
DA:3868,0
DA:3870,0
DA:3871,0
DA:3872,0
DA:3875,0
DA:3879,0
DA:3880,0
DA:3883,0
DA:3884,0
DA:3885,0
DA:3886,0
DA:3887,0
DA:3888,0
DA:3889,0
DA:3890,0
DA:3892,0
DA:3895,0
DA:3897,0
DA:3901,0
DA:3902,0
DA:3903,0
DA:3904,0
DA:3905,0
DA:3907,0
DA:3908,0
DA:3909,0
DA:3910,0
DA:3911,0
DA:3912,0
DA:3913,0
DA:3916,0
DA:3917,0
DA:3918,0
DA:3919,0
DA:3920,0
DA:3921,0
DA:3922,0
DA:3923,0
DA:3924,0
DA:3925,0
DA:3926,0
DA:3928,0
DA:3930,0
DA:3931,0
DA:3933,0
DA:3934,0
DA:3936,0
DA:3937,0
DA:3939,0
DA:3940,0
DA:3941,0
DA:3942,0
DA:3944,0
DA:3945,0
DA:3946,0
DA:3947,0
DA:3948,0
DA:3949,0
DA:3950,0
DA:3951,0
DA:3952,0
DA:3953,0
DA:3954,0
DA:3955,0
DA:3957,0
DA:3958,0
DA:3959,0
DA:3960,0
DA:3961,0
DA:3962,0
DA:3963,0
DA:3965,0
DA:3966,0
DA:3967,0
DA:3968,0
DA:3970,0
DA:3971,0
DA:3972,0
DA:3973,0
DA:3974,0
DA:3975,0
DA:3976,0
DA:3977,0
DA:3978,0
DA:3979,0
DA:3981,0
DA:3983,0
DA:3984,0
DA:3985,0
DA:3986,0
DA:3988,0
DA:3989,0
DA:3990,0
DA:3991,0
DA:3992,0
DA:3993,0
DA:3995,0
DA:3996,0
DA:3997,0
DA:3998,0
DA:3999,0
DA:4000,0
DA:4001,0
DA:4002,0
DA:4004,0
DA:4005,0
DA:4006,0
DA:4007,0
DA:4008,0
DA:4009,0
DA:4011,0
DA:4012,0
DA:4013,0
DA:4014,0
DA:4015,0
DA:4017,0
DA:4018,0
DA:4020,0
DA:4021,0
DA:4022,0
DA:4023,0
DA:4024,0
DA:4025,0
DA:4026,0
DA:4027,0
DA:4028,0
DA:4029,0
DA:4030,0
DA:4031,0
DA:4032,0
DA:4033,0
DA:4034,0
DA:4035,0
DA:4037,0
DA:4038,0
DA:4040,0
DA:4041,0
DA:4042,0
DA:4043,0
DA:4045,0
DA:4046,0
DA:4047,0
DA:4048,0
DA:4049,0
DA:4051,0
DA:4052,0
DA:4053,0
DA:4056,0
DA:4057,0
DA:4058,0
DA:4062,0
DA:4063,0
DA:4070,0
DA:4072,0
DA:4075,0
DA:4076,0
DA:4077,0
DA:4078,0
DA:4079,0
DA:4080,0
DA:4081,0
DA:4082,0
DA:4083,0
DA:4084,0
DA:4085,0
DA:4086,0
DA:4087,0
DA:4088,0
DA:4100,0
DA:4102,0
DA:4105,0
DA:4108,0
DA:4109,0
DA:4110,0
DA:4112,0
DA:4114,0
DA:4115,0
DA:4116,0
DA:4117,0
DA:4118,0
DA:4120,0
DA:4121,0
DA:4122,0
DA:4124,0
DA:4125,0
DA:4126,0
DA:4127,0
DA:4128,0
DA:4129,0
DA:4130,0
DA:4132,0
DA:4133,0
DA:4134,0
DA:4135,0
DA:4136,0
DA:4137,0
DA:4138,0
DA:4139,0
DA:4141,0
DA:4142,0
DA:4144,0
DA:4145,0
DA:4148,0
DA:4149,0
DA:4150,0
DA:4151,0
DA:4152,0
DA:4153,0
DA:4154,0
DA:4155,0
DA:4156,0
DA:4157,0
DA:4158,0
DA:4159,0
DA:4160,0
DA:4161,0
DA:4162,0
DA:4165,0
DA:4175,0
DA:4176,0
DA:4177,0
DA:4178,0
DA:4180,0
DA:4181,0
DA:4182,0
DA:4183,0
DA:4184,0
DA:4209,0
DA:4217,0
DA:4218,0
DA:4219,0
DA:4220,0
DA:4221,0
DA:4222,0
DA:4224,0
DA:4225,0
DA:4227,0
DA:4228,0
DA:4229,0
DA:4231,0
DA:4233,0
DA:4234,0
DA:4235,0
DA:4244,0
DA:4247,0
DA:4248,0
DA:4249,0
DA:4251,0
DA:4252,0
DA:4259,0
DA:4260,0
DA:4262,0
DA:4263,0
DA:4264,0
DA:4267,0
DA:4268,0
DA:4270,0
DA:4271,0
DA:4275,0
DA:4276,0
DA:4278,0
DA:4279,0
DA:4280,0
DA:4281,0
DA:4282,0
DA:4283,0
DA:4284,0
DA:4289,0
DA:4291,0
DA:4292,0
DA:4294,0
DA:4296,0
DA:4298,0
DA:4300,0
DA:4301,0
DA:4302,0
DA:4303,0
DA:4304,0
DA:4306,0
DA:4308,0
DA:4309,0
DA:4311,0
DA:4324,0
DA:4326,0
DA:4327,0
DA:4329,0
DA:4330,0
DA:4331,0
DA:4333,0
DA:4334,0
DA:4335,0
DA:4336,0
DA:4338,0
DA:4340,0
DA:4341,0
DA:4342,0
DA:4343,0
DA:4344,0
DA:4345,0
DA:4346,0
DA:4347,0
DA:4349,0
DA:4351,0
DA:4352,0
DA:4353,0
DA:4354,0
DA:4355,0
DA:4361,0
DA:4362,0
DA:4363,0
DA:4364,0
DA:4365,0
DA:4366,0
DA:4367,0
DA:4368,0
DA:4369,0
DA:4370,0
DA:4371,0
DA:4372,0
DA:4373,0
DA:4374,0
DA:4375,0
DA:4376,0
DA:4377,0
DA:4378,0
DA:4379,0
DA:4380,0
DA:4381,0
DA:4382,0
DA:4383,0
DA:4384,0
DA:4385,0
DA:4386,0
DA:4387,0
DA:4388,0
DA:4389,0
DA:4390,0
DA:4391,0
DA:4392,0
DA:4393,0
DA:4394,0
DA:4395,0
DA:4396,0
DA:4397,0
DA:4398,0
DA:4399,0
DA:4401,0
DA:4402,0
DA:4403,0
DA:4404,0
DA:4405,0
DA:4406,0
DA:4407,0
DA:4408,0
DA:4409,0
DA:4411,0
DA:4412,0
DA:4414,0
DA:4416,0
DA:4418,0
DA:4419,0
DA:4421,0
DA:4433,0
DA:4436,0
DA:4438,0
DA:4440,0
DA:4441,0
DA:4442,0
DA:4443,0
DA:4445,0
DA:4448,0
DA:4449,0
DA:4451,0
DA:4452,0
DA:4465,0
DA:4471,0
DA:4473,0
DA:4474,0
DA:4476,0
DA:4477,0
DA:4478,0
DA:4479,0
DA:4480,0
DA:4481,0
DA:4482,0
DA:4483,0
DA:4484,0
DA:4485,0
DA:4486,0
DA:4487,0
DA:4488,0
DA:4489,0
DA:4491,0
DA:4492,0
DA:4494,0
DA:4495,0
DA:4496,0
DA:4497,0
DA:4498,0
DA:4499,0
DA:4500,0
DA:4501,0
DA:4502,0
DA:4503,0
DA:4504,0
DA:4506,0
DA:4508,0
DA:4520,0
DA:4521,0
DA:4522,0
DA:4524,0
DA:4525,0
DA:4526,0
DA:4527,0
DA:4528,0
DA:4529,0
DA:4530,0
DA:4535,0
DA:4545,0
DA:4546,0
DA:4548,0
DA:4549,0
DA:4550,0
DA:4551,0
DA:4552,0
DA:4555,0
DA:4556,0
DA:4561,0
DA:4563,0
DA:4564,0
DA:4568,0
DA:4572,0
DA:4573,0
DA:4574,0
DA:4575,0
DA:4577,0
DA:4580,0
DA:4581,0
DA:4583,0
DA:4585,0
DA:4586,0
DA:4587,0
DA:4588,0
DA:4589,0
DA:4590,0
DA:4591,0
DA:4592,0
DA:4595,0
DA:4596,0
DA:4597,0
DA:4598,0
DA:4599,0
DA:4600,0
DA:4602,0
DA:4603,0
DA:4605,0
DA:4608,0
DA:4610,0
DA:4612,0
DA:4613,0
DA:4615,0
DA:4617,0
DA:4618,0
DA:4619,0
DA:4621,0
DA:4623,0
DA:4624,0
DA:4625,0
DA:4626,0
DA:4627,0
DA:4628,0
DA:4630,0
DA:4631,0
DA:4635,0
DA:4636,0
DA:4638,0
DA:4641,0
DA:4643,0
DA:4644,0
DA:4645,0
DA:4647,0
DA:4650,0
DA:4651,0
DA:4652,0
DA:4654,0
DA:4657,0
DA:4658,0
DA:4659,0
DA:4660,0
DA:4661,0
DA:4663,0
DA:4664,0
DA:4667,0
DA:4668,0
DA:4669,0
DA:4671,0
DA:4674,0
DA:4675,0
DA:4678,0
DA:4680,0
DA:4681,0
DA:4683,0
DA:4684,0
DA:4686,0
DA:4688,0
DA:4689,0
DA:4690,0
DA:4692,0
DA:4693,0
DA:4695,0
DA:4697,0
DA:4700,0
DA:4701,0
DA:4703,0
DA:4707,0
DA:4709,0
DA:4712,0
DA:4715,0
DA:4716,0
DA:4717,0
DA:4719,0
DA:4720,0
DA:4722,0
DA:4723,0
DA:4725,0
DA:4726,0
DA:4728,0
DA:4729,0
DA:4731,0
DA:4732,0
DA:4734,0
DA:4735,0
DA:4737,0
DA:4738,0
DA:4740,0
DA:4742,0
DA:4743,0
DA:4744,0
DA:4745,0
DA:4748,0
DA:4749,0
DA:4751,0
DA:4755,0
DA:4757,0
DA:4761,0
DA:4764,0
DA:4766,0
DA:4770,0
DA:4773,0
DA:4775,0
DA:4776,0
DA:4777,0
DA:4779,0
DA:4780,0
DA:4782,0
DA:4783,0
DA:4786,0
DA:4787,0
DA:4788,0
DA:4794,0
DA:4795,0
DA:4796,0
DA:4798,0
DA:4799,0
DA:4801,0
DA:4802,0
DA:4805,0
DA:4806,0
DA:4807,0
DA:4809,0
DA:4810,0
DA:4812,0
DA:4813,0
DA:4816,0
DA:4818,0
DA:4820,0
DA:4821,0
DA:4822,0
DA:4823,0
DA:4825,0
DA:4827,0
DA:4828,0
DA:4829,0
DA:4830,0
DA:4831,0
DA:4832,0
DA:4833,0
DA:4836,0
DA:4839,0
DA:4840,0
DA:4841,0
DA:4843,0
DA:4846,0
DA:4847,0
DA:4849,0
DA:4850,0
DA:4851,0
DA:4852,0
DA:4853,0
DA:4854,0
DA:4855,0
DA:4857,0
DA:4858,0
DA:4860,0
DA:4861,0
DA:4863,0
DA:4864,0
DA:4865,0
DA:4866,0
DA:4868,0
DA:4869,0
DA:4871,0
DA:4872,0
DA:4874,0
DA:4875,0
DA:4877,0
DA:4878,0
DA:4880,0
DA:4881,0
DA:4883,0
DA:4884,0
DA:4885,0
DA:4886,0
DA:4887,0
DA:4888,0
DA:4889,0
DA:4890,0
DA:4891,0
DA:4893,0
DA:4894,0
DA:4896,0
DA:4897,0
DA:4899,0
DA:4900,0
DA:4902,0
DA:4903,0
DA:4905,0
DA:4907,0
DA:4909,0
DA:4911,0
DA:4915,0
DA:4916,0
DA:4918,0
DA:4920,0
DA:4921,0
DA:4923,0
DA:4924,0
DA:4926,0
DA:4927,0
DA:4929,0
DA:4931,0
DA:4932,0
DA:4934,0
DA:4935,0
DA:4936,0
DA:4937,0
DA:4939,0
DA:4940,0
DA:4941,0
DA:4942,0
DA:4943,0
DA:4946,0
DA:4948,0
DA:4951,0
DA:4952,0
DA:4954,0
DA:4955,0
DA:4956,0
DA:4957,0
DA:4958,0
DA:4960,0
DA:4961,0
DA:4962,0
DA:4963,0
DA:4965,0
DA:4966,0
DA:4967,0
DA:4968,0
DA:4969,0
DA:4970,0
DA:4971,0
DA:4972,0
DA:4973,0
DA:4974,0
DA:4975,0
DA:4976,0
DA:4977,0
DA:4978,0
DA:4979,0
DA:4980,0
DA:4981,0
DA:4982,0
DA:4983,0
DA:4984,0
DA:4986,0
DA:4988,0
DA:4991,0
DA:4992,0
DA:4993,0
DA:4995,0
DA:4996,0
DA:4999,0
DA:5001,0
DA:5004,0
DA:5005,0
DA:5006,0
DA:5007,0
DA:5010,0
DA:5012,0
DA:5016,0
DA:5017,0
DA:5019,0
DA:5020,0
DA:5021,0
DA:5023,0
DA:5024,0
DA:5028,0
DA:5029,0
DA:5031,0
DA:5035,0
DA:5040,0
DA:5041,0
DA:5042,0
DA:5046,0
DA:5048,0
DA:5049,0
DA:5050,0
DA:5053,0
DA:5054,0
DA:5058,0
DA:5060,0
DA:5063,0
DA:5065,0
DA:5066,0
DA:5067,0
DA:5068,0
DA:5070,0
DA:5072,0
DA:5074,0
DA:5075,0
DA:5077,0
DA:5078,0
DA:5080,0
DA:5082,0
DA:5086,0
DA:5087,0
DA:5090,0
DA:5091,0
DA:5092,0
DA:5093,0
DA:5095,0
DA:5096,0
DA:5097,0
DA:5098,0
DA:5099,0
DA:5101,0
DA:5102,0
DA:5103,0
DA:5104,0
DA:5105,0
DA:5107,0
DA:5108,0
DA:5109,0
DA:5110,0
DA:5111,0
DA:5112,0
DA:5113,0
DA:5114,0
DA:5115,0
DA:5116,0
DA:5117,0
DA:5118,0
DA:5119,0
DA:5120,0
DA:5121,0
DA:5122,0
DA:5123,0
DA:5124,0
DA:5125,0
DA:5126,0
DA:5127,0
DA:5128,0
DA:5130,0
DA:5132,0
DA:5133,0
DA:5136,0
DA:5138,0
DA:5139,0
DA:5140,0
DA:5141,0
DA:5142,0
DA:5143,0
DA:5147,0
DA:5148,0
DA:5149,0
DA:5150,0
DA:5152,0
DA:5155,0
DA:5156,0
DA:5157,0
DA:5158,0
DA:5160,0
DA:5164,0
DA:5165,0
DA:5166,0
DA:5167,0
DA:5168,0
DA:5170,0
DA:5171,0
DA:5172,0
DA:5173,0
DA:5174,0
DA:5175,0
DA:5176,0
DA:5177,0
DA:5178,0
DA:5179,0
DA:5180,0
DA:5183,0
DA:5184,0
DA:5185,0
DA:5186,0
DA:5187,0
DA:5188,0
DA:5190,0
DA:5191,0
DA:5192,0
DA:5193,0
DA:5194,0
DA:5195,0
DA:5196,0
DA:5197,0
DA:5198,0
DA:5199,0
DA:5200,0
DA:5202,0
DA:5204,0
DA:5205,0
DA:5206,0
DA:5207,0
DA:5208,0
DA:5212,0
DA:5213,0
DA:5214,0
DA:5215,0
DA:5216,0
DA:5217,0
DA:5222,0
DA:5223,0
DA:5224,0
DA:5227,0
DA:5228,0
DA:5229,0
DA:5230,0
DA:5231,0
DA:5232,0
DA:5233,0
DA:5234,0
DA:5236,0
DA:5237,0
DA:5239,0
DA:5244,0
DA:5245,0
DA:5246,0
DA:5249,0
DA:5250,0
DA:5252,0
DA:5253,0
DA:5254,0
DA:5257,0
DA:5259,0
DA:5262,0
DA:5264,0
DA:5268,0
DA:5270,0
DA:5274,0
DA:5275,0
DA:5276,0
DA:5277,0
DA:5278,0
DA:5279,0
DA:5282,0
DA:5284,0
DA:5287,0
DA:5289,0
DA:5293,0
DA:5294,0
DA:5296,0
DA:5297,0
DA:5298,0
DA:5299,0
DA:5302,0
DA:5303,0
DA:5304,0
DA:5305,0
DA:5306,0
DA:5312,0
DA:5314,0
DA:5317,0
DA:5319,0
DA:5320,0
DA:5321,0
DA:5322,0
DA:5324,0
DA:5325,0
DA:5326,0
DA:5327,0
DA:5329,0
DA:5330,0
DA:5331,0
DA:5332,0
DA:5333,0
DA:5334,0
DA:5335,0
DA:5336,0
DA:5337,0
DA:5338,0
DA:5348,0
DA:5349,0
DA:5350,0
DA:5352,0
DA:5353,0
DA:5354,0
DA:5355,0
DA:5357,0
DA:5360,0
DA:5361,0
DA:5363,0
DA:5364,0
DA:5365,0
DA:5366,0
DA:5367,0
DA:5368,0
DA:5369,0
DA:5371,0
DA:5372,0
DA:5373,0
DA:5376,0
DA:5378,0
DA:5380,0
DA:5382,0
DA:5384,0
DA:5385,0
DA:5386,0
DA:5387,0
DA:5389,0
DA:5390,0
DA:5391,0
DA:5393,0
DA:5394,0
DA:5396,0
DA:5397,0
DA:5399,0
DA:5400,0
DA:5401,0
DA:5402,0
DA:5403,0
DA:5404,0
DA:5406,0
DA:5407,0
DA:5408,0
DA:5409,0
DA:5410,0
DA:5411,0
DA:5412,0
DA:5413,0
DA:5414,0
DA:5415,0
DA:5416,0
DA:5417,0
DA:5418,0
DA:5419,0
DA:5420,0
DA:5421,0
DA:5422,0
DA:5423,0
DA:5424,0
DA:5426,0
DA:5427,0
DA:5428,0
DA:5430,0
DA:5432,0
DA:5433,0
DA:5434,0
DA:5436,0
DA:5437,0
DA:5438,0
DA:5439,0
DA:5440,0
DA:5441,0
DA:5444,0
DA:5448,0
DA:5449,0
DA:5450,0
DA:5451,0
DA:5452,0
DA:5453,0
DA:5454,0
DA:5455,0
DA:5456,0
DA:5457,0
DA:5458,0
DA:5459,0
DA:5461,0
DA:5463,0
DA:5464,0
DA:5465,0
DA:5466,0
DA:5467,0
DA:5468,0
DA:5469,0
DA:5471,0
DA:5472,0
DA:5473,0
DA:5474,0
DA:5475,0
DA:5476,0
DA:5477,0
DA:5478,0
DA:5479,0
DA:5480,0
DA:5481,0
DA:5482,0
DA:5483,0
DA:5485,0
DA:5486,0
DA:5487,0
DA:5489,0
DA:5492,0
DA:5493,0
DA:5494,0
DA:5495,0
DA:5496,0
DA:5497,0
DA:5498,0
DA:5500,0
DA:5502,0
DA:5503,0
DA:5504,0
DA:5505,0
DA:5506,0
DA:5507,0
DA:5508,0
DA:5509,0
DA:5510,0
DA:5511,0
DA:5512,0
DA:5513,0
DA:5514,0
DA:5515,0
DA:5516,0
DA:5517,0
DA:5518,0
DA:5519,0
DA:5520,0
DA:5521,0
DA:5522,0
DA:5523,0
DA:5524,0
DA:5525,0
DA:5526,0
DA:5527,0
DA:5529,0
DA:5530,0
DA:5532,0
DA:5533,0
DA:5534,0
DA:5536,0
DA:5537,0
DA:5538,0
DA:5539,0
DA:5540,0
DA:5541,0
DA:5542,0
DA:5543,0
DA:5544,0
DA:5545,0
DA:5546,0
DA:5547,0
DA:5548,0
DA:5549,0
DA:5550,0
DA:5551,0
DA:5552,0
DA:5553,0
DA:5554,0
DA:5555,0
DA:5556,0
DA:5558,0
DA:5560,0
DA:5561,0
DA:5562,0
DA:5563,0
DA:5564,0
DA:5565,0
DA:5566,0
DA:5567,0
DA:5568,0
DA:5569,0
DA:5570,0
DA:5572,0
DA:5574,0
DA:5575,0
DA:5576,0
DA:5577,0
DA:5578,0
DA:5579,0
DA:5580,0
DA:5582,0
DA:5584,0
DA:5585,0
DA:5586,0
DA:5587,0
DA:5588,0
DA:5590,0
DA:5592,0
DA:5593,0
DA:5594,0
DA:5595,0
DA:5596,0
DA:5597,0
DA:5598,0
DA:5599,0
DA:5600,0
DA:5601,0
DA:5602,0
DA:5603,0
DA:5605,0
DA:5606,0
DA:5607,0
DA:5610,0
DA:5612,0
DA:5613,0
DA:5614,0
DA:5615,0
DA:5616,0
DA:5618,0
DA:5619,0
DA:5620,0
DA:5621,0
DA:5622,0
DA:5623,0
DA:5624,0
DA:5625,0
DA:5626,0
DA:5627,0
DA:5628,0
DA:5629,0
DA:5630,0
DA:5631,0
DA:5633,0
DA:5634,0
DA:5635,0
DA:5639,0
DA:5643,0
DA:5645,0
DA:5646,0
DA:5648,0
DA:5649,0
DA:5650,0
DA:5652,0
DA:5653,0
DA:5654,0
DA:5655,0
DA:5657,0
DA:5659,0
DA:5660,0
DA:5661,0
DA:5662,0
DA:5663,0
DA:5664,0
DA:5665,0
DA:5666,0
DA:5668,0
DA:5670,0
DA:5672,0
DA:5673,0
DA:5674,0
DA:5675,0
DA:5676,0
DA:5677,0
DA:5678,0
DA:5680,0
DA:5681,0
DA:5683,0
DA:5685,0
DA:5687,0
DA:5690,0
DA:5691,0
DA:5692,0
DA:5693,0
DA:5694,0
DA:5695,0
DA:5696,0
DA:5697,0
DA:5698,0
DA:5699,0
DA:5700,0
DA:5701,0
DA:5702,0
DA:5703,0
DA:5704,0
DA:5705,0
DA:5706,0
DA:5707,0
DA:5708,0
DA:5709,0
DA:5710,0
DA:5711,0
DA:5715,0
DA:5717,0
DA:5718,0
DA:5721,0
DA:5722,0
DA:5724,0
DA:5732,0
DA:5734,0
DA:5737,0
DA:5738,0
DA:5740,0
DA:5741,0
DA:5758,0
DA:5759,0
DA:5761,0
DA:5763,0
DA:5764,0
DA:5765,0
DA:5766,0
DA:5767,0
DA:5768,0
DA:5769,0
DA:5770,0
DA:5771,0
DA:5772,0
DA:5775,0
DA:5776,0
DA:5778,0
DA:5779,0
DA:5780,0
DA:5781,0
DA:5783,0
DA:5784,0
DA:5786,0
DA:5787,0
DA:5788,0
DA:5789,0
DA:5792,0
DA:5793,0
DA:5794,0
DA:5795,0
DA:5800,0
DA:5801,0
DA:5802,0
DA:5807,0
DA:5808,0
DA:5809,0
DA:5810,0
DA:5811,0
DA:5813,0
DA:5816,0
DA:5817,0
DA:5818,0
DA:5819,0
DA:5820,0
DA:5821,0
DA:5823,0
DA:5824,0
DA:5826,0
DA:5827,0
DA:5830,0
DA:5831,0
DA:5832,0
DA:5833,0
DA:5835,0
DA:5836,0
DA:5838,0
DA:5839,0
DA:5840,0
DA:5841,0
DA:5842,0
DA:5843,0
DA:5844,0
DA:5845,0
DA:5846,0
DA:5847,0
DA:5850,0
DA:5851,0
DA:5852,0
DA:5853,0
DA:5854,0
DA:5856,0
DA:5859,0
DA:5860,0
DA:5861,0
DA:5862,0
DA:5863,0
DA:5864,0
DA:5866,0
DA:5867,0
DA:5868,0
DA:5869,0
DA:5870,0
DA:5871,0
DA:5872,0
DA:5873,0
DA:5874,0
DA:5875,0
DA:5876,0
DA:5882,0
DA:5883,0
DA:5886,0
DA:5892,0
DA:5895,0
DA:5896,0
DA:5897,0
DA:5898,0
DA:5899,0
DA:5900,0
DA:5901,0
DA:5902,0
DA:5903,0
DA:5904,0
DA:5908,0
DA:5909,0
DA:5910,0
DA:5911,0
DA:5912,0
DA:5913,0
DA:5916,0
DA:5917,0
DA:5918,0
DA:5919,0
DA:5920,0
DA:5921,0
DA:5922,0
DA:5923,0
DA:5924,0
DA:5925,0
DA:5926,0
DA:5927,0
DA:5928,0
DA:5929,0
DA:5930,0
DA:5932,0
DA:5933,0
DA:5935,0
DA:5940,0
DA:5941,0
DA:5942,0
DA:5944,0
DA:5945,0
DA:5946,0
DA:5947,0
DA:5950,0
DA:5951,0
DA:5952,0
DA:5965,0
DA:5971,0
DA:5973,0
DA:5974,0
DA:5976,0
DA:5977,0
DA:5978,0
DA:5979,0
DA:5980,0
DA:5981,0
DA:5982,0
DA:5983,0
DA:5984,0
DA:5985,0
DA:5986,0
DA:5987,0
DA:5988,0
DA:5989,0
DA:5991,0
DA:5992,0
DA:5994,0
DA:5995,0
DA:5996,0
DA:5997,0
DA:5998,0
DA:5999,0
DA:6000,0
DA:6001,0
DA:6002,0
DA:6003,0
DA:6004,0
DA:6006,0
DA:6010,0
DA:6019,0
DA:6020,0
DA:6022,0
DA:6023,0
DA:6024,0
DA:6026,0
DA:6027,0
DA:6029,0
DA:6031,0
DA:6032,0
DA:6033,0
DA:6034,0
DA:6035,0
DA:6036,0
DA:6037,0
DA:6038,0
DA:6039,0
DA:6041,0
DA:6043,0
DA:6044,0
DA:6049,0
DA:6051,0
DA:6053,0
DA:6054,0
DA:6056,0
DA:6057,0
DA:6059,0
DA:6062,0
DA:6063,0
DA:6064,0
DA:6065,0
DA:6066,0
DA:6067,0
DA:6068,0
DA:6069,0
DA:6070,0
DA:6071,0
DA:6072,0
DA:6073,0
DA:6074,0
DA:6075,0
DA:6078,0
DA:6079,0
DA:6080,0
DA:6082,0
DA:6085,0
DA:6089,0
DA:6090,0
DA:6091,0
DA:6092,0
DA:6093,0
DA:6094,0
DA:6096,0
DA:6097,0
DA:6099,0
DA:6109,0
DA:6110,0
DA:6111,0
DA:6113,0
DA:6115,0
DA:6116,0
DA:6117,0
DA:6120,0
DA:6122,0
DA:6123,0
DA:6124,0
DA:6126,0
DA:6128,0
DA:6131,0
DA:6132,0
DA:6133,0
DA:6136,0
DA:6137,0
DA:6138,0
DA:6139,0
DA:6141,0
DA:6142,0
DA:6143,0
DA:6145,0
DA:6146,0
DA:6147,0
DA:6149,0
DA:6150,0
DA:6151,0
DA:6152,0
DA:6155,0
DA:6156,0
DA:6158,0
DA:6160,0
DA:6161,0
DA:6164,0
DA:6165,0
DA:6166,0
DA:6167,0
DA:6170,0
DA:6171,0
DA:6173,0
DA:6174,0
DA:6176,0
DA:6178,0
DA:6179,0
DA:6180,0
DA:6181,0
DA:6182,0
DA:6183,0
DA:6184,0
DA:6186,0
DA:6187,0
DA:6190,0
DA:6191,0
DA:6192,0
DA:6193,0
DA:6194,0
DA:6195,0
DA:6197,0
DA:6199,0
DA:6201,0
DA:6202,0
DA:6203,0
DA:6204,0
DA:6205,0
DA:6206,0
DA:6207,0
DA:6208,0
DA:6210,0
DA:6213,0
DA:6214,0
DA:6216,0
DA:6218,0
DA:6220,0
DA:6222,0
DA:6223,0
DA:6224,0
DA:6225,0
DA:6226,0
DA:6227,0
DA:6228,0
DA:6229,0
DA:6230,0
DA:6231,0
DA:6232,0
DA:6233,0
DA:6234,0
DA:6235,0
DA:6243,0
DA:6244,0
DA:6246,0
DA:6247,0
DA:6248,0
DA:6251,0
DA:6252,0
DA:6253,0
DA:6254,0
DA:6255,0
DA:6257,0
DA:6258,0
DA:6259,0
DA:6260,0
DA:6261,0
DA:6262,0
DA:6263,0
DA:6264,0
DA:6265,0
DA:6266,0
DA:6267,0
DA:6268,0
DA:6269,0
DA:6270,0
DA:6271,0
DA:6272,0
DA:6275,0
DA:6276,0
DA:6277,0
DA:6278,0
DA:6279,0
DA:6280,0
DA:6282,0
DA:6283,0
DA:6284,0
DA:6286,0
DA:6287,0
DA:6290,0
DA:6291,0
DA:6292,0
DA:6293,0
DA:6295,0
DA:6296,0
DA:6297,0
DA:6298,0
DA:6301,0
DA:6302,0
DA:6303,0
DA:6304,0
DA:6305,0
DA:6308,0
DA:6309,0
DA:6312,0
DA:6313,0
DA:6314,0
DA:6315,0
DA:6317,0
DA:6318,0
DA:6319,0
DA:6320,0
DA:6322,0
DA:6323,0
DA:6324,0
DA:6326,0
DA:6327,0
DA:6328,0
DA:6329,0
DA:6330,0
DA:6331,0
DA:6332,0
DA:6334,0
DA:6336,0
DA:6337,0
DA:6338,0
DA:6339,0
DA:6342,0
DA:6343,0
DA:6344,0
DA:6345,0
DA:6347,0
DA:6348,0
DA:6349,0
DA:6351,0
DA:6352,0
DA:6353,0
DA:6354,0
DA:6356,0
DA:6357,0
DA:6358,0
DA:6359,0
DA:6361,0
DA:6362,0
DA:6363,0
DA:6365,0
DA:6366,0
DA:6367,0
DA:6368,0
DA:6369,0
DA:6372,0
DA:6373,0
DA:6374,0
DA:6375,0
DA:6376,0
DA:6378,0
DA:6379,0
DA:6380,0
DA:6383,0
DA:6384,0
DA:6387,0
DA:6388,0
DA:6390,0
DA:6393,0
DA:6398,0
DA:6399,0
DA:6400,0
DA:6401,0
DA:6402,0
DA:6403,0
DA:6404,0
DA:6405,0
DA:6406,0
DA:6409,0
DA:6411,0
DA:6414,0
DA:6416,0
DA:6420,0
DA:6424,0
DA:6425,0
DA:6426,0
DA:6427,0
DA:6430,0
DA:6432,0
DA:6435,0
DA:6437,0
DA:6441,0
DA:6442,0
DA:6443,0
DA:6444,0
DA:6445,0
DA:6446,0
DA:6447,0
DA:6449,0
DA:6450,0
DA:6452,0
DA:6462,0
DA:6463,0
DA:6465,0
DA:6467,0
DA:6470,0
DA:6473,0
DA:6476,0
DA:6478,0
DA:6480,0
DA:6483,0
DA:6485,0
DA:6487,0
DA:6489,0
DA:6491,0
DA:6493,0
DA:6500,0
DA:6502,0
DA:6504,0
DA:6506,0
DA:6508,0
DA:6510,0
DA:6513,0
DA:6515,0
DA:6517,0
DA:6519,0
DA:6521,0
DA:6523,0
DA:6525,0
DA:6527,0
DA:6529,0
DA:6531,0
DA:6533,0
DA:6535,0
DA:6537,0
DA:6539,0
DA:6541,0
DA:6543,0
DA:6545,0
DA:6547,0
DA:6549,0
DA:6551,0
DA:6553,0
DA:6555,0
DA:6557,0
DA:6559,0
DA:6561,0
DA:6566,0
DA:6568,0
DA:6570,0
DA:6572,0
DA:6574,0
DA:6576,0
DA:6578,0
DA:6582,0
DA:6585,0
DA:6589,0
DA:6591,0
DA:6594,0
DA:6597,0
DA:6600,0
DA:6602,0
DA:6604,0
DA:6607,0
DA:6609,0
DA:6612,0
DA:6614,0
DA:6616,0
DA:6618,0
DA:6621,0
DA:6623,0
DA:6625,0
DA:6627,0
DA:6630,0
DA:6632,0
DA:6634,0
DA:6636,0
DA:6639,0
DA:6641,0
DA:6645,0
DA:6647,0
DA:6649,0
DA:6651,0
DA:6653,0
DA:6655,0
DA:6657,0
DA:6659,0
DA:6661,0
DA:6663,0
DA:6665,0
DA:6667,0
DA:6670,0
DA:6673,0
DA:6675,0
DA:6677,0
DA:6679,0
DA:6681,0
DA:6684,0
DA:6687,0
DA:6689,0
DA:6691,0
DA:6695,0
DA:6699,0
DA:6701,0
DA:6702,0
FNF:233
FNH:0
LF:3932
LH:0
end_of_record
TN:
SF:/Users/phil/Downloads/fractal/protocol/fractal/utils/avpacket_buffer.c
FN:3,write_packets_to_buffer
FNDA:0,write_packets_to_buffer
FN:26,extract_packets_from_buffer
FNDA:0,extract_packets_from_buffer
DA:3,0
DA:13,0
DA:14,0
DA:15,0
DA:16,0
DA:17,0
DA:18,0
DA:19,0
DA:20,0
DA:21,0
DA:22,0
DA:23,0
DA:24,0
DA:26,0
DA:45,0
DA:46,0
DA:48,0
DA:49,0
DA:53,0
DA:54,0
DA:55,0
DA:58,0
DA:61,0
DA:63,0
DA:65,0
DA:66,0
DA:67,0
DA:68,0
DA:70,0
DA:71,0
DA:75,0
DA:79,0
DA:80,0
DA:82,0
DA:83,0
DA:84,0
DA:87,0
DA:88,0
FNF:2
FNH:0
LF:38
LH:0
end_of_record
TN:
SF:/Users/phil/Downloads/fractal/protocol/fractal/utils/clock.c
FN:29,start_timer
FNDA:0,start_timer
FN:38,get_timer
FNDA:0,get_timer
FN:63,create_clock
FNDA:0,create_clock
FN:74,current_time_str
FNDA:0,current_time_str
FN:100,get_utc_offset
FNDA:0,get_utc_offset
FN:122,get_dst
FNDA:0,get_dst
FN:134,get_time_data
FNDA:0,get_time_data
FN:189,set_timezone_from_iana_name
FNDA:0,set_timezone_from_iana_name
FN:205,set_timezone_from_windows_name
FNDA:0,set_timezone_from_windows_name
FN:234,set_timezone_from_utc
FNDA:0,set_timezone_from_utc
FN:312,set_time_data
FNDA:0,set_time_data
DA:29,0
DA:34,0
DA:36,0
DA:38,0
DA:48,0
DA:51,0
DA:52,0
DA:58,0
DA:60,0
DA:63,0
DA:68,0
DA:69,0
DA:71,0
DA:74,0
DA:88,0
DA:90,0
DA:91,0
DA:97,0
DA:100,0
DA:114,0
DA:115,0
DA:116,0
DA:118,0
DA:122,0
DA:127,0
DA:128,0
DA:129,0
DA:130,0
DA:134,0
DA:135,0
DA:137,0
DA:138,0
DA:139,0
DA:157,0
DA:158,0
DA:160,0
DA:161,0
DA:165,0
DA:166,0
DA:167,0
DA:169,0
DA:189,0
DA:194,0
DA:196,0
DA:197,0
DA:198,0
DA:201,0
DA:203,0
DA:205,0
DA:230,0
DA:232,0
DA:234,0
DA:235,0
DA:236,0
DA:237,0
DA:238,0
DA:300,0
DA:301,0
DA:302,0
DA:305,0
DA:308,0
DA:310,0
DA:312,0
DA:325,0
DA:326,0
DA:327,0
DA:328,0
DA:329,0
DA:330,0
DA:331,0
DA:332,0
DA:336,0
FNF:11
FNH:0
LF:72
LH:0
end_of_record
TN:
SF:/Users/phil/Downloads/fractal/protocol/fractal/utils/color.c
FN:33,yuv_to_rgb
FNDA:0,yuv_to_rgb
FN:58,rgb_compare
FNDA:0,rgb_compare
FN:75,color_requires_dark_text
FNDA:0,color_requires_dark_text
DA:33,0
DA:44,0
DA:45,0
DA:46,0
DA:48,0
DA:49,0
DA:50,0
DA:52,0
DA:53,0
DA:55,0
DA:58,0
DA:69,0
DA:70,0
DA:72,0
DA:73,0
DA:75,0
DA:86,0
DA:87,0
FNF:3
FNH:0
LF:18
LH:0
end_of_record
TN:
SF:/Users/phil/Downloads/fractal/protocol/fractal/utils/threads.c
FN:9,fractal_init_multithreading
FNDA:0,fractal_init_multithreading
FN:15,fractal_create_thread
FNDA:0,fractal_create_thread
FN:24,fractal_detach_thread
FNDA:0,fractal_detach_thread
FN:26,fractal_wait_thread
FNDA:0,fractal_wait_thread
FN:28,fractal_set_thread_priority
FNDA:0,fractal_set_thread_priority
FN:72,fractal_sleep
FNDA:0,fractal_sleep
FN:74,fractal_create_mutex
FNDA:0,fractal_create_mutex
FN:82,fractal_lock_mutex
FNDA:0,fractal_lock_mutex
FN:88,fractal_try_lock_mutex
FNDA:0,fractal_try_lock_mutex
FN:97,fractal_unlock_mutex
FNDA:0,fractal_unlock_mutex
FN:103,fractal_destroy_mutex
FNDA:0,fractal_destroy_mutex
FN:105,fractal_create_cond
FNDA:0,fractal_create_cond
FN:113,fractal_wait_cond
FNDA:0,fractal_wait_cond
FN:119,fractal_broadcast_cond
FNDA:0,fractal_broadcast_cond
FN:125,fractal_destroy_cond
FNDA:0,fractal_destroy_cond
FN:127,fractal_create_semaphore
FNDA:0,fractal_create_semaphore
FN:135,fractal_post_semaphore
FNDA:0,fractal_post_semaphore
FN:141,fractal_wait_semaphore
FNDA:0,fractal_wait_semaphore
FN:147,fractal_destroy_semaphore
FNDA:0,fractal_destroy_semaphore
DA:9,0
DA:10,0
DA:11,0
DA:12,0
DA:13,0
DA:15,0
DA:17,0
DA:18,0
DA:19,0
DA:21,0
DA:24,0
DA:26,0
DA:28,0
DA:62,0
DA:63,0
DA:64,0
DA:67,0
DA:68,0
DA:69,0
DA:70,0
DA:72,0
DA:74,0
DA:75,0
DA:76,0
DA:77,0
DA:79,0
DA:82,0
DA:83,0
DA:84,0
DA:86,0
DA:88,0
DA:89,0
DA:90,0
DA:91,0
DA:93,0
DA:97,0
DA:98,0
DA:99,0
DA:101,0
DA:103,0
DA:105,0
DA:106,0
DA:107,0
DA:108,0
DA:110,0
DA:113,0
DA:114,0
DA:115,0
DA:117,0
DA:119,0
DA:120,0
DA:121,0
DA:123,0
DA:125,0
DA:127,0
DA:128,0
DA:129,0
DA:130,0
DA:132,0
DA:135,0
DA:136,0
DA:137,0
DA:139,0
DA:141,0
DA:142,0
DA:143,0
DA:145,0
DA:147,0
FNF:19
FNH:0
LF:68
LH:0
end_of_record
TN:
SF:/Users/phil/Downloads/fractal/protocol/build/include/ffmpeg/libavutil/error.h
FN:109,av_make_error_string
FNDA:0,av_make_error_string
DA:109,0
DA:111,0
DA:112,0
FNF:1
FNH:0
LF:3
LH:0
end_of_record
SF:/Users/phil/Downloads/fractal/protocol/fractal/audio/audiodecode.c
FN:29,create_audio_decoder
FNDA:0,create_audio_decoder
FN:109,init_av_frame
FNDA:0,init_av_frame
FN:134,audio_decoder_packet_readout
FNDA:0,audio_decoder_packet_readout
FN:158,audio_decoder_get_frame_data_size
FNDA:0,audio_decoder_get_frame_data_size
FN:173,audio_decoder_decode_packet
FNDA:0,audio_decoder_decode_packet
FN:213,destroy_audio_decoder
FNDA:0,destroy_audio_decoder
FN:245,audio_decoder_send_packets
FNDA:0,audio_decoder_send_packets
FN:271,audio_decoder_get_frame
FNDA:0,audio_decoder_get_frame
DA:29,0
DA:42,0
DA:43,0
DA:46,0
DA:47,0
DA:48,0
DA:49,0
DA:50,0
DA:52,0
DA:53,0
DA:54,0
DA:55,0
DA:56,0
DA:61,0
DA:62,0
DA:65,0
DA:66,0
DA:69,0
DA:70,0
DA:71,0
DA:72,0
DA:74,0
DA:75,0
DA:76,0
DA:77,0
DA:81,0
DA:86,0
DA:87,0
DA:88,0
DA:89,0
DA:92,0
DA:93,0
DA:94,0
DA:95,0
DA:98,0
DA:99,0
DA:100,0
DA:101,0
DA:106,0
DA:107,0
DA:109,0
DA:121,0
DA:122,0
DA:123,0
DA:126,0
DA:127,0
DA:128,0
DA:131,0
DA:132,0
DA:134,0
DA:144,0
DA:148,0
DA:149,0
DA:152,0
DA:153,0
DA:154,0
DA:155,0
DA:156,0
DA:158,0
DA:169,0
DA:170,0
DA:173,0
DA:185,0
DA:186,0
DA:190,0
DA:191,0
DA:192,0
DA:193,0
DA:197,0
DA:198,0
DA:199,0
DA:200,0
DA:201,0
DA:202,0
DA:203,0
DA:204,0
DA:206,0
DA:207,0
DA:209,0
DA:211,0
DA:213,0
DA:221,0
DA:222,0
DA:223,0
DA:225,0
DA:228,0
DA:231,0
DA:234,0
DA:235,0
DA:236,0
DA:239,0
DA:242,0
DA:243,0
DA:245,0
DA:259,0
DA:262,0
DA:263,0
DA:264,0
DA:265,0
DA:267,0
DA:268,0
DA:269,0
DA:271,0
DA:282,0
DA:283,0
DA:285,0
DA:286,0
DA:288,0
DA:289,0
DA:292,0
DA:294,0
FNF:8
FNH:0
LF:111
LH:0
end_of_record
TN:
SF:/Users/phil/Downloads/fractal/protocol/fractal/logging/logging.c
FN:91,get_logger_history
FNDA:0,get_logger_history
FN:92,get_logger_history_len
FNDA:0,get_logger_history_len
FN:94,init_logger
FNDA:0,init_logger
FN:117,destroy_logger
FNDA:0,destroy_logger
FN:131,multithreaded_printf
FNDA:0,multithreaded_printf
FN:148,flush_logs
FNDA:0,flush_logs
FN:222,escape_string
FNDA:0,escape_string
FN:275,internal_logging_printf
FNDA:0,internal_logging_printf
FN:291,mprintf_queue_line
FNDA:0,mprintf_queue_line
FN:352,mprintf
FNDA:0,mprintf
FN:394,print_stacktrace
FNDA:0,print_stacktrace
FN:551,unix_crash_handler
FNDA:0,unix_crash_handler
FN:558,init_backtrace_handler
FNDA:0,init_backtrace_handler
DA:91,0
DA:92,0
DA:94,0
DA:105,0
DA:106,0
DA:108,0
DA:109,0
DA:110,0
DA:111,0
DA:112,0
DA:114,0
DA:115,0
DA:117,0
DA:119,0
DA:121,0
DA:122,0
DA:124,0
DA:125,0
DA:127,0
DA:128,0
DA:129,0
DA:131,0
DA:132,0
DA:134,0
DA:136,0
DA:138,0
DA:139,0
DA:142,0
DA:145,0
DA:148,0
DA:149,0
DA:152,0
DA:153,0
DA:154,0
DA:155,0
DA:156,0
DA:157,0
DA:158,0
DA:159,0
DA:160,0
DA:161,0
DA:162,0
DA:163,0
DA:164,0
DA:165,0
DA:166,0
DA:167,0
DA:170,0
DA:171,0
DA:172,0
DA:173,0
DA:174,0
DA:175,0
DA:178,0
DA:181,0
DA:182,0
DA:183,0
DA:184,0
DA:185,0
DA:186,0
DA:189,0
DA:190,0
DA:191,0
DA:194,0
DA:196,0
DA:197,0
DA:198,0
DA:199,0
DA:200,0
DA:201,0
DA:202,0
DA:203,0
DA:206,0
DA:207,0
DA:222,0
DA:223,0
DA:224,0
DA:225,0
DA:226,0
DA:227,0
DA:229,0
DA:230,0
DA:231,0
DA:233,0
DA:234,0
DA:235,0
DA:237,0
DA:238,0
DA:239,0
DA:241,0
DA:242,0
DA:243,0
DA:245,0
DA:246,0
DA:247,0
DA:248,0
DA:252,0
DA:253,0
DA:254,0
DA:255,0
DA:259,0
DA:260,0
DA:261,0
DA:262,0
DA:266,0
DA:267,0
DA:269,0
DA:270,0
DA:271,0
DA:275,0
DA:277,0
DA:279,0
DA:281,0
DA:282,0
DA:283,0
DA:285,0
DA:288,0
DA:289,0
DA:291,0
DA:308,0
DA:309,0
DA:311,0
DA:313,0
DA:314,0
DA:316,0
DA:318,0
DA:322,0
DA:325,0
DA:326,0
DA:330,0
DA:331,0
DA:333,0
DA:335,0
DA:336,0
DA:338,0
DA:339,0
DA:341,0
DA:342,0
DA:345,0
DA:347,0
DA:348,0
DA:349,0
DA:352,0
DA:353,0
DA:358,0
DA:361,0
DA:364,0
DA:365,0
DA:368,0
DA:371,0
DA:376,0
DA:377,0
DA:380,0
DA:381,0
DA:382,0
DA:383,0
DA:387,0
DA:389,0
DA:390,0
DA:394,0
DA:403,0
DA:406,0
DA:432,0
DA:437,0
DA:442,0
DA:445,0
DA:450,0
DA:452,0
DA:454,0
DA:455,0
DA:458,0
DA:459,0
DA:463,0
DA:464,0
DA:467,0
DA:468,0
DA:469,0
DA:470,0
DA:551,0
DA:552,0
DA:553,0
DA:554,0
DA:558,0
DA:559,0
DA:564,0
DA:565,0
DA:566,0
DA:567,0
DA:571,0
DA:572,0
DA:573,0
DA:574,0
DA:576,0
DA:578,0
DA:579,0
DA:581,0
FNF:13
FNH:0
LF:196
LH:0
end_of_record
TN:
SF:/Users/phil/Downloads/fractal/protocol/fractal/logging/error_monitor.c
FN:64,check_error_monitor_backoff
FNDA:0,check_error_monitor_backoff
FN:94,error_monitor_set_environment
FNDA:0,error_monitor_set_environment
FN:125,error_monitor_set_username
FNDA:0,error_monitor_set_username
FN:157,error_monitor_set_connection_id
FNDA:0,error_monitor_set_connection_id
FN:189,error_monitor_initialize
FNDA:0,error_monitor_initialize
FN:261,error_monitor_shutdown
FNDA:0,error_monitor_shutdown
FN:284,error_monitor_log_breadcrumb
FNDA:0,error_monitor_log_breadcrumb
FN:318,error_monitor_log_error
FNDA:0,error_monitor_log_error
DA:64,0
DA:79,0
DA:80,0
DA:81,0
DA:82,0
DA:84,0
DA:85,0
DA:89,0
DA:91,0
DA:92,0
DA:94,0
DA:108,0
DA:109,0
DA:111,0
DA:114,0
DA:115,0
DA:116,0
DA:117,0
DA:118,0
DA:119,0
DA:120,0
DA:121,0
DA:123,0
DA:125,0
DA:141,0
DA:146,0
DA:147,0
DA:148,0
DA:150,0
DA:151,0
DA:152,0
DA:155,0
DA:157,0
DA:173,0
DA:178,0
DA:179,0
DA:180,0
DA:181,0
DA:185,0
DA:187,0
DA:189,0
DA:203,0
DA:204,0
DA:205,0
DA:208,0
DA:209,0
DA:210,0
DA:214,0
DA:219,0
DA:223,0
DA:224,0
DA:227,0
DA:230,0
DA:234,0
DA:237,0
DA:240,0
DA:241,0
DA:242,0
DA:243,0
DA:247,0
DA:249,0
DA:252,0
DA:255,0
DA:258,0
DA:259,0
DA:261,0
DA:276,0
DA:279,0
DA:281,0
DA:282,0
DA:284,0
DA:303,0
DA:309,0
DA:310,0
DA:311,0
DA:313,0
DA:316,0
DA:318,0
DA:335,0
DA:339,0
DA:341,0
DA:343,0
DA:345,0
FNF:8
FNH:0
LF:83
LH:0
end_of_record
TN:
SF:/Users/phil/Downloads/fractal/protocol/fractal/logging/log_statistic.c
FN:66,unsafe_print_statistics
FNDA:0,unsafe_print_statistics
FN:95,init_statistic_logger
FNDA:0,init_statistic_logger
FN:105,log_double_statistic
FNDA:0,log_double_statistic
FN:143,print_statistics
FNDA:0,print_statistics
DA:66,0
DA:68,0
DA:70,0
DA:71,0
DA:75,0
DA:76,0
DA:80,0
DA:81,0
DA:82,0
DA:83,0
DA:85,0
DA:87,0
DA:95,0
DA:96,0
DA:97,0
DA:98,0
DA:99,0
DA:100,0
DA:101,0
DA:102,0
DA:103,0
DA:105,0
DA:106,0
DA:107,0
DA:108,0
DA:109,0
DA:111,0
DA:112,0
DA:113,0
DA:114,0
DA:115,0
DA:116,0
DA:118,0
DA:119,0
DA:121,0
DA:123,0
DA:124,0
DA:125,0
DA:126,0
DA:129,0
DA:130,0
DA:131,0
DA:132,0
DA:133,0
DA:134,0
DA:135,0
DA:137,0
DA:138,0
DA:139,0
DA:140,0
DA:141,0
DA:143,0
DA:144,0
DA:145,0
DA:146,0
DA:147,0
FNF:4
FNH:0
LF:56
LH:0
end_of_record
TN:
SF:/Users/phil/Downloads/fractal/protocol/fractal/clipboard/clipboard_osx.m
FN:34,get_clipboard_changecount
FNDA:0,get_clipboard_changecount
FN:48,check_clipboard_has_string
FNDA:0,check_clipboard_has_string
FN:62,check_clipboard_has_image
FNDA:0,check_clipboard_has_image
FN:76,clipboard_get_string
FNDA:0,clipboard_get_string
FN:103,clipboard_set_string
FNDA:0,clipboard_set_string
FN:118,clipboard_get_image
FNDA:0,clipboard_get_image
FN:145,clipboard_set_image
FNDA:0,clipboard_set_image
FN:166,check_clipboard_has_files
FNDA:0,check_clipboard_has_files
FN:182,clipboard_get_files
FNDA:0,clipboard_get_files
FN:215,clipboard_set_files
FNDA:0,clipboard_set_files
DA:34,0
DA:43,0
DA:44,0
DA:45,0
DA:48,0
DA:56,0
DA:57,0
DA:58,0
DA:59,0
DA:62,0
DA:70,0
DA:71,0
DA:72,0
DA:73,0
DA:76,0
DA:84,0
DA:85,0
DA:86,0
DA:88,0
DA:89,0
DA:90,0
DA:91,0
DA:92,0
DA:95,0
DA:98,0
DA:99,0
DA:101,0
DA:103,0
DA:112,0
DA:113,0
DA:114,0
DA:115,0
DA:118,0
DA:127,0
DA:128,0
DA:129,0
DA:130,0
DA:132,0
DA:134,0
DA:136,0
DA:137,0
DA:138,0
DA:141,0
DA:143,0
DA:145,0
DA:154,0
DA:155,0
DA:156,0
DA:157,0
DA:160,0
DA:161,0
DA:162,0
DA:163,0
DA:166,0
DA:174,0
DA:175,0
DA:176,0
DA:177,0
DA:178,0
DA:179,0
DA:182,0
DA:191,0
DA:192,0
DA:195,0
DA:196,0
DA:197,0
DA:199,0
DA:200,0
DA:201,0
DA:205,0
DA:207,0
DA:209,0
DA:210,0
DA:211,0
DA:213,0
DA:215,0
DA:223,0
DA:226,0
DA:229,0
DA:232,0
DA:233,0
DA:234,0
DA:235,0
DA:236,0
DA:237,0
DA:238,0
DA:239,0
DA:240,0
DA:241,0
DA:243,0
DA:244,0
DA:245,0
FNF:10
FNH:0
LF:92
LH:0
end_of_record
TN:
SF:/Users/phil/Downloads/fractal/protocol/fractal/clipboard/mac_clipboard.c
FN:44,unsafe_init_clipboard
FNDA:0,unsafe_init_clipboard
FN:46,unsafe_destroy_clipboard
FNDA:0,unsafe_destroy_clipboard
FN:48,unsafe_has_clipboard_updated
FNDA:0,unsafe_has_clipboard_updated
FN:74,unsafe_free_clipboard
FNDA:0,unsafe_free_clipboard
FN:85,unsafe_get_clipboard
FNDA:0,unsafe_get_clipboard
FN:189,unsafe_set_clipboard
FNDA:0,unsafe_set_clipboard
DA:44,0
DA:46,0
DA:48,0
DA:57,0
DA:59,0
DA:60,0
DA:62,0
DA:63,0
DA:64,0
DA:65,0
DA:66,0
DA:67,0
DA:68,0
DA:69,0
DA:70,0
DA:71,0
DA:74,0
DA:82,0
DA:83,0
DA:85,0
DA:94,0
DA:96,0
DA:97,0
DA:102,0
DA:103,0
DA:104,0
DA:105,0
DA:154,0
DA:156,0
DA:158,0
DA:159,0
DA:161,0
DA:162,0
DA:163,0
DA:164,0
DA:166,0
DA:167,0
DA:170,0
DA:173,0
DA:174,0
DA:176,0
DA:177,0
DA:178,0
DA:181,0
DA:182,0
DA:183,0
DA:186,0
DA:187,0
DA:189,0
DA:198,0
DA:199,0
DA:205,0
DA:212,0
DA:213,0
DA:214,0
DA:215,0
DA:216,0
DA:217,0
DA:218,0
DA:221,0
DA:222,0
DA:223,0
DA:226,0
DA:227,0
DA:228,0
DA:231,0
DA:232,0
DA:235,0
FNF:6
FNH:0
LF:68
LH:0
end_of_record
TN:
SF:/Users/phil/Downloads/fractal/protocol/fractal/clipboard/clipboard_synchronizer.c
FN:83,is_clipboard_synchronizing
FNDA:0,is_clipboard_synchronizing
FN:100,init_clipboard_synchronizer
FNDA:0,init_clipboard_synchronizer
FN:132,destroy_clipboard_synchronizer
FNDA:0,destroy_clipboard_synchronizer
FN:158,clipboard_synchronizer_abort_active_clipboard_action
FNDA:0,clipboard_synchronizer_abort_active_clipboard_action
FN:184,clipboard_synchronizer_set_clipboard_chunk
FNDA:0,clipboard_synchronizer_set_clipboard_chunk
FN:235,clipboard_synchronizer_get_next_clipboard_chunk
FNDA:0,clipboard_synchronizer_get_next_clipboard_chunk
FN:305,update_clipboard
FNDA:0,update_clipboard
DA:83,0
DA:93,0
DA:94,0
DA:95,0
DA:97,0
DA:98,0
DA:100,0
DA:108,0
DA:110,0
DA:111,0
DA:112,0
DA:115,0
DA:117,0
DA:118,0
DA:119,0
DA:120,0
DA:121,0
DA:125,0
DA:128,0
DA:129,0
DA:130,0
DA:132,0
DA:137,0
DA:139,0
DA:140,0
DA:141,0
DA:144,0
DA:145,0
DA:148,0
DA:153,0
DA:155,0
DA:156,0
DA:158,0
DA:167,0
DA:168,0
DA:171,0
DA:172,0
DA:173,0
DA:175,0
DA:176,0
DA:177,0
DA:178,0
DA:179,0
DA:180,0
DA:181,0
DA:182,0
DA:184,0
DA:195,0
DA:196,0
DA:197,0
DA:200,0
DA:204,0
DA:205,0
DA:206,0
DA:208,0
DA:209,0
DA:210,0
DA:213,0
DA:214,0
DA:215,0
DA:216,0
DA:219,0
DA:220,0
DA:221,0
DA:222,0
DA:224,0
DA:226,0
DA:227,0
DA:230,0
DA:232,0
DA:233,0
DA:235,0
DA:247,0
DA:248,0
DA:249,0
DA:252,0
DA:255,0
DA:256,0
DA:257,0
DA:258,0
DA:259,0
DA:260,0
DA:261,0
DA:262,0
DA:264,0
DA:265,0
DA:267,0
DA:270,0
DA:271,0
DA:272,0
DA:273,0
DA:274,0
DA:275,0
DA:276,0
DA:277,0
DA:278,0
DA:279,0
DA:280,0
DA:284,0
DA:285,0
DA:286,0
DA:288,0
DA:289,0
DA:290,0
DA:293,0
DA:295,0
DA:297,0
DA:300,0
DA:302,0
DA:303,0
DA:305,0
DA:310,0
DA:312,0
DA:313,0
DA:315,0
DA:316,0
DA:319,0
DA:321,0
DA:322,0
DA:324,0
DA:325,0
DA:326,0
DA:327,0
DA:328,0
DA:329,0
DA:331,0
DA:332,0
DA:333,0
DA:334,0
DA:336,0
DA:340,0
DA:341,0
DA:342,0
DA:343,0
DA:344,0
DA:347,0
DA:348,0
DA:350,0
DA:353,0
FNF:7
FNH:0
LF:139
LH:0
end_of_record
TN:
SF:/Users/phil/Downloads/fractal/protocol/fractal/clipboard/clipboard.c
FN:56,init_clipboard
FNDA:0,init_clipboard
FN:75,should_preserve_local_clipboard
FNDA:0,should_preserve_local_clipboard
FN:89,get_clipboard
FNDA:0,get_clipboard
FN:109,set_clipboard
FNDA:0,set_clipboard
FN:130,free_clipboard
FNDA:0,free_clipboard
FN:148,has_clipboard_updated
FNDA:0,has_clipboard_updated
FN:170,destroy_clipboard
FNDA:0,destroy_clipboard
DA:56,0
DA:64,0
DA:65,0
DA:66,0
DA:70,0
DA:71,0
DA:72,0
DA:73,0
DA:75,0
DA:86,0
DA:89,0
DA:98,0
DA:99,0
DA:100,0
DA:103,0
DA:104,0
DA:105,0
DA:106,0
DA:107,0
DA:109,0
DA:118,0
DA:119,0
DA:120,0
DA:123,0
DA:124,0
DA:126,0
DA:127,0
DA:128,0
DA:130,0
DA:138,0
DA:139,0
DA:140,0
DA:143,0
DA:144,0
DA:145,0
DA:146,0
DA:148,0
DA:156,0
DA:157,0
DA:158,0
DA:161,0
DA:162,0
DA:163,0
DA:164,0
DA:166,0
DA:168,0
DA:170,0
DA:175,0
DA:176,0
DA:177,0
DA:180,0
DA:181,0
DA:182,0
DA:184,0
DA:185,0
DA:186,0
FNF:7
FNH:0
LF:56
LH:0
end_of_record
TN:
SF:/Library/Developer/CommandLineTools/SDKs/MacOSX11.3.sdk/usr/include/c++/v1/__functional_base
FN:53,_ZNKSt3__14lessINS_12basic_stringIcNS_11char_traitsIcEENS_9allocatorIcEEEEEclERKS6_S9_
FNDA:0,_ZNKSt3__14lessINS_12basic_stringIcNS_11char_traitsIcEENS_9allocatorIcEEEEEclERKS6_S9_
DA:53,0
DA:54,0
FNF:1
FNH:0
LF:2
LH:0
end_of_record
SF:/Library/Developer/CommandLineTools/SDKs/MacOSX11.3.sdk/usr/include/_ctype.h
FN:135,_Z7isasciii
FNDA:0,_Z7isasciii
FN:153,_Z8__istypeim
FNDA:0,_Z8__istypeim
FN:164,_Z9__isctypeim
FNDA:0,_Z9__isctypeim
FN:230,_Z7iscntrli
FNDA:0,_Z7iscntrli
FN:237,_Z7isdigiti
FNDA:0,_Z7isdigiti
FN:267,_Z7isspacei
FNDA:0,_Z7isspacei
FN:280,_Z8isxdigiti
FNDA:0,_Z8isxdigiti
FN:298,_Z7toupperi
FNDA:414,_Z7toupperi
DA:135,0
DA:137,0
DA:153,0
DA:158,0
DA:159,0
DA:164,0
DA:169,0
DA:170,0
DA:230,0
DA:232,0
DA:237,0
DA:239,0
DA:267,0
DA:269,0
DA:280,0
DA:282,0
DA:298,414
DA:300,414
FNF:8
FNH:1
LF:18
LH:2
end_of_record
SF:/Library/Developer/CommandLineTools/SDKs/MacOSX11.3.sdk/usr/include/c++/v1/atomic
FN:954,_ZNSt3__122__cxx_atomic_base_implIiEC2Ei
FNDA:0,_ZNSt3__122__cxx_atomic_base_implIiEC2Ei
FN:1068,_ZNSt3__1L22__cxx_atomic_fetch_subIiEET_PNS_22__cxx_atomic_base_implIS1_EES1_NS_12memory_orderE
FNDA:0,_ZNSt3__1L22__cxx_atomic_fetch_subIiEET_PNS_22__cxx_atomic_base_implIS1_EES1_NS_12memory_orderE
FN:1484,_ZNSt3__117__cxx_atomic_implIiNS_22__cxx_atomic_base_implIiEEEC1Ei
FNDA:0,_ZNSt3__117__cxx_atomic_implIiNS_22__cxx_atomic_base_implIiEEEC1Ei
FN:1484,_ZNSt3__117__cxx_atomic_implIiNS_22__cxx_atomic_base_implIiEEEC2Ei
FNDA:0,_ZNSt3__117__cxx_atomic_implIiNS_22__cxx_atomic_base_implIiEEEC2Ei
FN:1672,_ZNSt3__113__atomic_baseIiLb0EEC2Ei
FNDA:0,_ZNSt3__113__atomic_baseIiLb0EEC2Ei
FN:1704,_ZNSt3__113__atomic_baseIiLb1EEC2Ei
FNDA:0,_ZNSt3__113__atomic_baseIiLb1EEC2Ei
FN:1716,_ZNSt3__113__atomic_baseIiLb1EE9fetch_subEiNS_12memory_orderE
FNDA:0,_ZNSt3__113__atomic_baseIiLb1EE9fetch_subEiNS_12memory_orderE
FN:1787,_ZNSt3__16atomicIiEC1Ei
FNDA:0,_ZNSt3__16atomicIiEC1Ei
FN:1787,_ZNSt3__16atomicIiEC2Ei
FNDA:0,_ZNSt3__16atomicIiEC2Ei
DA:954,0
DA:955,0
DA:1068,0
DA:1069,0
DA:1484,0
DA:1485,0
DA:1672,0
DA:1704,0
DA:1716,0
DA:1717,0
DA:1787,0
FNF:9
FNH:0
LF:11
LH:0
end_of_record
SF:/Library/Developer/CommandLineTools/SDKs/MacOSX11.3.sdk/usr/include/c++/v1/sstream
FN:241,_ZNSt3__115basic_stringbufIcNS_11char_traitsIcEENS_9allocatorIcEEEC1Ej
FNDA:45,_ZNSt3__115basic_stringbufIcNS_11char_traitsIcEENS_9allocatorIcEEEC1Ej
FN:241,_ZNSt3__115basic_stringbufIcNS_11char_traitsIcEENS_9allocatorIcEEEC2Ej
FNDA:45,_ZNSt3__115basic_stringbufIcNS_11char_traitsIcEENS_9allocatorIcEEEC2Ej
FN:438,_ZNKSt3__115basic_stringbufIcNS_11char_traitsIcEENS_9allocatorIcEEE3strEv
FNDA:0,_ZNKSt3__115basic_stringbufIcNS_11char_traitsIcEENS_9allocatorIcEEE3strEv
FN:486,_ZNSt3__115basic_stringbufIcNS_11char_traitsIcEENS_9allocatorIcEEE9underflowEv
FNDA:0,_ZNSt3__115basic_stringbufIcNS_11char_traitsIcEENS_9allocatorIcEEE9underflowEv
FN:502,_ZNSt3__115basic_stringbufIcNS_11char_traitsIcEENS_9allocatorIcEEE9pbackfailEi
FNDA:0,_ZNSt3__115basic_stringbufIcNS_11char_traitsIcEENS_9allocatorIcEEE9pbackfailEi
FN:526,_ZNSt3__115basic_stringbufIcNS_11char_traitsIcEENS_9allocatorIcEEE8overflowEi
FNDA:0,_ZNSt3__115basic_stringbufIcNS_11char_traitsIcEENS_9allocatorIcEEE8overflowEi
FN:568,_ZNSt3__115basic_stringbufIcNS_11char_traitsIcEENS_9allocatorIcEEE7seekoffExNS_8ios_base7seekdirEj
FNDA:0,_ZNSt3__115basic_stringbufIcNS_11char_traitsIcEENS_9allocatorIcEEE7seekoffExNS_8ios_base7seekdirEj
FN:620,_ZNSt3__115basic_stringbufIcNS_11char_traitsIcEENS_9allocatorIcEEE7seekposENS_4fposI11__mbstate_tEEj
FNDA:0,_ZNSt3__115basic_stringbufIcNS_11char_traitsIcEENS_9allocatorIcEEE7seekposENS_4fposI11__mbstate_tEEj
FN:789,_ZNSt3__119basic_ostringstreamIcNS_11char_traitsIcEENS_9allocatorIcEEEC1Ej
FNDA:0,_ZNSt3__119basic_ostringstreamIcNS_11char_traitsIcEENS_9allocatorIcEEEC1Ej
FN:850,_ZNKSt3__119basic_ostringstreamIcNS_11char_traitsIcEENS_9allocatorIcEEE3strEv
FNDA:0,_ZNKSt3__119basic_ostringstreamIcNS_11char_traitsIcEENS_9allocatorIcEEE3strEv
FN:908,_ZNSt3__118basic_stringstreamIcNS_11char_traitsIcEENS_9allocatorIcEEEC1Ej
FNDA:45,_ZNSt3__118basic_stringstreamIcNS_11char_traitsIcEENS_9allocatorIcEEEC1Ej
FN:969,_ZNKSt3__118basic_stringstreamIcNS_11char_traitsIcEENS_9allocatorIcEEE3strEv
FNDA:45,_ZNKSt3__118basic_stringstreamIcNS_11char_traitsIcEENS_9allocatorIcEEE3strEv
DA:212,90
DA:241,90
DA:242,45
DA:243,45
DA:244,135
DA:245,90
DA:438,0
DA:440,0
DA:442,0
DA:443,0
DA:444,0
DA:446,0
DA:447,0
DA:448,0
DA:449,0
DA:486,0
DA:488,0
DA:489,0
DA:490,0
DA:492,0
DA:493,0
DA:494,0
DA:495,0
DA:496,0
DA:497,0
DA:498,0
DA:502,0
DA:504,0
DA:505,0
DA:506,0
DA:508,0
DA:510,0
DA:511,0
DA:513,0
DA:514,0
DA:516,0
DA:517,0
DA:518,0
DA:520,0
DA:521,0
DA:522,0
DA:526,0
DA:528,0
DA:530,0
DA:531,0
DA:533,0
DA:534,0
DA:539,0
DA:540,0
DA:541,0
DA:542,0
DA:543,0
DA:544,0
DA:545,0
DA:546,0
DA:548,0
DA:551,0
DA:552,0
DA:554,0
DA:555,0
DA:556,0
DA:558,0
DA:559,0
DA:560,0
DA:561,0
DA:563,0
DA:564,0
DA:568,0
DA:572,0
DA:573,0
DA:574,0
DA:575,0
DA:576,0
DA:577,0
DA:578,0
DA:579,0
DA:581,0
DA:584,0
DA:585,0
DA:587,0
DA:588,0
DA:590,0
DA:591,0
DA:593,0
DA:594,0
DA:596,0
DA:598,0
DA:599,0
DA:600,0
DA:601,0
DA:603,0
DA:604,0
DA:605,0
DA:606,0
DA:607,0
DA:608,0
DA:609,0
DA:610,0
DA:612,0
DA:613,0
DA:614,0
DA:615,0
DA:616,0
DA:620,0
DA:623,0
DA:765,0
DA:789,0
DA:790,0
DA:791,0
DA:792,0
DA:793,0
DA:850,0
DA:852,0
DA:884,45
DA:908,45
DA:909,45
DA:910,45
DA:911,90
DA:912,45
DA:969,45
DA:971,45
FNF:12
FNH:4
LF:121
LH:14
end_of_record
SF:/Users/phil/Downloads/fractal/protocol/build/_deps/googletest-src/googletest/src/gtest-port.cc
FN:126,_ZN7testing8internal14GetThreadCountEv
FNDA:0,_ZN7testing8internal14GetThreadCountEv
FN:711,_ZN7testing8internal2RED2Ev
FNDA:0,_ZN7testing8internal2RED2Ev
FN:711,_ZN7testing8internal2RED1Ev
FNDA:0,_ZN7testing8internal2RED1Ev
FN:724,_ZN7testing8internal2RE9FullMatchEPKcRKS1_
FNDA:0,_ZN7testing8internal2RE9FullMatchEPKcRKS1_
FN:733,_ZN7testing8internal2RE12PartialMatchEPKcRKS1_
FNDA:0,_ZN7testing8internal2RE12PartialMatchEPKcRKS1_
FN:741,_ZN7testing8internal2RE4InitEPKc
FNDA:0,_ZN7testing8internal2RE4InitEPKc
FN:1023,_ZN7testing8internal18FormatFileLocationEPKci
FNDA:0,_ZN7testing8internal18FormatFileLocationEPKci
FN:1041,_ZN7testing8internal37FormatCompilerIndependentFileLocationEPKci
FNDA:0,_ZN7testing8internal37FormatCompilerIndependentFileLocationEPKci
FN:1051,_ZN7testing8internal8GTestLogC1ENS0_16GTestLogSeverityEPKci
FNDA:0,_ZN7testing8internal8GTestLogC1ENS0_16GTestLogSeverityEPKci
FN:1051,_ZN7testing8internal8GTestLogC2ENS0_16GTestLogSeverityEPKci
FNDA:0,_ZN7testing8internal8GTestLogC2ENS0_16GTestLogSeverityEPKci
FN:1062,_ZN7testing8internal8GTestLogD1Ev
FNDA:0,_ZN7testing8internal8GTestLogD1Ev
FN:1062,_ZN7testing8internal8GTestLogD2Ev
FNDA:0,_ZN7testing8internal8GTestLogD2Ev
FN:1080,_ZN7testing8internal14CapturedStreamC1Ei
FNDA:0,_ZN7testing8internal14CapturedStreamC1Ei
FN:1080,_ZN7testing8internal14CapturedStreamC2Ei
FNDA:0,_ZN7testing8internal14CapturedStreamC2Ei
FN:1159,_ZN7testing8internal14CapturedStreamD1Ev
FNDA:0,_ZN7testing8internal14CapturedStreamD1Ev
FN:1159,_ZN7testing8internal14CapturedStreamD2Ev
FNDA:0,_ZN7testing8internal14CapturedStreamD2Ev
FN:1163,_ZN7testing8internal14CapturedStream17GetCapturedStringEv
FNDA:0,_ZN7testing8internal14CapturedStream17GetCapturedStringEv
FN:1197,_ZN7testing8internalL13CaptureStreamEiPKcPPNS0_14CapturedStreamE
FNDA:0,_ZN7testing8internalL13CaptureStreamEiPKcPPNS0_14CapturedStreamE
FN:1207,_ZN7testing8internalL17GetCapturedStreamEPPNS0_14CapturedStreamE
FNDA:0,_ZN7testing8internalL17GetCapturedStreamEPPNS0_14CapturedStreamE
FN:1217,_ZN7testing8internal13CaptureStdoutEv
FNDA:0,_ZN7testing8internal13CaptureStdoutEv
FN:1222,_ZN7testing8internal13CaptureStderrEv
FNDA:0,_ZN7testing8internal13CaptureStderrEv
FN:1227,_ZN7testing8internal17GetCapturedStdoutEv
FNDA:0,_ZN7testing8internal17GetCapturedStdoutEv
FN:1232,_ZN7testing8internal17GetCapturedStderrEv
FNDA:0,_ZN7testing8internal17GetCapturedStderrEv
FN:1242,_ZN7testing8internal11GetFileSizeEP7__sFILE
FNDA:0,_ZN7testing8internal11GetFileSizeEP7__sFILE
FN:1247,_ZN7testing8internal14ReadEntireFileEP7__sFILE
FNDA:0,_ZN7testing8internal14ReadEntireFileEP7__sFILE
FN:1273,_ZN7testing8internal18GetInjectableArgvsEv
FNDA:0,_ZN7testing8internal18GetInjectableArgvsEv
FN:1280,_ZN7testing8internal18SetInjectableArgvsEPKNSt3__16vectorINS1_12basic_stringIcNS1_11char_traitsIcEENS1_9allocatorIcEEEENS6_IS8_EEEE
FNDA:0,_ZN7testing8internal18SetInjectableArgvsEPKNSt3__16vectorINS1_12basic_stringIcNS1_11char_traitsIcEENS1_9allocatorIcEEEENS6_IS8_EEEE
FN:1285,_ZN7testing8internal18SetInjectableArgvsERKNSt3__16vectorINS1_12basic_stringIcNS1_11char_traitsIcEENS1_9allocatorIcEEEENS6_IS8_EEEE
FNDA:0,_ZN7testing8internal18SetInjectableArgvsERKNSt3__16vectorINS1_12basic_stringIcNS1_11char_traitsIcEENS1_9allocatorIcEEEENS6_IS8_EEEE
FN:1290,_ZN7testing8internal20ClearInjectableArgvsEv
FNDA:0,_ZN7testing8internal20ClearInjectableArgvsEv
FN:1308,_ZN7testing8internalL12FlagToEnvVarEPKc
FNDA:21,_ZN7testing8internalL12FlagToEnvVarEPKc
FN:1323,_ZN7testing8internal10ParseInt32ERKNS_7MessageEPKcPi
FNDA:0,_ZN7testing8internal10ParseInt32ERKNS_7MessageEPKcPi
FN:1365,_ZN7testing8internal16BoolFromGTestEnvEPKcb
FNDA:12,_ZN7testing8internal16BoolFromGTestEnvEPKcb
FN:1379,_ZN7testing8internal17Int32FromGTestEnvEPKci
FNDA:3,_ZN7testing8internal17Int32FromGTestEnvEPKci
FN:1411,_ZN7testing8internal25OutputFlagAlsoCheckEnvVarEv
FNDA:1,_ZN7testing8internal25OutputFlagAlsoCheckEnvVarEv
FN:1422,_ZN7testing8internal18StringFromGTestEnvEPKcS2_
FNDA:6,_ZN7testing8internal18StringFromGTestEnvEPKcS2_
DA:126,0
DA:127,0
DA:130,0
DA:131,0
DA:134,0
DA:135,0
DA:136,0
DA:137,0
DA:139,0
DA:141,0
DA:711,0
DA:712,0
DA:717,0
DA:718,0
DA:719,0
DA:720,0
DA:721,0
DA:724,0
DA:725,0
DA:728,0
DA:729,0
DA:733,0
DA:734,0
DA:737,0
DA:738,0
DA:741,0
DA:742,0
DA:746,0
DA:747,0
DA:749,0
DA:750,0
DA:759,0
DA:760,0
DA:761,0
DA:762,0
DA:763,0
DA:764,0
DA:765,0
DA:767,0
DA:768,0
DA:1023,0
DA:1024,0
DA:1026,0
DA:1027,0
DA:1032,0
DA:1034,0
DA:1041,0
DA:1043,0
DA:1045,0
DA:1046,0
DA:1048,0
DA:1049,0
DA:1051,0
DA:1052,0
DA:1053,0
DA:1054,0
DA:1055,0
DA:1056,0
DA:1057,0
DA:1058,0
DA:1059,0
DA:1062,0
DA:1063,0
DA:1064,0
DA:1065,0
DA:1066,0
DA:1068,0
DA:1080,0
DA:1099,0
DA:1136,0
DA:1138,0
DA:1146,0
DA:1147,0
DA:1148,0
DA:1149,0
DA:1150,0
DA:1151,0
DA:1152,0
DA:1154,0
DA:1155,0
DA:1156,0
DA:1157,0
DA:1159,0
DA:1160,0
DA:1161,0
DA:1163,0
DA:1164,0
DA:1166,0
DA:1167,0
DA:1168,0
DA:1169,0
DA:1170,0
DA:1172,0
DA:1173,0
DA:1174,0
DA:1175,0
DA:1176,0
DA:1177,0
DA:1178,0
DA:1179,0
DA:1180,0
DA:1197,0
DA:1199,0
DA:1200,0
DA:1201,0
DA:1202,0
DA:1203,0
DA:1204,0
DA:1207,0
DA:1208,0
DA:1210,0
DA:1211,0
DA:1213,0
DA:1214,0
DA:1217,0
DA:1218,0
DA:1219,0
DA:1222,0
DA:1223,0
DA:1224,0
DA:1227,0
DA:1228,0
DA:1232,0
DA:1233,0
DA:1242,0
DA:1243,0
DA:1244,0
DA:1247,0
DA:1248,0
DA:1249,0
DA:1251,0
DA:1252,0
DA:1254,0
DA:1258,0
DA:1259,0
DA:1260,0
DA:1261,0
DA:1263,0
DA:1264,0
DA:1266,0
DA:1267,0
DA:1273,0
DA:1274,0
DA:1275,0
DA:1277,0
DA:1278,0
DA:1280,0
DA:1281,0
DA:1282,0
DA:1283,0
DA:1285,0
DA:1286,0
DA:1287,0
DA:1288,0
DA:1290,0
DA:1291,0
DA:1292,0
DA:1293,0
DA:1308,21
DA:1310,21
DA:1312,21
DA:1313,435
DA:1314,414
DA:1315,414
DA:1317,21
DA:1318,21
DA:1323,0
DA:1325,0
DA:1326,0
DA:1329,0
DA:1331,0
DA:1332,0
DA:1333,0
DA:1334,0
DA:1335,0
DA:1336,0
DA:1337,0
DA:1338,0
DA:1341,0
DA:1342,0
DA:1345,0
DA:1348,0
DA:1349,0
DA:1350,0
DA:1351,0
DA:1352,0
DA:1353,0
DA:1354,0
DA:1355,0
DA:1357,0
DA:1358,0
DA:1359,0
DA:1365,12
DA:1369,12
DA:1370,12
DA:1371,12
DA:1372,0
DA:1374,12
DA:1379,3
DA:1383,3
DA:1384,3
DA:1385,3
DA:1387,3
DA:1390,0
DA:1391,0
DA:1392,0
DA:1393,0
DA:1394,0
DA:1395,0
DA:1396,0
DA:1399,0
DA:1401,3
DA:1411,1
DA:1412,1
DA:1413,1
DA:1414,1
DA:1415,0
DA:1416,0
DA:1417,0
DA:1418,0
DA:1422,6
DA:1426,6
DA:1427,6
DA:1428,6
DA:1430,6
FNF:35
FNH:5
LF:225
LH:28
end_of_record
SF:/Library/Developer/CommandLineTools/SDKs/MacOSX11.3.sdk/usr/include/c++/v1/tuple
FN:231,_ZNSt3__112__tuple_leafILm0ERKNS_12basic_stringIcNS_11char_traitsIcEENS_9allocatorIcEEEELb0EEC2IS8_vEEOT_
FNDA:0,_ZNSt3__112__tuple_leafILm0ERKNS_12basic_stringIcNS_11char_traitsIcEENS_9allocatorIcEEEELb0EEC2IS8_vEEOT_
FN:231,_ZNSt3__112__tuple_leafILm0EPKN7testing8internal11MatcherBaseIRKNS_12basic_stringIcNS_11char_traitsIcEENS_9allocatorIcEEEEEELb0EEC2ISE_vEEOT_
FNDA:0,_ZNSt3__112__tuple_leafILm0EPKN7testing8internal11MatcherBaseIRKNS_12basic_stringIcNS_11char_traitsIcEENS_9allocatorIcEEEEEELb0EEC2ISE_vEEOT_
FN:231,_ZNSt3__112__tuple_leafILm1EPKN7testing8internal9EqMatcherINS_12basic_stringIcNS_11char_traitsIcEENS_9allocatorIcEEEEEELb0EEC2ISC_vEEOT_
FNDA:0,_ZNSt3__112__tuple_leafILm1EPKN7testing8internal9EqMatcherINS_12basic_stringIcNS_11char_traitsIcEENS_9allocatorIcEEEEEELb0EEC2ISC_vEEOT_
FN:231,_ZNSt3__112__tuple_leafILm0EPKN7testing8internal11MatcherBaseINS_12basic_stringIcNS_11char_traitsIcEENS_9allocatorIcEEEEEELb0EEC2ISC_vEEOT_
FNDA:0,_ZNSt3__112__tuple_leafILm0EPKN7testing8internal11MatcherBaseINS_12basic_stringIcNS_11char_traitsIcEENS_9allocatorIcEEEEEELb0EEC2ISC_vEEOT_
FN:276,_ZNSt3__112__tuple_leafILm0ERKNS_12basic_stringIcNS_11char_traitsIcEENS_9allocatorIcEEEELb0EE3getEv
FNDA:0,_ZNSt3__112__tuple_leafILm0ERKNS_12basic_stringIcNS_11char_traitsIcEENS_9allocatorIcEEEELb0EE3getEv
FN:276,_ZNSt3__112__tuple_leafILm0EPKN7testing8internal11MatcherBaseIRKNS_12basic_stringIcNS_11char_traitsIcEENS_9allocatorIcEEEEEELb0EE3getEv
FNDA:0,_ZNSt3__112__tuple_leafILm0EPKN7testing8internal11MatcherBaseIRKNS_12basic_stringIcNS_11char_traitsIcEENS_9allocatorIcEEEEEELb0EE3getEv
FN:276,_ZNSt3__112__tuple_leafILm0EPKN7testing8internal11MatcherBaseINS_12basic_stringIcNS_11char_traitsIcEENS_9allocatorIcEEEEEELb0EE3getEv
FNDA:0,_ZNSt3__112__tuple_leafILm0EPKN7testing8internal11MatcherBaseINS_12basic_stringIcNS_11char_traitsIcEENS_9allocatorIcEEEEEELb0EE3getEv
FN:383,_ZNSt3__112__tuple_implINS_15__tuple_indicesIJLm0EEEEJRKNS_12basic_stringIcNS_11char_traitsIcEENS_9allocatorIcEEEEEEC1IJLm0EEJSA_EJEJEJSA_EEENS1_IJXspT_EEEENS_13__tuple_typesIJDpT0_EEENS1_IJXspT1_EEEENSE_IJDpT2_EEEDpOT3_
FNDA:0,_ZNSt3__112__tuple_implINS_15__tuple_indicesIJLm0EEEEJRKNS_12basic_stringIcNS_11char_traitsIcEENS_9allocatorIcEEEEEEC1IJLm0EEJSA_EJEJEJSA_EEENS1_IJXspT_EEEENS_13__tuple_typesIJDpT0_EEENS1_IJXspT1_EEEENSE_IJDpT2_EEEDpOT3_
FN:383,_ZNSt3__112__tuple_implINS_15__tuple_indicesIJLm0EEEEJRKNS_12basic_stringIcNS_11char_traitsIcEENS_9allocatorIcEEEEEEC2IJLm0EEJSA_EJEJEJSA_EEENS1_IJXspT_EEEENS_13__tuple_typesIJDpT0_EEENS1_IJXspT1_EEEENSE_IJDpT2_EEEDpOT3_
FNDA:0,_ZNSt3__112__tuple_implINS_15__tuple_indicesIJLm0EEEEJRKNS_12basic_stringIcNS_11char_traitsIcEENS_9allocatorIcEEEEEEC2IJLm0EEJSA_EJEJEJSA_EEENS1_IJXspT_EEEENS_13__tuple_typesIJDpT0_EEENS1_IJXspT1_EEEENSE_IJDpT2_EEEDpOT3_
FN:383,_ZNSt3__112__tuple_implINS_15__tuple_indicesIJLm0ELm1EEEEJPKN7testing8internal11MatcherBaseIRKNS_12basic_stringIcNS_11char_traitsIcEENS_9allocatorIcEEEEEEPKNS4_9EqMatcherISB_EEEEC1IJLm0ELm1EEJSG_SK_EJEJEJSG_SK_EEENS1_IJXspT_EEEENS_13__tuple_typesIJDpT0_EEENS1_IJXspT1_EEEENSO_IJDpT2_EEEDpOT3_
FNDA:0,_ZNSt3__112__tuple_implINS_15__tuple_indicesIJLm0ELm1EEEEJPKN7testing8internal11MatcherBaseIRKNS_12basic_stringIcNS_11char_traitsIcEENS_9allocatorIcEEEEEEPKNS4_9EqMatcherISB_EEEEC1IJLm0ELm1EEJSG_SK_EJEJEJSG_SK_EEENS1_IJXspT_EEEENS_13__tuple_typesIJDpT0_EEENS1_IJXspT1_EEEENSO_IJDpT2_EEEDpOT3_
FN:383,_ZNSt3__112__tuple_implINS_15__tuple_indicesIJLm0ELm1EEEEJPKN7testing8internal11MatcherBaseIRKNS_12basic_stringIcNS_11char_traitsIcEENS_9allocatorIcEEEEEEPKNS4_9EqMatcherISB_EEEEC2IJLm0ELm1EEJSG_SK_EJEJEJSG_SK_EEENS1_IJXspT_EEEENS_13__tuple_typesIJDpT0_EEENS1_IJXspT1_EEEENSO_IJDpT2_EEEDpOT3_
FNDA:0,_ZNSt3__112__tuple_implINS_15__tuple_indicesIJLm0ELm1EEEEJPKN7testing8internal11MatcherBaseIRKNS_12basic_stringIcNS_11char_traitsIcEENS_9allocatorIcEEEEEEPKNS4_9EqMatcherISB_EEEEC2IJLm0ELm1EEJSG_SK_EJEJEJSG_SK_EEENS1_IJXspT_EEEENS_13__tuple_typesIJDpT0_EEENS1_IJXspT1_EEEENSO_IJDpT2_EEEDpOT3_
FN:383,_ZNSt3__112__tuple_implINS_15__tuple_indicesIJLm0ELm1EEEEJPKN7testing8internal11MatcherBaseINS_12basic_stringIcNS_11char_traitsIcEENS_9allocatorIcEEEEEEPKNS4_9EqMatcherISB_EEEEC1IJLm0ELm1EEJSE_SI_EJEJEJSE_SI_EEENS1_IJXspT_EEEENS_13__tuple_typesIJDpT0_EEENS1_IJXspT1_EEEENSM_IJDpT2_EEEDpOT3_
FNDA:0,_ZNSt3__112__tuple_implINS_15__tuple_indicesIJLm0ELm1EEEEJPKN7testing8internal11MatcherBaseINS_12basic_stringIcNS_11char_traitsIcEENS_9allocatorIcEEEEEEPKNS4_9EqMatcherISB_EEEEC1IJLm0ELm1EEJSE_SI_EJEJEJSE_SI_EEENS1_IJXspT_EEEENS_13__tuple_typesIJDpT0_EEENS1_IJXspT1_EEEENSM_IJDpT2_EEEDpOT3_
FN:383,_ZNSt3__112__tuple_implINS_15__tuple_indicesIJLm0ELm1EEEEJPKN7testing8internal11MatcherBaseINS_12basic_stringIcNS_11char_traitsIcEENS_9allocatorIcEEEEEEPKNS4_9EqMatcherISB_EEEEC2IJLm0ELm1EEJSE_SI_EJEJEJSE_SI_EEENS1_IJXspT_EEEENS_13__tuple_typesIJDpT0_EEENS1_IJXspT1_EEEENSM_IJDpT2_EEEDpOT3_
FNDA:0,_ZNSt3__112__tuple_implINS_15__tuple_indicesIJLm0ELm1EEEEJPKN7testing8internal11MatcherBaseINS_12basic_stringIcNS_11char_traitsIcEENS_9allocatorIcEEEEEEPKNS4_9EqMatcherISB_EEEEC2IJLm0ELm1EEJSE_SI_EJEJEJSE_SI_EEENS1_IJXspT_EEEENS_13__tuple_typesIJDpT0_EEENS1_IJXspT1_EEEENSM_IJDpT2_EEEDpOT3_
FN:701,_ZNSt3__15tupleIJRKNS_12basic_stringIcNS_11char_traitsIcEENS_9allocatorIcEEEEEEC1ILb1ELb0EEES8_
FNDA:0,_ZNSt3__15tupleIJRKNS_12basic_stringIcNS_11char_traitsIcEENS_9allocatorIcEEEEEEC1ILb1ELb0EEES8_
FN:701,_ZNSt3__15tupleIJRKNS_12basic_stringIcNS_11char_traitsIcEENS_9allocatorIcEEEEEEC2ILb1ELb0EEES8_
FNDA:0,_ZNSt3__15tupleIJRKNS_12basic_stringIcNS_11char_traitsIcEENS_9allocatorIcEEEEEEC2ILb1ELb0EEES8_
FN:783,_ZNSt3__15tupleIJPKN7testing8internal11MatcherBaseIRKNS_12basic_stringIcNS_11char_traitsIcEENS_9allocatorIcEEEEEEPKNS2_9EqMatcherIS9_EEEEC1IJSE_SI_ELb0ELb0EEEDpOT_
FNDA:0,_ZNSt3__15tupleIJPKN7testing8internal11MatcherBaseIRKNS_12basic_stringIcNS_11char_traitsIcEENS_9allocatorIcEEEEEEPKNS2_9EqMatcherIS9_EEEEC1IJSE_SI_ELb0ELb0EEEDpOT_
FN:783,_ZNSt3__15tupleIJPKN7testing8internal11MatcherBaseIRKNS_12basic_stringIcNS_11char_traitsIcEENS_9allocatorIcEEEEEEPKNS2_9EqMatcherIS9_EEEEC2IJSE_SI_ELb0ELb0EEEDpOT_
FNDA:0,_ZNSt3__15tupleIJPKN7testing8internal11MatcherBaseIRKNS_12basic_stringIcNS_11char_traitsIcEENS_9allocatorIcEEEEEEPKNS2_9EqMatcherIS9_EEEEC2IJSE_SI_ELb0ELb0EEEDpOT_
FN:783,_ZNSt3__15tupleIJPKN7testing8internal11MatcherBaseINS_12basic_stringIcNS_11char_traitsIcEENS_9allocatorIcEEEEEEPKNS2_9EqMatcherIS9_EEEEC1IJSC_SG_ELb0ELb0EEEDpOT_
FNDA:0,_ZNSt3__15tupleIJPKN7testing8internal11MatcherBaseINS_12basic_stringIcNS_11char_traitsIcEENS_9allocatorIcEEEEEEPKNS2_9EqMatcherIS9_EEEEC1IJSC_SG_ELb0ELb0EEEDpOT_
FN:783,_ZNSt3__15tupleIJPKN7testing8internal11MatcherBaseINS_12basic_stringIcNS_11char_traitsIcEENS_9allocatorIcEEEEEEPKNS2_9EqMatcherIS9_EEEEC2IJSC_SG_ELb0ELb0EEEDpOT_
FNDA:0,_ZNSt3__15tupleIJPKN7testing8internal11MatcherBaseINS_12basic_stringIcNS_11char_traitsIcEENS_9allocatorIcEEEEEEPKNS2_9EqMatcherIS9_EEEEC2IJSC_SG_ELb0ELb0EEEDpOT_
FN:1008,_ZNSt3__1L3getILm0EJRKNS_12basic_stringIcNS_11char_traitsIcEENS_9allocatorIcEEEEEEERNS_13tuple_elementIXT_ENS_5tupleIJDpT0_EEEE4typeERSD_
FNDA:0,_ZNSt3__1L3getILm0EJRKNS_12basic_stringIcNS_11char_traitsIcEENS_9allocatorIcEEEEEEERNS_13tuple_elementIXT_ENS_5tupleIJDpT0_EEEE4typeERSD_
FN:1026,_ZNSt3__1L3getILm0EJPKN7testing8internal11MatcherBaseIRKNS_12basic_stringIcNS_11char_traitsIcEENS_9allocatorIcEEEEEEPKNS2_9EqMatcherIS9_EEEEEONS_13tuple_elementIXT_ENS_5tupleIJDpT0_EEEE4typeEOSN_
FNDA:0,_ZNSt3__1L3getILm0EJPKN7testing8internal11MatcherBaseIRKNS_12basic_stringIcNS_11char_traitsIcEENS_9allocatorIcEEEEEEPKNS2_9EqMatcherIS9_EEEEEONS_13tuple_elementIXT_ENS_5tupleIJDpT0_EEEE4typeEOSN_
FN:1026,_ZNSt3__1L3getILm0EJPKN7testing8internal11MatcherBaseINS_12basic_stringIcNS_11char_traitsIcEENS_9allocatorIcEEEEEEPKNS2_9EqMatcherIS9_EEEEEONS_13tuple_elementIXT_ENS_5tupleIJDpT0_EEEE4typeEOSL_
FNDA:0,_ZNSt3__1L3getILm0EJPKN7testing8internal11MatcherBaseINS_12basic_stringIcNS_11char_traitsIcEENS_9allocatorIcEEEEEEPKNS2_9EqMatcherIS9_EEEEEONS_13tuple_elementIXT_ENS_5tupleIJDpT0_EEEE4typeEOSL_
FN:1138,_ZNSt3__1L10make_tupleIJPKN7testing8internal11MatcherBaseIRKNS_12basic_stringIcNS_11char_traitsIcEENS_9allocatorIcEEEEEEPKNS2_9EqMatcherIS9_EEEEENS_5tupleIJDpNS_18__unwrap_ref_decayIT_E4typeEEEEDpOSL_
FNDA:0,_ZNSt3__1L10make_tupleIJPKN7testing8internal11MatcherBaseIRKNS_12basic_stringIcNS_11char_traitsIcEENS_9allocatorIcEEEEEEPKNS2_9EqMatcherIS9_EEEEENS_5tupleIJDpNS_18__unwrap_ref_decayIT_E4typeEEEEDpOSL_
FN:1138,_ZNSt3__1L10make_tupleIJPKN7testing8internal11MatcherBaseINS_12basic_stringIcNS_11char_traitsIcEENS_9allocatorIcEEEEEEPKNS2_9EqMatcherIS9_EEEEENS_5tupleIJDpNS_18__unwrap_ref_decayIT_E4typeEEEEDpOSJ_
FNDA:0,_ZNSt3__1L10make_tupleIJPKN7testing8internal11MatcherBaseINS_12basic_stringIcNS_11char_traitsIcEENS_9allocatorIcEEEEEEPKNS2_9EqMatcherIS9_EEEEENS_5tupleIJDpNS_18__unwrap_ref_decayIT_E4typeEEEEDpOSJ_
FN:1146,_ZNSt3__1L16forward_as_tupleIJRKNS_12basic_stringIcNS_11char_traitsIcEENS_9allocatorIcEEEEEEENS_5tupleIJDpOT_EEESC_
FNDA:0,_ZNSt3__1L16forward_as_tupleIJRKNS_12basic_stringIcNS_11char_traitsIcEENS_9allocatorIcEEEEEEENS_5tupleIJDpOT_EEESC_
FN:1146,_ZNSt3__1L16forward_as_tupleIJEEENS_5tupleIJDpOT_EEES4_
FNDA:0,_ZNSt3__1L16forward_as_tupleIJEEENS_5tupleIJDpOT_EEES4_
FN:1397,_ZNSt3__14pairIKNS_12basic_stringIcNS_11char_traitsIcEENS_9allocatorIcEEEEmEC1IJRS7_EJEJLm0EEJEEENS_21piecewise_construct_tERNS_5tupleIJDpT_EEERNSC_IJDpT0_EEENS_15__tuple_indicesIJXspT1_EEEENSL_IJXspT2_EEEE
FNDA:0,_ZNSt3__14pairIKNS_12basic_stringIcNS_11char_traitsIcEENS_9allocatorIcEEEEmEC1IJRS7_EJEJLm0EEJEEENS_21piecewise_construct_tERNS_5tupleIJDpT_EEERNSC_IJDpT0_EEENS_15__tuple_indicesIJXspT1_EEEENSL_IJXspT2_EEEE
FN:1397,_ZNSt3__14pairIKNS_12basic_stringIcNS_11char_traitsIcEENS_9allocatorIcEEEEmEC2IJRS7_EJEJLm0EEJEEENS_21piecewise_construct_tERNS_5tupleIJDpT_EEERNSC_IJDpT0_EEENS_15__tuple_indicesIJXspT1_EEEENSL_IJXspT2_EEEE
FNDA:0,_ZNSt3__14pairIKNS_12basic_stringIcNS_11char_traitsIcEENS_9allocatorIcEEEEmEC2IJRS7_EJEJLm0EEJEEENS_21piecewise_construct_tERNS_5tupleIJDpT_EEERNSC_IJDpT0_EEENS_15__tuple_indicesIJXspT1_EEEENSL_IJXspT2_EEEE
DA:231,0
DA:232,0
DA:234,0
DA:276,0
DA:383,0
DA:388,0
DA:390,0
DA:701,0
DA:702,0
DA:706,0
DA:707,0
DA:783,0
DA:793,0
DA:797,0
DA:1008,0
DA:1011,0
DA:1026,0
DA:1029,0
DA:1030,0
DA:1138,0
DA:1140,0
DA:1146,0
DA:1148,0
DA:1397,0
DA:1400,0
DA:1401,0
DA:1402,0
DA:1403,0
FNF:28
FNH:0
LF:28
LH:0
end_of_record
SF:/Library/Developer/CommandLineTools/SDKs/MacOSX11.3.sdk/usr/include/c++/v1/utility
FN:269,_ZNSt3__1L16move_if_noexceptINS_12basic_stringIcNS_11char_traitsIcEENS_9allocatorIcEEEEEENS_11conditionalIXaantsr29is_nothrow_move_constructibleIT_EE5valuesr21is_copy_constructibleIS8_EE5valueERKS8_OS8_E4typeERS8_
FNDA:1,_ZNSt3__1L16move_if_noexceptINS_12basic_stringIcNS_11char_traitsIcEENS_9allocatorIcEEEEEENS_11conditionalIXaantsr29is_nothrow_move_constructibleIT_EE5valuesr21is_copy_constructibleIS8_EE5valueERKS8_OS8_E4typeERS8_
FN:269,_ZNSt3__1L16move_if_noexceptIN7testing14TestPartResultEEENS_11conditionalIXaantsr29is_nothrow_move_constructibleIT_EE5valuesr21is_copy_constructibleIS4_EE5valueERKS4_OS4_E4typeERS4_
FNDA:0,_ZNSt3__1L16move_if_noexceptIN7testing14TestPartResultEEENS_11conditionalIXaantsr29is_nothrow_move_constructibleIT_EE5valuesr21is_copy_constructibleIS4_EE5valueERKS4_OS4_E4typeERS4_
FN:269,_ZNSt3__1L16move_if_noexceptIN7testing12TestPropertyEEENS_11conditionalIXaantsr29is_nothrow_move_constructibleIT_EE5valuesr21is_copy_constructibleIS4_EE5valueERKS4_OS4_E4typeERS4_
FNDA:0,_ZNSt3__1L16move_if_noexceptIN7testing12TestPropertyEEENS_11conditionalIXaantsr29is_nothrow_move_constructibleIT_EE5valuesr21is_copy_constructibleIS4_EE5valueERKS4_OS4_E4typeERS4_
FN:269,_ZNSt3__1L16move_if_noexceptIN7testing8internal9TraceInfoEEENS_11conditionalIXaantsr29is_nothrow_move_constructibleIT_EE5valuesr21is_copy_constructibleIS5_EE5valueERKS5_OS5_E4typeERS5_
FNDA:0,_ZNSt3__1L16move_if_noexceptIN7testing8internal9TraceInfoEEENS_11conditionalIXaantsr29is_nothrow_move_constructibleIT_EE5valuesr21is_copy_constructibleIS5_EE5valueERKS5_OS5_E4typeERS5_
FN:297,_ZNSt3__14pairIKNS_12basic_stringIcNS_11char_traitsIcEENS_9allocatorIcEEEEN7testing8internal34TypeParameterizedTestSuiteRegistry30TypeParameterizedTestSuiteInfoEED1Ev
FNDA:0,_ZNSt3__14pairIKNS_12basic_stringIcNS_11char_traitsIcEENS_9allocatorIcEEEEN7testing8internal34TypeParameterizedTestSuiteRegistry30TypeParameterizedTestSuiteInfoEED1Ev
FN:297,_ZNSt3__14pairIKNS_12basic_stringIcNS_11char_traitsIcEENS_9allocatorIcEEEEN7testing8internal34TypeParameterizedTestSuiteRegistry30TypeParameterizedTestSuiteInfoEED2Ev
FNDA:0,_ZNSt3__14pairIKNS_12basic_stringIcNS_11char_traitsIcEENS_9allocatorIcEEEEN7testing8internal34TypeParameterizedTestSuiteRegistry30TypeParameterizedTestSuiteInfoEED2Ev
FN:297,_ZNSt3__14pairIKNS_12basic_stringIcNS_11char_traitsIcEENS_9allocatorIcEEEEmED1Ev
FNDA:0,_ZNSt3__14pairIKNS_12basic_stringIcNS_11char_traitsIcEENS_9allocatorIcEEEEmED1Ev
FN:297,_ZNSt3__14pairIKNS_12basic_stringIcNS_11char_traitsIcEENS_9allocatorIcEEEEmED2Ev
FNDA:0,_ZNSt3__14pairIKNS_12basic_stringIcNS_11char_traitsIcEENS_9allocatorIcEEEEmED2Ev
FN:309,_ZNSt3__14pairIKNS_12basic_stringIcNS_11char_traitsIcEENS_9allocatorIcEEEEN7testing8internal34TypeParameterizedTestSuiteRegistry30TypeParameterizedTestSuiteInfoEEC1ERKSC_
FNDA:0,_ZNSt3__14pairIKNS_12basic_stringIcNS_11char_traitsIcEENS_9allocatorIcEEEEN7testing8internal34TypeParameterizedTestSuiteRegistry30TypeParameterizedTestSuiteInfoEEC1ERKSC_
FN:309,_ZNSt3__14pairIKNS_12basic_stringIcNS_11char_traitsIcEENS_9allocatorIcEEEEN7testing8internal34TypeParameterizedTestSuiteRegistry30TypeParameterizedTestSuiteInfoEEC2ERKSC_
FNDA:0,_ZNSt3__14pairIKNS_12basic_stringIcNS_11char_traitsIcEENS_9allocatorIcEEEEN7testing8internal34TypeParameterizedTestSuiteRegistry30TypeParameterizedTestSuiteInfoEEC2ERKSC_
FN:444,_ZNSt3__14pairINS_15__tree_iteratorINS_12__value_typeINS_12basic_stringIcNS_11char_traitsIcEENS_9allocatorIcEEEEmEEPNS_11__tree_nodeIS9_PvEElEEbEC1ISE_RbLb0EEEOT_OT0_
FNDA:0,_ZNSt3__14pairINS_15__tree_iteratorINS_12__value_typeINS_12basic_stringIcNS_11char_traitsIcEENS_9allocatorIcEEEEmEEPNS_11__tree_nodeIS9_PvEElEEbEC1ISE_RbLb0EEEOT_OT0_
FN:444,_ZNSt3__14pairINS_15__tree_iteratorINS_12__value_typeINS_12basic_stringIcNS_11char_traitsIcEENS_9allocatorIcEEEEmEEPNS_11__tree_nodeIS9_PvEElEEbEC2ISE_RbLb0EEEOT_OT0_
FNDA:0,_ZNSt3__14pairINS_15__tree_iteratorINS_12__value_typeINS_12basic_stringIcNS_11char_traitsIcEENS_9allocatorIcEEEEmEEPNS_11__tree_nodeIS9_PvEElEEbEC2ISE_RbLb0EEEOT_OT0_
FN:444,_ZNSt3__14pairIcPKcEC1IcRS2_Lb0EEEOT_OT0_
FNDA:0,_ZNSt3__14pairIcPKcEC1IcRS2_Lb0EEEOT_OT0_
FN:444,_ZNSt3__14pairIcPKcEC2IcRS2_Lb0EEEOT_OT0_
FNDA:0,_ZNSt3__14pairIcPKcEC2IcRS2_Lb0EEEOT_OT0_
FN:444,_ZNSt3__14pairINS_15__tree_iteratorINS_12basic_stringIcNS_11char_traitsIcEENS_9allocatorIcEEEEPNS_11__tree_nodeIS7_PvEElEEbEC1ISC_RbLb0EEEOT_OT0_
FNDA:0,_ZNSt3__14pairINS_15__tree_iteratorINS_12basic_stringIcNS_11char_traitsIcEENS_9allocatorIcEEEEPNS_11__tree_nodeIS7_PvEElEEbEC1ISC_RbLb0EEEOT_OT0_
FN:444,_ZNSt3__14pairINS_15__tree_iteratorINS_12basic_stringIcNS_11char_traitsIcEENS_9allocatorIcEEEEPNS_11__tree_nodeIS7_PvEElEEbEC2ISC_RbLb0EEEOT_OT0_
FNDA:0,_ZNSt3__14pairINS_15__tree_iteratorINS_12basic_stringIcNS_11char_traitsIcEENS_9allocatorIcEEEEPNS_11__tree_nodeIS7_PvEElEEbEC2ISC_RbLb0EEEOT_OT0_
FN:444,_ZNSt3__14pairINS_15__tree_iteratorINS_12__value_typeINS_12basic_stringIcNS_11char_traitsIcEENS_9allocatorIcEEEEN7testing8internal34TypeParameterizedTestSuiteRegistry30TypeParameterizedTestSuiteInfoEEEPNS_11__tree_nodeISD_PvEElEEbEC1ISI_RbLb0EEEOT_OT0_
FNDA:0,_ZNSt3__14pairINS_15__tree_iteratorINS_12__value_typeINS_12basic_stringIcNS_11char_traitsIcEENS_9allocatorIcEEEEN7testing8internal34TypeParameterizedTestSuiteRegistry30TypeParameterizedTestSuiteInfoEEEPNS_11__tree_nodeISD_PvEElEEbEC1ISI_RbLb0EEEOT_OT0_
FN:444,_ZNSt3__14pairIKNS_12basic_stringIcNS_11char_traitsIcEENS_9allocatorIcEEEEN7testing8internal34TypeParameterizedTestSuiteRegistry30TypeParameterizedTestSuiteInfoEEC1IS6_SB_Lb0EEEOT_OT0_
FNDA:0,_ZNSt3__14pairIKNS_12basic_stringIcNS_11char_traitsIcEENS_9allocatorIcEEEEN7testing8internal34TypeParameterizedTestSuiteRegistry30TypeParameterizedTestSuiteInfoEEC1IS6_SB_Lb0EEEOT_OT0_
FN:444,_ZNSt3__14pairIKNS_12basic_stringIcNS_11char_traitsIcEENS_9allocatorIcEEEEN7testing8internal34TypeParameterizedTestSuiteRegistry30TypeParameterizedTestSuiteInfoEEC2IS6_SB_Lb0EEEOT_OT0_
FNDA:0,_ZNSt3__14pairIKNS_12basic_stringIcNS_11char_traitsIcEENS_9allocatorIcEEEEN7testing8internal34TypeParameterizedTestSuiteRegistry30TypeParameterizedTestSuiteInfoEEC2IS6_SB_Lb0EEEOT_OT0_
FN:444,_ZNSt3__14pairINS_15__tree_iteratorINS_12__value_typeINS_12basic_stringIcNS_11char_traitsIcEENS_9allocatorIcEEEEN7testing8internal34TypeParameterizedTestSuiteRegistry30TypeParameterizedTestSuiteInfoEEEPNS_11__tree_nodeISD_PvEElEEbEC2ISI_RbLb0EEEOT_OT0_
FNDA:0,_ZNSt3__14pairINS_15__tree_iteratorINS_12__value_typeINS_12basic_stringIcNS_11char_traitsIcEENS_9allocatorIcEEEEN7testing8internal34TypeParameterizedTestSuiteRegistry30TypeParameterizedTestSuiteInfoEEEPNS_11__tree_nodeISD_PvEElEEbEC2ISI_RbLb0EEEOT_OT0_
FN:480,_ZNSt3__14pairINS_21__tree_const_iteratorINS_12basic_stringIcNS_11char_traitsIcEENS_9allocatorIcEEEEPNS_11__tree_nodeIS7_PvEElEEbEC1INS_15__tree_iteratorIS7_SB_lEEbLb0EEEONS0_IT_T0_EE
FNDA:0,_ZNSt3__14pairINS_21__tree_const_iteratorINS_12basic_stringIcNS_11char_traitsIcEENS_9allocatorIcEEEEPNS_11__tree_nodeIS7_PvEElEEbEC1INS_15__tree_iteratorIS7_SB_lEEbLb0EEEONS0_IT_T0_EE
FN:480,_ZNSt3__14pairINS_21__tree_const_iteratorINS_12basic_stringIcNS_11char_traitsIcEENS_9allocatorIcEEEEPNS_11__tree_nodeIS7_PvEElEEbEC2INS_15__tree_iteratorIS7_SB_lEEbLb0EEEONS0_IT_T0_EE
FNDA:0,_ZNSt3__14pairINS_21__tree_const_iteratorINS_12basic_stringIcNS_11char_traitsIcEENS_9allocatorIcEEEEPNS_11__tree_nodeIS7_PvEElEEbEC2INS_15__tree_iteratorIS7_SB_lEEbLb0EEEONS0_IT_T0_EE
FN:480,_ZNSt3__14pairINS_14__map_iteratorINS_15__tree_iteratorINS_12__value_typeINS_12basic_stringIcNS_11char_traitsIcEENS_9allocatorIcEEEEN7testing8internal34TypeParameterizedTestSuiteRegistry30TypeParameterizedTestSuiteInfoEEEPNS_11__tree_nodeISE_PvEElEEEEbEC1ISJ_bLb0EEEONS0_IT_T0_EE
FNDA:0,_ZNSt3__14pairINS_14__map_iteratorINS_15__tree_iteratorINS_12__value_typeINS_12basic_stringIcNS_11char_traitsIcEENS_9allocatorIcEEEEN7testing8internal34TypeParameterizedTestSuiteRegistry30TypeParameterizedTestSuiteInfoEEEPNS_11__tree_nodeISE_PvEElEEEEbEC1ISJ_bLb0EEEONS0_IT_T0_EE
FN:480,_ZNSt3__14pairINS_14__map_iteratorINS_15__tree_iteratorINS_12__value_typeINS_12basic_stringIcNS_11char_traitsIcEENS_9allocatorIcEEEEN7testing8internal34TypeParameterizedTestSuiteRegistry30TypeParameterizedTestSuiteInfoEEEPNS_11__tree_nodeISE_PvEElEEEEbEC2ISJ_bLb0EEEONS0_IT_T0_EE
FNDA:0,_ZNSt3__14pairINS_14__map_iteratorINS_15__tree_iteratorINS_12__value_typeINS_12basic_stringIcNS_11char_traitsIcEENS_9allocatorIcEEEEN7testing8internal34TypeParameterizedTestSuiteRegistry30TypeParameterizedTestSuiteInfoEEEPNS_11__tree_nodeISE_PvEElEEEEbEC2ISJ_bLb0EEEONS0_IT_T0_EE
FN:503,_ZNSt3__14pairIKNS_12basic_stringIcNS_11char_traitsIcEENS_9allocatorIcEEEEmEC1IJRS7_EJEEENS_21piecewise_construct_tENS_5tupleIJDpT_EEENSC_IJDpT0_EEE
FNDA:0,_ZNSt3__14pairIKNS_12basic_stringIcNS_11char_traitsIcEENS_9allocatorIcEEEEmEC1IJRS7_EJEEENS_21piecewise_construct_tENS_5tupleIJDpT_EEENSC_IJDpT0_EEE
FN:664,_ZNSt3__1L9make_pairIcRPKcEENS_4pairINS_18__unwrap_ref_decayIT_E4typeENS5_IT0_E4typeEEEOS6_OS9_
FNDA:0,_ZNSt3__1L9make_pairIcRPKcEENS_4pairINS_18__unwrap_ref_decayIT_E4typeENS5_IT0_E4typeEEEOS6_OS9_
DA:269,1
DA:271,1
DA:309,0
DA:444,0
DA:447,0
DA:480,0
DA:483,0
DA:503,0
DA:507,0
DA:509,0
DA:664,0
DA:666,0
DA:667,0
FNF:26
FNH:1
LF:13
LH:2
end_of_record
SF:/Library/Developer/CommandLineTools/SDKs/MacOSX11.3.sdk/usr/include/c++/v1/iterator
FN:658,_ZNSt3__1L9__advanceINS_11__wrap_iterIPcEEEEvRT_NS_15iterator_traitsIS4_E15difference_typeENS_26random_access_iterator_tagE
FNDA:6,_ZNSt3__1L9__advanceINS_11__wrap_iterIPcEEEEvRT_NS_15iterator_traitsIS4_E15difference_typeENS_26random_access_iterator_tagE
FN:666,_ZNSt3__1L7advanceINS_11__wrap_iterIPcEElEEvRT_T0_
FNDA:6,_ZNSt3__1L7advanceINS_11__wrap_iterIPcEElEEvRT_T0_
FN:689,_ZNSt3__1L10__distanceIPKPKcEENS_15iterator_traitsIT_E15difference_typeES6_S6_NS_26random_access_iterator_tagE
FNDA:0,_ZNSt3__1L10__distanceIPKPKcEENS_15iterator_traitsIT_E15difference_typeES6_S6_NS_26random_access_iterator_tagE
FN:689,_ZNSt3__1L10__distanceINS_13move_iteratorIPPcEEEENS_15iterator_traitsIT_E15difference_typeES6_S6_NS_26random_access_iterator_tagE
FNDA:0,_ZNSt3__1L10__distanceINS_13move_iteratorIPPcEEEENS_15iterator_traitsIT_E15difference_typeES6_S6_NS_26random_access_iterator_tagE
FN:689,_ZNSt3__1L10__distanceIPKcEENS_15iterator_traitsIT_E15difference_typeES4_S4_NS_26random_access_iterator_tagE
FNDA:0,_ZNSt3__1L10__distanceIPKcEENS_15iterator_traitsIT_E15difference_typeES4_S4_NS_26random_access_iterator_tagE
FN:689,_ZNSt3__1L10__distanceIPcEENS_15iterator_traitsIT_E15difference_typeES3_S3_NS_26random_access_iterator_tagE
FNDA:0,_ZNSt3__1L10__distanceIPcEENS_15iterator_traitsIT_E15difference_typeES3_S3_NS_26random_access_iterator_tagE
FN:689,_ZNSt3__1L10__distanceINS_13move_iteratorIPPN7testing9TestSuiteEEEEENS_15iterator_traitsIT_E15difference_typeES8_S8_NS_26random_access_iterator_tagE
FNDA:0,_ZNSt3__1L10__distanceINS_13move_iteratorIPPN7testing9TestSuiteEEEEENS_15iterator_traitsIT_E15difference_typeES8_S8_NS_26random_access_iterator_tagE
FN:689,_ZNSt3__1L10__distanceINS_11__wrap_iterIPKNS_12basic_stringIcNS_11char_traitsIcEENS_9allocatorIcEEEEEEEENS_15iterator_traitsIT_E15difference_typeESC_SC_NS_26random_access_iterator_tagE
FNDA:0,_ZNSt3__1L10__distanceINS_11__wrap_iterIPKNS_12basic_stringIcNS_11char_traitsIcEENS_9allocatorIcEEEEEEEENS_15iterator_traitsIT_E15difference_typeESC_SC_NS_26random_access_iterator_tagE
FN:697,_ZNSt3__1L8distanceIPKPKcEENS_15iterator_traitsIT_E15difference_typeES6_S6_
FNDA:0,_ZNSt3__1L8distanceIPKPKcEENS_15iterator_traitsIT_E15difference_typeES6_S6_
FN:697,_ZNSt3__1L8distanceINS_13move_iteratorIPPcEEEENS_15iterator_traitsIT_E15difference_typeES6_S6_
FNDA:0,_ZNSt3__1L8distanceINS_13move_iteratorIPPcEEEENS_15iterator_traitsIT_E15difference_typeES6_S6_
FN:697,_ZNSt3__1L8distanceIPKcEENS_15iterator_traitsIT_E15difference_typeES4_S4_
FNDA:0,_ZNSt3__1L8distanceIPKcEENS_15iterator_traitsIT_E15difference_typeES4_S4_
FN:697,_ZNSt3__1L8distanceIPcEENS_15iterator_traitsIT_E15difference_typeES3_S3_
FNDA:0,_ZNSt3__1L8distanceIPcEENS_15iterator_traitsIT_E15difference_typeES3_S3_
FN:697,_ZNSt3__1L8distanceINS_13move_iteratorIPPN7testing9TestSuiteEEEEENS_15iterator_traitsIT_E15difference_typeES8_S8_
FNDA:0,_ZNSt3__1L8distanceINS_13move_iteratorIPPN7testing9TestSuiteEEEEENS_15iterator_traitsIT_E15difference_typeES8_S8_
FN:697,_ZNSt3__1L8distanceINS_11__wrap_iterIPKNS_12basic_stringIcNS_11char_traitsIcEENS_9allocatorIcEEEEEEEENS_15iterator_traitsIT_E15difference_typeESC_SC_
FNDA:0,_ZNSt3__1L8distanceINS_11__wrap_iterIPKNS_12basic_stringIcNS_11char_traitsIcEENS_9allocatorIcEEEEEEEENS_15iterator_traitsIT_E15difference_typeESC_SC_
FN:726,_ZNSt3__1L4prevINS_11__wrap_iterIPcEEEENS_9enable_ifIXsr25__is_cpp17_input_iteratorIT_EE5valueES5_E4typeES5_NS_15iterator_traitsIS5_E15difference_typeE
FNDA:6,_ZNSt3__1L4prevINS_11__wrap_iterIPcEEEENS_9enable_ifIXsr25__is_cpp17_input_iteratorIT_EE5valueES5_E4typeES5_NS_15iterator_traitsIS5_E15difference_typeE
FN:769,_ZNSt3__116reverse_iteratorINS_11__wrap_iterIPPN7testing9TestSuiteEEEEC1ES6_
FNDA:12,_ZNSt3__116reverse_iteratorINS_11__wrap_iterIPPN7testing9TestSuiteEEEEC1ES6_
FN:769,_ZNSt3__116reverse_iteratorINS_11__wrap_iterIPPN7testing9TestSuiteEEEEC2ES6_
FNDA:12,_ZNSt3__116reverse_iteratorINS_11__wrap_iterIPPN7testing9TestSuiteEEEEC2ES6_
FN:769,_ZNSt3__116reverse_iteratorINS_11__wrap_iterIPPN7testing11EnvironmentEEEEC1ES6_
FNDA:0,_ZNSt3__116reverse_iteratorINS_11__wrap_iterIPPN7testing11EnvironmentEEEEC1ES6_
FN:769,_ZNSt3__116reverse_iteratorINS_11__wrap_iterIPPN7testing11EnvironmentEEEEC2ES6_
FNDA:0,_ZNSt3__116reverse_iteratorINS_11__wrap_iterIPPN7testing11EnvironmentEEEEC2ES6_
FN:778,_ZNKSt3__116reverse_iteratorINS_11__wrap_iterIPPN7testing9TestSuiteEEEE4baseEv
FNDA:16,_ZNKSt3__116reverse_iteratorINS_11__wrap_iterIPPN7testing9TestSuiteEEEE4baseEv
FN:778,_ZNKSt3__116reverse_iteratorINS_11__wrap_iterIPPN7testing11EnvironmentEEEE4baseEv
FNDA:0,_ZNKSt3__116reverse_iteratorINS_11__wrap_iterIPPN7testing11EnvironmentEEEE4baseEv
FN:780,_ZNKSt3__116reverse_iteratorINS_11__wrap_iterIPPN7testing9TestSuiteEEEEdeEv
FNDA:6,_ZNKSt3__116reverse_iteratorINS_11__wrap_iterIPPN7testing9TestSuiteEEEEdeEv
FN:780,_ZNKSt3__116reverse_iteratorINS_11__wrap_iterIPPN7testing11EnvironmentEEEEdeEv
FNDA:0,_ZNKSt3__116reverse_iteratorINS_11__wrap_iterIPPN7testing11EnvironmentEEEEdeEv
FN:784,_ZNSt3__116reverse_iteratorINS_11__wrap_iterIPPN7testing9TestSuiteEEEEppEv
FNDA:0,_ZNSt3__116reverse_iteratorINS_11__wrap_iterIPPN7testing9TestSuiteEEEEppEv
FN:784,_ZNSt3__116reverse_iteratorINS_11__wrap_iterIPPN7testing11EnvironmentEEEEppEv
FNDA:0,_ZNSt3__116reverse_iteratorINS_11__wrap_iterIPPN7testing11EnvironmentEEEEppEv
FN:822,_ZNSt3__1neINS_11__wrap_iterIPPN7testing9TestSuiteEEES6_EEbRKNS_16reverse_iteratorIT_EERKNS7_IT0_EE
FNDA:8,_ZNSt3__1neINS_11__wrap_iterIPPN7testing9TestSuiteEEES6_EEbRKNS_16reverse_iteratorIT_EERKNS7_IT0_EE
FN:822,_ZNSt3__1neINS_11__wrap_iterIPPN7testing11EnvironmentEEES6_EEbRKNS_16reverse_iteratorIT_EERKNS7_IT0_EE
FNDA:0,_ZNSt3__1neINS_11__wrap_iterIPPN7testing11EnvironmentEEES6_EEbRKNS_16reverse_iteratorIT_EERKNS7_IT0_EE
FN:1181,_ZNSt3__119ostreambuf_iteratorIcNS_11char_traitsIcEEEC1ERNS_13basic_ostreamIcS2_EE
FNDA:0,_ZNSt3__119ostreambuf_iteratorIcNS_11char_traitsIcEEEC1ERNS_13basic_ostreamIcS2_EE
FN:1181,_ZNSt3__119ostreambuf_iteratorIcNS_11char_traitsIcEEEC2ERNS_13basic_ostreamIcS2_EE
FNDA:0,_ZNSt3__119ostreambuf_iteratorIcNS_11char_traitsIcEEEC2ERNS_13basic_ostreamIcS2_EE
FN:1194,_ZNKSt3__119ostreambuf_iteratorIcNS_11char_traitsIcEEE6failedEv
FNDA:0,_ZNKSt3__119ostreambuf_iteratorIcNS_11char_traitsIcEEE6failedEv
FN:1230,_ZNSt3__113move_iteratorIPPcEC1ES2_
FNDA:0,_ZNSt3__113move_iteratorIPPcEC1ES2_
FN:1230,_ZNSt3__113move_iteratorIPPcEC2ES2_
FNDA:0,_ZNSt3__113move_iteratorIPPcEC2ES2_
FN:1230,_ZNSt3__113move_iteratorIPPN7testing9TestSuiteEEC1ES4_
FNDA:0,_ZNSt3__113move_iteratorIPPN7testing9TestSuiteEEC1ES4_
FN:1230,_ZNSt3__113move_iteratorIPPN7testing9TestSuiteEEC2ES4_
FNDA:0,_ZNSt3__113move_iteratorIPPN7testing9TestSuiteEEC2ES4_
FN:1234,_ZNKSt3__113move_iteratorIPPcE4baseEv
FNDA:0,_ZNKSt3__113move_iteratorIPPcE4baseEv
FN:1234,_ZNKSt3__113move_iteratorIPPN7testing9TestSuiteEE4baseEv
FNDA:0,_ZNKSt3__113move_iteratorIPPN7testing9TestSuiteEE4baseEv
FN:1236,_ZNKSt3__113move_iteratorIPPcEdeEv
FNDA:0,_ZNKSt3__113move_iteratorIPPcEdeEv
FN:1236,_ZNKSt3__113move_iteratorIPPN7testing9TestSuiteEEdeEv
FNDA:0,_ZNKSt3__113move_iteratorIPPN7testing9TestSuiteEEdeEv
FN:1240,_ZNSt3__113move_iteratorIPPcEppEv
FNDA:0,_ZNSt3__113move_iteratorIPPcEppEv
FN:1240,_ZNSt3__113move_iteratorIPPN7testing9TestSuiteEEppEv
FNDA:0,_ZNSt3__113move_iteratorIPPN7testing9TestSuiteEEppEv
FN:1311,_ZNSt3__1miIPPcS2_EEDTmicldtfp_4baseEcldtfp0_4baseEERKNS_13move_iteratorIT_EERKNS4_IT0_EE
FNDA:0,_ZNSt3__1miIPPcS2_EEDTmicldtfp_4baseEcldtfp0_4baseEERKNS_13move_iteratorIT_EERKNS4_IT0_EE
FN:1311,_ZNSt3__1miIPPN7testing9TestSuiteES4_EEDTmicldtfp_4baseEcldtfp0_4baseEERKNS_13move_iteratorIT_EERKNS6_IT0_EE
FNDA:0,_ZNSt3__1miIPPN7testing9TestSuiteES4_EEDTmicldtfp_4baseEcldtfp0_4baseEERKNS_13move_iteratorIT_EERKNS6_IT0_EE
FN:1446,_ZNSt3__111__wrap_iterIPKPN7testing17TestEventListenerEEC1IPS3_EERKNS0_IT_EEPNS_9enable_ifIXsr14is_convertibleIS9_S5_EE5valueEvE4typeE
FNDA:0,_ZNSt3__111__wrap_iterIPKPN7testing17TestEventListenerEEC1IPS3_EERKNS0_IT_EEPNS_9enable_ifIXsr14is_convertibleIS9_S5_EE5valueEvE4typeE
FN:1446,_ZNSt3__111__wrap_iterIPKPN7testing9TestSuiteEEC1IPS3_EERKNS0_IT_EEPNS_9enable_ifIXsr14is_convertibleIS9_S5_EE5valueEvE4typeE
FNDA:0,_ZNSt3__111__wrap_iterIPKPN7testing9TestSuiteEEC1IPS3_EERKNS0_IT_EEPNS_9enable_ifIXsr14is_convertibleIS9_S5_EE5valueEvE4typeE
FN:1446,_ZNSt3__111__wrap_iterIPKcEC1IPcEERKNS0_IT_EEPNS_9enable_ifIXsr14is_convertibleIS6_S2_EE5valueEvE4typeE
FNDA:2,_ZNSt3__111__wrap_iterIPKcEC1IPcEERKNS0_IT_EEPNS_9enable_ifIXsr14is_convertibleIS6_S2_EE5valueEvE4typeE
FN:1446,_ZNSt3__111__wrap_iterIPKNS_12basic_stringIcNS_11char_traitsIcEENS_9allocatorIcEEEEEC1IPS6_EERKNS0_IT_EEPNS_9enable_ifIXsr14is_convertibleISC_S8_EE5valueEvE4typeE
FNDA:0,_ZNSt3__111__wrap_iterIPKNS_12basic_stringIcNS_11char_traitsIcEENS_9allocatorIcEEEEEC1IPS6_EERKNS0_IT_EEPNS_9enable_ifIXsr14is_convertibleISC_S8_EE5valueEvE4typeE
FN:1446,_ZNSt3__111__wrap_iterIPKPN7testing17TestEventListenerEEC2IPS3_EERKNS0_IT_EEPNS_9enable_ifIXsr14is_convertibleIS9_S5_EE5valueEvE4typeE
FNDA:0,_ZNSt3__111__wrap_iterIPKPN7testing17TestEventListenerEEC2IPS3_EERKNS0_IT_EEPNS_9enable_ifIXsr14is_convertibleIS9_S5_EE5valueEvE4typeE
FN:1446,_ZNSt3__111__wrap_iterIPKPN7testing9TestSuiteEEC2IPS3_EERKNS0_IT_EEPNS_9enable_ifIXsr14is_convertibleIS9_S5_EE5valueEvE4typeE
FNDA:0,_ZNSt3__111__wrap_iterIPKPN7testing9TestSuiteEEC2IPS3_EERKNS0_IT_EEPNS_9enable_ifIXsr14is_convertibleIS9_S5_EE5valueEvE4typeE
FN:1446,_ZNSt3__111__wrap_iterIPKPcEC1IPS1_EERKNS0_IT_EEPNS_9enable_ifIXsr14is_convertibleIS7_S3_EE5valueEvE4typeE
FNDA:0,_ZNSt3__111__wrap_iterIPKPcEC1IPS1_EERKNS0_IT_EEPNS_9enable_ifIXsr14is_convertibleIS7_S3_EE5valueEvE4typeE
FN:1446,_ZNSt3__111__wrap_iterIPKPcEC2IPS1_EERKNS0_IT_EEPNS_9enable_ifIXsr14is_convertibleIS7_S3_EE5valueEvE4typeE
FNDA:0,_ZNSt3__111__wrap_iterIPKPcEC2IPS1_EERKNS0_IT_EEPNS_9enable_ifIXsr14is_convertibleIS7_S3_EE5valueEvE4typeE
FN:1446,_ZNSt3__111__wrap_iterIPKcEC2IPcEERKNS0_IT_EEPNS_9enable_ifIXsr14is_convertibleIS6_S2_EE5valueEvE4typeE
FNDA:2,_ZNSt3__111__wrap_iterIPKcEC2IPcEERKNS0_IT_EEPNS_9enable_ifIXsr14is_convertibleIS6_S2_EE5valueEvE4typeE
FN:1446,_ZNSt3__111__wrap_iterIPKNS_12basic_stringIcNS_11char_traitsIcEENS_9allocatorIcEEEEEC2IPS6_EERKNS0_IT_EEPNS_9enable_ifIXsr14is_convertibleISC_S8_EE5valueEvE4typeE
FNDA:0,_ZNSt3__111__wrap_iterIPKNS_12basic_stringIcNS_11char_traitsIcEENS_9allocatorIcEEEEEC2IPS6_EERKNS0_IT_EEPNS_9enable_ifIXsr14is_convertibleISC_S8_EE5valueEvE4typeE
FN:1477,_ZNKSt3__111__wrap_iterIPKN7testing8internal13edit_distance8EditTypeEEdeEv
FNDA:0,_ZNKSt3__111__wrap_iterIPKN7testing8internal13edit_distance8EditTypeEEdeEv
FN:1477,_ZNKSt3__111__wrap_iterIPKcEdeEv
FNDA:0,_ZNKSt3__111__wrap_iterIPKcEdeEv
FN:1477,_ZNKSt3__111__wrap_iterIPKPN7testing9TestSuiteEEdeEv
FNDA:1,_ZNKSt3__111__wrap_iterIPKPN7testing9TestSuiteEEdeEv
FN:1477,_ZNKSt3__111__wrap_iterIPPN7testing9TestSuiteEEdeEv
FNDA:8,_ZNKSt3__111__wrap_iterIPPN7testing9TestSuiteEEdeEv
FN:1477,_ZNKSt3__111__wrap_iterIPcEdeEv
FNDA:104,_ZNKSt3__111__wrap_iterIPcEdeEv
FN:1477,_ZNKSt3__111__wrap_iterIPKNS_12basic_stringIcNS_11char_traitsIcEENS_9allocatorIcEEEEEdeEv
FNDA:0,_ZNKSt3__111__wrap_iterIPKNS_12basic_stringIcNS_11char_traitsIcEENS_9allocatorIcEEEEEdeEv
FN:1477,_ZNKSt3__111__wrap_iterIPPN7testing8internal30ParameterizedTestSuiteInfoBaseEEdeEv
FNDA:0,_ZNKSt3__111__wrap_iterIPPN7testing8internal30ParameterizedTestSuiteInfoBaseEEdeEv
FN:1477,_ZNKSt3__111__wrap_iterIPPcEdeEv
FNDA:0,_ZNKSt3__111__wrap_iterIPPcEdeEv
FN:1477,_ZNKSt3__111__wrap_iterIPN7testing8internal13edit_distance8EditTypeEEdeEv
FNDA:0,_ZNKSt3__111__wrap_iterIPN7testing8internal13edit_distance8EditTypeEEdeEv
FN:1477,_ZNKSt3__111__wrap_iterIPN7testing12TestPropertyEEdeEv
FNDA:0,_ZNKSt3__111__wrap_iterIPN7testing12TestPropertyEEdeEv
FN:1477,_ZNKSt3__111__wrap_iterIPKN7testing14TestPartResultEEdeEv
FNDA:0,_ZNKSt3__111__wrap_iterIPKN7testing14TestPartResultEEdeEv
FN:1477,_ZNKSt3__111__wrap_iterIPKPN7testing8TestInfoEEdeEv
FNDA:4,_ZNKSt3__111__wrap_iterIPKPN7testing8TestInfoEEdeEv
FN:1477,_ZNKSt3__111__wrap_iterIPKPN7testing17TestEventListenerEEdeEv
FNDA:1,_ZNKSt3__111__wrap_iterIPKPN7testing17TestEventListenerEEdeEv
FN:1477,_ZNKSt3__111__wrap_iterIPKPN7testing11EnvironmentEEdeEv
FNDA:0,_ZNKSt3__111__wrap_iterIPKPN7testing11EnvironmentEEdeEv
FN:1477,_ZNKSt3__111__wrap_iterIPPN7testing11EnvironmentEEdeEv
FNDA:0,_ZNKSt3__111__wrap_iterIPPN7testing11EnvironmentEEdeEv
FN:1485,_ZNKSt3__111__wrap_iterIPN7testing12TestPropertyEEptEv
FNDA:0,_ZNKSt3__111__wrap_iterIPN7testing12TestPropertyEEptEv
FN:1485,_ZNKSt3__111__wrap_iterIPKNS_12basic_stringIcNS_11char_traitsIcEENS_9allocatorIcEEEEEptEv
FNDA:0,_ZNKSt3__111__wrap_iterIPKNS_12basic_stringIcNS_11char_traitsIcEENS_9allocatorIcEEEEEptEv
FN:1493,_ZNSt3__111__wrap_iterIPKN7testing8internal13edit_distance8EditTypeEEppEv
FNDA:0,_ZNSt3__111__wrap_iterIPKN7testing8internal13edit_distance8EditTypeEEppEv
FN:1493,_ZNSt3__111__wrap_iterIPKcEppEv
FNDA:0,_ZNSt3__111__wrap_iterIPKcEppEv
FN:1493,_ZNSt3__111__wrap_iterIPKPN7testing9TestSuiteEEppEv
FNDA:1,_ZNSt3__111__wrap_iterIPKPN7testing9TestSuiteEEppEv
FN:1493,_ZNSt3__111__wrap_iterIPPN7testing9TestSuiteEEppEv
FNDA:2,_ZNSt3__111__wrap_iterIPPN7testing9TestSuiteEEppEv
FN:1493,_ZNSt3__111__wrap_iterIPcEppEv
FNDA:98,_ZNSt3__111__wrap_iterIPcEppEv
FN:1493,_ZNSt3__111__wrap_iterIPKNS_12basic_stringIcNS_11char_traitsIcEENS_9allocatorIcEEEEEppEv
FNDA:0,_ZNSt3__111__wrap_iterIPKNS_12basic_stringIcNS_11char_traitsIcEENS_9allocatorIcEEEEEppEv
FN:1493,_ZNSt3__111__wrap_iterIPPN7testing8internal30ParameterizedTestSuiteInfoBaseEEppEv
FNDA:0,_ZNSt3__111__wrap_iterIPPN7testing8internal30ParameterizedTestSuiteInfoBaseEEppEv
FN:1493,_ZNSt3__111__wrap_iterIPPcEppEv
FNDA:0,_ZNSt3__111__wrap_iterIPPcEppEv
FN:1493,_ZNSt3__111__wrap_iterIPN7testing8internal13edit_distance8EditTypeEEppEv
FNDA:0,_ZNSt3__111__wrap_iterIPN7testing8internal13edit_distance8EditTypeEEppEv
FN:1493,_ZNSt3__111__wrap_iterIPN7testing12TestPropertyEEppEv
FNDA:0,_ZNSt3__111__wrap_iterIPN7testing12TestPropertyEEppEv
FN:1493,_ZNSt3__111__wrap_iterIPKN7testing14TestPartResultEEppEv
FNDA:0,_ZNSt3__111__wrap_iterIPKN7testing14TestPartResultEEppEv
FN:1493,_ZNSt3__111__wrap_iterIPKPN7testing8TestInfoEEppEv
FNDA:4,_ZNSt3__111__wrap_iterIPKPN7testing8TestInfoEEppEv
FN:1493,_ZNSt3__111__wrap_iterIPKPN7testing17TestEventListenerEEppEv
FNDA:1,_ZNSt3__111__wrap_iterIPKPN7testing17TestEventListenerEEppEv
FN:1493,_ZNSt3__111__wrap_iterIPKPN7testing11EnvironmentEEppEv
FNDA:0,_ZNSt3__111__wrap_iterIPKPN7testing11EnvironmentEEppEv
FN:1502,_ZNSt3__111__wrap_iterIPcEppEi
FNDA:49,_ZNSt3__111__wrap_iterIPcEppEi
FN:1505,_ZNSt3__111__wrap_iterIPcEmmEv
FNDA:0,_ZNSt3__111__wrap_iterIPcEmmEv
FN:1505,_ZNSt3__111__wrap_iterIPN7testing8internal13edit_distance8EditTypeEEmmEv
FNDA:0,_ZNSt3__111__wrap_iterIPN7testing8internal13edit_distance8EditTypeEEmmEv
FN:1505,_ZNSt3__111__wrap_iterIPPN7testing9TestSuiteEEmmEv
FNDA:6,_ZNSt3__111__wrap_iterIPPN7testing9TestSuiteEEmmEv
FN:1505,_ZNSt3__111__wrap_iterIPPN7testing11EnvironmentEEmmEv
FNDA:0,_ZNSt3__111__wrap_iterIPPN7testing11EnvironmentEEmmEv
FN:1516,_ZNKSt3__111__wrap_iterIPKN7testing8internal13edit_distance8EditTypeEEplEl
FNDA:0,_ZNKSt3__111__wrap_iterIPKN7testing8internal13edit_distance8EditTypeEEplEl
FN:1516,_ZNKSt3__111__wrap_iterIPPN7testing17TestEventListenerEEplEl
FNDA:0,_ZNKSt3__111__wrap_iterIPPN7testing17TestEventListenerEEplEl
FN:1516,_ZNKSt3__111__wrap_iterIPPN7testing9TestSuiteEEplEl
FNDA:0,_ZNKSt3__111__wrap_iterIPPN7testing9TestSuiteEEplEl
FN:1516,_ZNKSt3__111__wrap_iterIPPcEplEl
FNDA:0,_ZNKSt3__111__wrap_iterIPPcEplEl
FN:1516,_ZNKSt3__111__wrap_iterIPcEplEl
FNDA:1,_ZNKSt3__111__wrap_iterIPcEplEl
FN:1518,_ZNSt3__111__wrap_iterIPKN7testing8internal13edit_distance8EditTypeEEpLEl
FNDA:0,_ZNSt3__111__wrap_iterIPKN7testing8internal13edit_distance8EditTypeEEpLEl
FN:1518,_ZNSt3__111__wrap_iterIPPN7testing17TestEventListenerEEpLEl
FNDA:0,_ZNSt3__111__wrap_iterIPPN7testing17TestEventListenerEEpLEl
FN:1518,_ZNSt3__111__wrap_iterIPPN7testing9TestSuiteEEpLEl
FNDA:0,_ZNSt3__111__wrap_iterIPPN7testing9TestSuiteEEpLEl
FN:1518,_ZNSt3__111__wrap_iterIPPcEpLEl
FNDA:0,_ZNSt3__111__wrap_iterIPPcEpLEl
FN:1518,_ZNSt3__111__wrap_iterIPcEpLEl
FNDA:7,_ZNSt3__111__wrap_iterIPcEpLEl
FN:1527,_ZNKSt3__111__wrap_iterIPPcEmiEl
FNDA:0,_ZNKSt3__111__wrap_iterIPPcEmiEl
FN:1540,_ZNKSt3__111__wrap_iterIPKN7testing8internal13edit_distance8EditTypeEE4baseEv
FNDA:0,_ZNKSt3__111__wrap_iterIPKN7testing8internal13edit_distance8EditTypeEE4baseEv
FN:1540,_ZNKSt3__111__wrap_iterIPN7testing12TestPropertyEE4baseEv
FNDA:0,_ZNKSt3__111__wrap_iterIPN7testing12TestPropertyEE4baseEv
FN:1540,_ZNKSt3__111__wrap_iterIPPN7testing8internal30ParameterizedTestSuiteInfoBaseEE4baseEv
FNDA:4,_ZNKSt3__111__wrap_iterIPPN7testing8internal30ParameterizedTestSuiteInfoBaseEE4baseEv
FN:1540,_ZNKSt3__111__wrap_iterIPPN7testing17TestEventListenerEE4baseEv
FNDA:0,_ZNKSt3__111__wrap_iterIPPN7testing17TestEventListenerEE4baseEv
FN:1540,_ZNKSt3__111__wrap_iterIPKcE4baseEv
FNDA:3,_ZNKSt3__111__wrap_iterIPKcE4baseEv
FN:1540,_ZNKSt3__111__wrap_iterIPKNS_12basic_stringIcNS_11char_traitsIcEENS_9allocatorIcEEEEE4baseEv
FNDA:0,_ZNKSt3__111__wrap_iterIPKNS_12basic_stringIcNS_11char_traitsIcEENS_9allocatorIcEEEEE4baseEv
FN:1540,_ZNKSt3__111__wrap_iterIPKPN7testing9TestSuiteEE4baseEv
FNDA:4,_ZNKSt3__111__wrap_iterIPKPN7testing9TestSuiteEE4baseEv
FN:1540,_ZNKSt3__111__wrap_iterIPPN7testing9TestSuiteEE4baseEv
FNDA:24,_ZNKSt3__111__wrap_iterIPPN7testing9TestSuiteEE4baseEv
FN:1540,_ZNKSt3__111__wrap_iterIPKPcE4baseEv
FNDA:0,_ZNKSt3__111__wrap_iterIPKPcE4baseEv
FN:1540,_ZNKSt3__111__wrap_iterIPPcE4baseEv
FNDA:0,_ZNKSt3__111__wrap_iterIPPcE4baseEv
FN:1540,_ZNKSt3__111__wrap_iterIPcE4baseEv
FNDA:117,_ZNKSt3__111__wrap_iterIPcE4baseEv
FN:1540,_ZNKSt3__111__wrap_iterIPNS_12basic_stringIcNS_11char_traitsIcEENS_9allocatorIcEEEEE4baseEv
FNDA:0,_ZNKSt3__111__wrap_iterIPNS_12basic_stringIcNS_11char_traitsIcEENS_9allocatorIcEEEEE4baseEv
FN:1540,_ZNKSt3__111__wrap_iterIPN7testing8internal13edit_distance8EditTypeEE4baseEv
FNDA:0,_ZNKSt3__111__wrap_iterIPN7testing8internal13edit_distance8EditTypeEE4baseEv
FN:1540,_ZNKSt3__111__wrap_iterIPKN7testing14TestPartResultEE4baseEv
FNDA:0,_ZNKSt3__111__wrap_iterIPKN7testing14TestPartResultEE4baseEv
FN:1540,_ZNKSt3__111__wrap_iterIPKPN7testing8TestInfoEE4baseEv
FNDA:10,_ZNKSt3__111__wrap_iterIPKPN7testing8TestInfoEE4baseEv
FN:1540,_ZNKSt3__111__wrap_iterIPKPN7testing17TestEventListenerEE4baseEv
FNDA:4,_ZNKSt3__111__wrap_iterIPKPN7testing17TestEventListenerEE4baseEv
FN:1540,_ZNKSt3__111__wrap_iterIPKPN7testing11EnvironmentEE4baseEv
FNDA:2,_ZNKSt3__111__wrap_iterIPKPN7testing11EnvironmentEE4baseEv
FN:1540,_ZNKSt3__111__wrap_iterIPPN7testing11EnvironmentEE4baseEv
FNDA:0,_ZNKSt3__111__wrap_iterIPPN7testing11EnvironmentEE4baseEv
FN:1549,_ZNSt3__111__wrap_iterIPPN7testing8internal30ParameterizedTestSuiteInfoBaseEEC1ES5_
FNDA:4,_ZNSt3__111__wrap_iterIPPN7testing8internal30ParameterizedTestSuiteInfoBaseEEC1ES5_
FN:1549,_ZNSt3__111__wrap_iterIPPN7testing8internal30ParameterizedTestSuiteInfoBaseEEC2ES5_
FNDA:4,_ZNSt3__111__wrap_iterIPPN7testing8internal30ParameterizedTestSuiteInfoBaseEEC2ES5_
FN:1549,_ZNSt3__111__wrap_iterIPPcEC1ES2_
FNDA:0,_ZNSt3__111__wrap_iterIPPcEC1ES2_
FN:1549,_ZNSt3__111__wrap_iterIPPcEC2ES2_
FNDA:0,_ZNSt3__111__wrap_iterIPPcEC2ES2_
FN:1549,_ZNSt3__111__wrap_iterIPcEC1ES1_
FNDA:12,_ZNSt3__111__wrap_iterIPcEC1ES1_
FN:1549,_ZNSt3__111__wrap_iterIPcEC2ES1_
FNDA:12,_ZNSt3__111__wrap_iterIPcEC2ES1_
FN:1549,_ZNSt3__111__wrap_iterIPN7testing8internal13edit_distance8EditTypeEEC1ES5_
FNDA:0,_ZNSt3__111__wrap_iterIPN7testing8internal13edit_distance8EditTypeEEC1ES5_
FN:1549,_ZNSt3__111__wrap_iterIPN7testing8internal13edit_distance8EditTypeEEC2ES5_
FNDA:0,_ZNSt3__111__wrap_iterIPN7testing8internal13edit_distance8EditTypeEEC2ES5_
FN:1549,_ZNSt3__111__wrap_iterIPKN7testing8internal13edit_distance8EditTypeEEC1ES6_
FNDA:0,_ZNSt3__111__wrap_iterIPKN7testing8internal13edit_distance8EditTypeEEC1ES6_
FN:1549,_ZNSt3__111__wrap_iterIPKN7testing8internal13edit_distance8EditTypeEEC2ES6_
FNDA:0,_ZNSt3__111__wrap_iterIPKN7testing8internal13edit_distance8EditTypeEEC2ES6_
FN:1549,_ZNSt3__111__wrap_iterIPN7testing12TestPropertyEEC1ES3_
FNDA:0,_ZNSt3__111__wrap_iterIPN7testing12TestPropertyEEC1ES3_
FN:1549,_ZNSt3__111__wrap_iterIPN7testing12TestPropertyEEC2ES3_
FNDA:0,_ZNSt3__111__wrap_iterIPN7testing12TestPropertyEEC2ES3_
FN:1549,_ZNSt3__111__wrap_iterIPKNS_12basic_stringIcNS_11char_traitsIcEENS_9allocatorIcEEEEEC1ES8_
FNDA:0,_ZNSt3__111__wrap_iterIPKNS_12basic_stringIcNS_11char_traitsIcEENS_9allocatorIcEEEEEC1ES8_
FN:1549,_ZNSt3__111__wrap_iterIPKNS_12basic_stringIcNS_11char_traitsIcEENS_9allocatorIcEEEEEC2ES8_
FNDA:0,_ZNSt3__111__wrap_iterIPKNS_12basic_stringIcNS_11char_traitsIcEENS_9allocatorIcEEEEEC2ES8_
FN:1549,_ZNSt3__111__wrap_iterIPKN7testing14TestPartResultEEC1ES4_
FNDA:0,_ZNSt3__111__wrap_iterIPKN7testing14TestPartResultEEC1ES4_
FN:1549,_ZNSt3__111__wrap_iterIPKN7testing14TestPartResultEEC2ES4_
FNDA:0,_ZNSt3__111__wrap_iterIPKN7testing14TestPartResultEEC2ES4_
FN:1549,_ZNSt3__111__wrap_iterIPKPN7testing8TestInfoEEC1ES5_
FNDA:2,_ZNSt3__111__wrap_iterIPKPN7testing8TestInfoEEC1ES5_
FN:1549,_ZNSt3__111__wrap_iterIPKPN7testing8TestInfoEEC2ES5_
FNDA:2,_ZNSt3__111__wrap_iterIPKPN7testing8TestInfoEEC2ES5_
FN:1549,_ZNSt3__111__wrap_iterIPKPN7testing17TestEventListenerEEC1ES5_
FNDA:2,_ZNSt3__111__wrap_iterIPKPN7testing17TestEventListenerEEC1ES5_
FN:1549,_ZNSt3__111__wrap_iterIPKPN7testing17TestEventListenerEEC2ES5_
FNDA:2,_ZNSt3__111__wrap_iterIPKPN7testing17TestEventListenerEEC2ES5_
FN:1549,_ZNSt3__111__wrap_iterIPPN7testing17TestEventListenerEEC1ES4_
FNDA:0,_ZNSt3__111__wrap_iterIPPN7testing17TestEventListenerEEC1ES4_
FN:1549,_ZNSt3__111__wrap_iterIPPN7testing17TestEventListenerEEC2ES4_
FNDA:0,_ZNSt3__111__wrap_iterIPPN7testing17TestEventListenerEEC2ES4_
FN:1549,_ZNSt3__111__wrap_iterIPKcEC1ES2_
FNDA:0,_ZNSt3__111__wrap_iterIPKcEC1ES2_
FN:1549,_ZNSt3__111__wrap_iterIPKcEC2ES2_
FNDA:0,_ZNSt3__111__wrap_iterIPKcEC2ES2_
FN:1549,_ZNSt3__111__wrap_iterIPKPN7testing9TestSuiteEEC1ES5_
FNDA:2,_ZNSt3__111__wrap_iterIPKPN7testing9TestSuiteEEC1ES5_
FN:1549,_ZNSt3__111__wrap_iterIPKPN7testing9TestSuiteEEC2ES5_
FNDA:2,_ZNSt3__111__wrap_iterIPKPN7testing9TestSuiteEEC2ES5_
FN:1549,_ZNSt3__111__wrap_iterIPKPN7testing11EnvironmentEEC1ES5_
FNDA:2,_ZNSt3__111__wrap_iterIPKPN7testing11EnvironmentEEC1ES5_
FN:1549,_ZNSt3__111__wrap_iterIPKPN7testing11EnvironmentEEC2ES5_
FNDA:2,_ZNSt3__111__wrap_iterIPKPN7testing11EnvironmentEEC2ES5_
FN:1549,_ZNSt3__111__wrap_iterIPPN7testing9TestSuiteEEC1ES4_
FNDA:16,_ZNSt3__111__wrap_iterIPPN7testing9TestSuiteEEC1ES4_
FN:1549,_ZNSt3__111__wrap_iterIPPN7testing9TestSuiteEEC2ES4_
FNDA:16,_ZNSt3__111__wrap_iterIPPN7testing9TestSuiteEEC2ES4_
FN:1549,_ZNSt3__111__wrap_iterIPPN7testing11EnvironmentEEC1ES4_
FNDA:0,_ZNSt3__111__wrap_iterIPPN7testing11EnvironmentEEC1ES4_
FN:1549,_ZNSt3__111__wrap_iterIPPN7testing11EnvironmentEEC2ES4_
FNDA:0,_ZNSt3__111__wrap_iterIPPN7testing11EnvironmentEEC2ES4_
FN:1549,_ZNSt3__111__wrap_iterIPNS_12basic_stringIcNS_11char_traitsIcEENS_9allocatorIcEEEEEC1ES7_
FNDA:0,_ZNSt3__111__wrap_iterIPNS_12basic_stringIcNS_11char_traitsIcEENS_9allocatorIcEEEEEC1ES7_
FN:1549,_ZNSt3__111__wrap_iterIPNS_12basic_stringIcNS_11char_traitsIcEENS_9allocatorIcEEEEEC2ES7_
FNDA:0,_ZNSt3__111__wrap_iterIPNS_12basic_stringIcNS_11char_traitsIcEENS_9allocatorIcEEEEEC2ES7_
FN:1634,_ZNSt3__1eqIPKN7testing8internal13edit_distance8EditTypeES6_EEbRKNS_11__wrap_iterIT_EERKNS7_IT0_EE
FNDA:0,_ZNSt3__1eqIPKN7testing8internal13edit_distance8EditTypeES6_EEbRKNS_11__wrap_iterIT_EERKNS7_IT0_EE
FN:1634,_ZNSt3__1eqIPN7testing12TestPropertyES3_EEbRKNS_11__wrap_iterIT_EERKNS4_IT0_EE
FNDA:0,_ZNSt3__1eqIPN7testing12TestPropertyES3_EEbRKNS_11__wrap_iterIT_EERKNS4_IT0_EE
FN:1634,_ZNSt3__1eqIPcS1_EEbRKNS_11__wrap_iterIT_EERKNS2_IT0_EE
FNDA:57,_ZNSt3__1eqIPcS1_EEbRKNS_11__wrap_iterIT_EERKNS2_IT0_EE
FN:1634,_ZNSt3__1eqIPPN7testing8internal30ParameterizedTestSuiteInfoBaseES5_EEbRKNS_11__wrap_iterIT_EERKNS6_IT0_EE
FNDA:2,_ZNSt3__1eqIPPN7testing8internal30ParameterizedTestSuiteInfoBaseES5_EEbRKNS_11__wrap_iterIT_EERKNS6_IT0_EE
FN:1634,_ZNSt3__1eqIPKcS2_EEbRKNS_11__wrap_iterIT_EERKNS3_IT0_EE
FNDA:0,_ZNSt3__1eqIPKcS2_EEbRKNS_11__wrap_iterIT_EERKNS3_IT0_EE
FN:1634,_ZNSt3__1eqIPKNS_12basic_stringIcNS_11char_traitsIcEENS_9allocatorIcEEEES8_EEbRKNS_11__wrap_iterIT_EERKNS9_IT0_EE
FNDA:0,_ZNSt3__1eqIPKNS_12basic_stringIcNS_11char_traitsIcEENS_9allocatorIcEEEES8_EEbRKNS_11__wrap_iterIT_EERKNS9_IT0_EE
FN:1634,_ZNSt3__1eqIPKPN7testing9TestSuiteES5_EEbRKNS_11__wrap_iterIT_EERKNS6_IT0_EE
FNDA:2,_ZNSt3__1eqIPKPN7testing9TestSuiteES5_EEbRKNS_11__wrap_iterIT_EERKNS6_IT0_EE
FN:1634,_ZNSt3__1eqIPPN7testing9TestSuiteES4_EEbRKNS_11__wrap_iterIT_EERKNS5_IT0_EE
FNDA:12,_ZNSt3__1eqIPPN7testing9TestSuiteES4_EEbRKNS_11__wrap_iterIT_EERKNS5_IT0_EE
FN:1634,_ZNSt3__1eqIPPcS2_EEbRKNS_11__wrap_iterIT_EERKNS3_IT0_EE
FNDA:0,_ZNSt3__1eqIPPcS2_EEbRKNS_11__wrap_iterIT_EERKNS3_IT0_EE
FN:1634,_ZNSt3__1eqIPKNS_12basic_stringIcNS_11char_traitsIcEENS_9allocatorIcEEEEPS6_EEbRKNS_11__wrap_iterIT_EERKNSA_IT0_EE
FNDA:0,_ZNSt3__1eqIPKNS_12basic_stringIcNS_11char_traitsIcEENS_9allocatorIcEEEEPS6_EEbRKNS_11__wrap_iterIT_EERKNSA_IT0_EE
FN:1634,_ZNSt3__1eqIPN7testing8internal13edit_distance8EditTypeES5_EEbRKNS_11__wrap_iterIT_EERKNS6_IT0_EE
FNDA:0,_ZNSt3__1eqIPN7testing8internal13edit_distance8EditTypeES5_EEbRKNS_11__wrap_iterIT_EERKNS6_IT0_EE
FN:1634,_ZNSt3__1eqIPKN7testing14TestPartResultES4_EEbRKNS_11__wrap_iterIT_EERKNS5_IT0_EE
FNDA:0,_ZNSt3__1eqIPKN7testing14TestPartResultES4_EEbRKNS_11__wrap_iterIT_EERKNS5_IT0_EE
FN:1634,_ZNSt3__1eqIPKPN7testing8TestInfoES5_EEbRKNS_11__wrap_iterIT_EERKNS6_IT0_EE
FNDA:5,_ZNSt3__1eqIPKPN7testing8TestInfoES5_EEbRKNS_11__wrap_iterIT_EERKNS6_IT0_EE
FN:1634,_ZNSt3__1eqIPKPN7testing17TestEventListenerES5_EEbRKNS_11__wrap_iterIT_EERKNS6_IT0_EE
FNDA:2,_ZNSt3__1eqIPKPN7testing17TestEventListenerES5_EEbRKNS_11__wrap_iterIT_EERKNS6_IT0_EE
FN:1634,_ZNSt3__1eqIPKPN7testing11EnvironmentES5_EEbRKNS_11__wrap_iterIT_EERKNS6_IT0_EE
FNDA:1,_ZNSt3__1eqIPKPN7testing11EnvironmentES5_EEbRKNS_11__wrap_iterIT_EERKNS6_IT0_EE
FN:1634,_ZNSt3__1eqIPPN7testing11EnvironmentES4_EEbRKNS_11__wrap_iterIT_EERKNS5_IT0_EE
FNDA:0,_ZNSt3__1eqIPPN7testing11EnvironmentES4_EEbRKNS_11__wrap_iterIT_EERKNS5_IT0_EE
FN:1642,_ZNSt3__1ltIPN7testing8internal13edit_distance8EditTypeES5_EEbRKNS_11__wrap_iterIT_EERKNS6_IT0_EE
FNDA:0,_ZNSt3__1ltIPN7testing8internal13edit_distance8EditTypeES5_EEbRKNS_11__wrap_iterIT_EERKNS6_IT0_EE
FN:1654,_ZNSt3__1neIPKNS_12basic_stringIcNS_11char_traitsIcEENS_9allocatorIcEEEEPS6_EEbRKNS_11__wrap_iterIT_EERKNSA_IT0_EE
FNDA:0,_ZNSt3__1neIPKNS_12basic_stringIcNS_11char_traitsIcEENS_9allocatorIcEEEEPS6_EEbRKNS_11__wrap_iterIT_EERKNSA_IT0_EE
FN:1686,_ZNSt3__1neIPKN7testing8internal13edit_distance8EditTypeEEEbRKNS_11__wrap_iterIT_EESB_
FNDA:0,_ZNSt3__1neIPKN7testing8internal13edit_distance8EditTypeEEEbRKNS_11__wrap_iterIT_EESB_
FN:1686,_ZNSt3__1neIPKcEEbRKNS_11__wrap_iterIT_EES7_
FNDA:0,_ZNSt3__1neIPKcEEbRKNS_11__wrap_iterIT_EES7_
FN:1686,_ZNSt3__1neIPKNS_12basic_stringIcNS_11char_traitsIcEENS_9allocatorIcEEEEEEbRKNS_11__wrap_iterIT_EESD_
FNDA:0,_ZNSt3__1neIPKNS_12basic_stringIcNS_11char_traitsIcEENS_9allocatorIcEEEEEEbRKNS_11__wrap_iterIT_EESD_
FN:1686,_ZNSt3__1neIPKPN7testing9TestSuiteEEEbRKNS_11__wrap_iterIT_EESA_
FNDA:2,_ZNSt3__1neIPKPN7testing9TestSuiteEEEbRKNS_11__wrap_iterIT_EESA_
FN:1686,_ZNSt3__1neIPPN7testing9TestSuiteEEEbRKNS_11__wrap_iterIT_EES9_
FNDA:12,_ZNSt3__1neIPPN7testing9TestSuiteEEEbRKNS_11__wrap_iterIT_EES9_
FN:1686,_ZNSt3__1neIPcEEbRKNS_11__wrap_iterIT_EES6_
FNDA:50,_ZNSt3__1neIPcEEbRKNS_11__wrap_iterIT_EES6_
FN:1686,_ZNSt3__1neIPPN7testing8internal30ParameterizedTestSuiteInfoBaseEEEbRKNS_11__wrap_iterIT_EESA_
FNDA:2,_ZNSt3__1neIPPN7testing8internal30ParameterizedTestSuiteInfoBaseEEEbRKNS_11__wrap_iterIT_EESA_
FN:1686,_ZNSt3__1neIPPcEEbRKNS_11__wrap_iterIT_EES7_
FNDA:0,_ZNSt3__1neIPPcEEbRKNS_11__wrap_iterIT_EES7_
FN:1686,_ZNSt3__1neIPN7testing8internal13edit_distance8EditTypeEEEbRKNS_11__wrap_iterIT_EESA_
FNDA:0,_ZNSt3__1neIPN7testing8internal13edit_distance8EditTypeEEEbRKNS_11__wrap_iterIT_EESA_
FN:1686,_ZNSt3__1neIPN7testing12TestPropertyEEEbRKNS_11__wrap_iterIT_EES8_
FNDA:0,_ZNSt3__1neIPN7testing12TestPropertyEEEbRKNS_11__wrap_iterIT_EES8_
FN:1686,_ZNSt3__1neIPKN7testing14TestPartResultEEEbRKNS_11__wrap_iterIT_EES9_
FNDA:0,_ZNSt3__1neIPKN7testing14TestPartResultEEEbRKNS_11__wrap_iterIT_EES9_
FN:1686,_ZNSt3__1neIPKPN7testing8TestInfoEEEbRKNS_11__wrap_iterIT_EESA_
FNDA:5,_ZNSt3__1neIPKPN7testing8TestInfoEEEbRKNS_11__wrap_iterIT_EESA_
FN:1686,_ZNSt3__1neIPKPN7testing17TestEventListenerEEEbRKNS_11__wrap_iterIT_EESA_
FNDA:2,_ZNSt3__1neIPKPN7testing17TestEventListenerEEEbRKNS_11__wrap_iterIT_EESA_
FN:1686,_ZNSt3__1neIPKPN7testing11EnvironmentEEEbRKNS_11__wrap_iterIT_EESA_
FNDA:1,_ZNSt3__1neIPKPN7testing11EnvironmentEEEbRKNS_11__wrap_iterIT_EESA_
FN:1686,_ZNSt3__1neIPPN7testing11EnvironmentEEEbRKNS_11__wrap_iterIT_EES9_
FNDA:0,_ZNSt3__1neIPPN7testing11EnvironmentEEEbRKNS_11__wrap_iterIT_EES9_
FN:1719,_ZNSt3__1miIPKN7testing8internal13edit_distance8EditTypeES6_EEDTmicldtfp_4baseEcldtfp0_4baseEERKNS_11__wrap_iterIT_EERKNS8_IT0_EE
FNDA:0,_ZNSt3__1miIPKN7testing8internal13edit_distance8EditTypeES6_EEDTmicldtfp_4baseEcldtfp0_4baseEERKNS_11__wrap_iterIT_EERKNS8_IT0_EE
FN:1719,_ZNSt3__1miIPKPcPS1_EEDTmicldtfp_4baseEcldtfp0_4baseEERKNS_11__wrap_iterIT_EERKNS6_IT0_EE
FNDA:0,_ZNSt3__1miIPKPcPS1_EEDTmicldtfp_4baseEcldtfp0_4baseEERKNS_11__wrap_iterIT_EERKNS6_IT0_EE
FN:1719,_ZNSt3__1miIPKcPcEEDTmicldtfp_4baseEcldtfp0_4baseEERKNS_11__wrap_iterIT_EERKNS5_IT0_EE
FNDA:1,_ZNSt3__1miIPKcPcEEDTmicldtfp_4baseEcldtfp0_4baseEERKNS_11__wrap_iterIT_EERKNS5_IT0_EE
FN:1719,_ZNSt3__1miIPKPN7testing17TestEventListenerES5_EEDTmicldtfp_4baseEcldtfp0_4baseEERKNS_11__wrap_iterIT_EERKNS7_IT0_EE
FNDA:0,_ZNSt3__1miIPKPN7testing17TestEventListenerES5_EEDTmicldtfp_4baseEcldtfp0_4baseEERKNS_11__wrap_iterIT_EERKNS7_IT0_EE
FN:1719,_ZNSt3__1miIPKPN7testing9TestSuiteEPS3_EEDTmicldtfp_4baseEcldtfp0_4baseEERKNS_11__wrap_iterIT_EERKNS8_IT0_EE
FNDA:0,_ZNSt3__1miIPKPN7testing9TestSuiteEPS3_EEDTmicldtfp_4baseEcldtfp0_4baseEERKNS_11__wrap_iterIT_EERKNS8_IT0_EE
FN:1719,_ZNSt3__1miIPKcS2_EEDTmicldtfp_4baseEcldtfp0_4baseEERKNS_11__wrap_iterIT_EERKNS4_IT0_EE
FNDA:1,_ZNSt3__1miIPKcS2_EEDTmicldtfp_4baseEcldtfp0_4baseEERKNS_11__wrap_iterIT_EERKNS4_IT0_EE
FN:1719,_ZNSt3__1miIPKNS_12basic_stringIcNS_11char_traitsIcEENS_9allocatorIcEEEES8_EEDTmicldtfp_4baseEcldtfp0_4baseEERKNS_11__wrap_iterIT_EERKNSA_IT0_EE
FNDA:0,_ZNSt3__1miIPKNS_12basic_stringIcNS_11char_traitsIcEENS_9allocatorIcEEEES8_EEDTmicldtfp_4baseEcldtfp0_4baseEERKNS_11__wrap_iterIT_EERKNSA_IT0_EE
DA:658,6
DA:661,6
DA:662,6
DA:666,6
DA:671,6
DA:672,6
DA:673,6
DA:689,0
DA:691,0
DA:697,0
DA:699,0
DA:726,6
DA:731,6
DA:732,6
DA:769,24
DA:778,16
DA:780,6
DA:784,0
DA:822,8
DA:824,8
DA:1181,0
DA:1182,0
DA:1194,0
DA:1230,0
DA:1234,0
DA:1236,0
DA:1240,0
DA:1311,0
DA:1314,0
DA:1446,4
DA:1448,2
DA:1449,2
DA:1453,4
DA:1477,118
DA:1483,118
DA:1485,0
DA:1491,0
DA:1493,106
DA:1499,106
DA:1500,106
DA:1502,49
DA:1503,49
DA:1505,6
DA:1511,6
DA:1512,6
DA:1516,1
DA:1517,1
DA:1518,7
DA:1524,7
DA:1525,7
DA:1527,0
DA:1528,0
DA:1540,168
DA:1549,80
DA:1634,81
DA:1636,81
DA:1642,0
DA:1648,0
DA:1654,0
DA:1656,0
DA:1686,74
DA:1688,74
DA:1719,2
DA:1726,2
FNF:191
FNH:62
LF:64
LH:42
end_of_record
SF:/Users/phil/Downloads/fractal/protocol/build/_deps/googletest-src/googletest/include/gtest/internal/gtest-filepath.h
FN:60,_ZN7testing8internal8FilePathD1Ev
FNDA:2,_ZN7testing8internal8FilePathD1Ev
FN:60,_ZN7testing8internal8FilePathD2Ev
FNDA:2,_ZN7testing8internal8FilePathD2Ev
FN:62,_ZN7testing8internal8FilePathC1Ev
FNDA:1,_ZN7testing8internal8FilePathC1Ev
FN:62,_ZN7testing8internal8FilePathC2Ev
FNDA:1,_ZN7testing8internal8FilePathC2Ev
FN:63,_ZN7testing8internal8FilePathC1ERKS1_
FNDA:0,_ZN7testing8internal8FilePathC1ERKS1_
FN:63,_ZN7testing8internal8FilePathC2ERKS1_
FNDA:0,_ZN7testing8internal8FilePathC2ERKS1_
FN:65,_ZN7testing8internal8FilePathC1ERKNSt3__112basic_stringIcNS2_11char_traitsIcEENS2_9allocatorIcEEEE
FNDA:1,_ZN7testing8internal8FilePathC1ERKNSt3__112basic_stringIcNS2_11char_traitsIcEENS2_9allocatorIcEEEE
FN:65,_ZN7testing8internal8FilePathC2ERKNSt3__112basic_stringIcNS2_11char_traitsIcEENS2_9allocatorIcEEEE
FNDA:1,_ZN7testing8internal8FilePathC2ERKNSt3__112basic_stringIcNS2_11char_traitsIcEENS2_9allocatorIcEEEE
FN:69,_ZN7testing8internal8FilePathaSERKS1_
FNDA:0,_ZN7testing8internal8FilePathaSERKS1_
FN:74,_ZN7testing8internal8FilePath3SetERKS1_
FNDA:1,_ZN7testing8internal8FilePath3SetERKS1_
FN:78,_ZNK7testing8internal8FilePath6stringEv
FNDA:0,_ZNK7testing8internal8FilePath6stringEv
FN:79,_ZNK7testing8internal8FilePath5c_strEv
FNDA:0,_ZNK7testing8internal8FilePath5c_strEv
FN:112,_ZNK7testing8internal8FilePath7IsEmptyEv
FNDA:5,_ZNK7testing8internal8FilePath7IsEmptyEv
DA:62,2
DA:63,0
DA:65,2
DA:66,1
DA:67,2
DA:69,0
DA:70,0
DA:71,0
DA:74,1
DA:75,1
DA:76,1
DA:78,0
DA:79,0
DA:112,5
FNF:13
FNH:8
LF:14
LH:8
end_of_record
SF:/Library/Developer/CommandLineTools/SDKs/MacOSX11.3.sdk/usr/include/c++/v1/ostream
FN:165,_ZNSt3__113basic_ostreamIcNS_11char_traitsIcEEEC2EPNS_15basic_streambufIcS2_EE
FNDA:0,_ZNSt3__113basic_ostreamIcNS_11char_traitsIcEEEC2EPNS_15basic_streambufIcS2_EE
FN:195,_ZNSt3__113basic_ostreamIcNS_11char_traitsIcEEElsEPFRS3_S4_E
FNDA:0,_ZNSt3__113basic_ostreamIcNS_11char_traitsIcEEElsEPFRS3_S4_E
FN:204,_ZNSt3__113basic_ostreamIcNS_11char_traitsIcEEElsEPFRNS_8ios_baseES5_E
FNDA:0,_ZNSt3__113basic_ostreamIcNS_11char_traitsIcEEElsEPFRNS_8ios_baseES5_E
FN:241,_ZNSt3__113basic_ostreamIcNS_11char_traitsIcEEEC2Ev
FNDA:45,_ZNSt3__113basic_ostreamIcNS_11char_traitsIcEEEC2Ev
FN:259,_ZNKSt3__113basic_ostreamIcNS_11char_traitsIcEEE6sentrycvbEv
FNDA:0,_ZNKSt3__113basic_ostreamIcNS_11char_traitsIcEEE6sentrycvbEv
FN:719,_ZNSt3__124__put_character_sequenceIcNS_11char_traitsIcEEEERNS_13basic_ostreamIT_T0_EES7_PKS4_m
FNDA:0,_ZNSt3__124__put_character_sequenceIcNS_11char_traitsIcEEEERNS_13basic_ostreamIT_T0_EES7_PKS4_m
FN:793,_ZNSt3__1lsINS_11char_traitsIcEEEERNS_13basic_ostreamIcT_EES6_c
FNDA:414,_ZNSt3__1lsINS_11char_traitsIcEEEERNS_13basic_ostreamIcT_EES6_c
FN:867,_ZNSt3__1lsINS_11char_traitsIcEEEERNS_13basic_ostreamIcT_EES6_PKc
FNDA:0,_ZNSt3__1lsINS_11char_traitsIcEEEERNS_13basic_ostreamIcT_EES6_PKc
FN:1004,_ZNSt3__14endlIcNS_11char_traitsIcEEEERNS_13basic_ostreamIT_T0_EES7_
FNDA:0,_ZNSt3__14endlIcNS_11char_traitsIcEEEERNS_13basic_ostreamIT_T0_EES7_
FN:1049,_ZNSt3__1lsIcNS_11char_traitsIcEENS_9allocatorIcEEEERNS_13basic_ostreamIT_T0_EES9_RKNS_12basic_stringIS6_S7_T1_EE
FNDA:0,_ZNSt3__1lsIcNS_11char_traitsIcEENS_9allocatorIcEEEERNS_13basic_ostreamIT_T0_EES9_RKNS_12basic_stringIS6_S7_T1_EE
DA:165,0
DA:166,0
DA:195,0
DA:196,0
DA:204,0
DA:205,0
DA:241,45
DA:259,0
DA:719,0
DA:726,0
DA:727,0
DA:730,0
DA:731,0
DA:732,0
DA:733,0
DA:734,0
DA:735,0
DA:736,0
DA:737,0
DA:738,0
DA:739,0
DA:741,0
DA:744,0
DA:745,0
DA:747,0
DA:748,0
DA:793,414
DA:795,414
DA:867,0
DA:869,0
DA:1004,0
DA:1006,0
DA:1007,0
DA:1008,0
DA:1049,0
DA:1052,0
FNF:10
FNH:2
LF:36
LH:3
end_of_record
SF:/Library/Developer/CommandLineTools/SDKs/MacOSX11.3.sdk/usr/include/c++/v1/istream
FN:190,_ZNSt3__113basic_istreamIcNS_11char_traitsIcEEEC2EPNS_15basic_streambufIcS2_EE
FNDA:45,_ZNSt3__113basic_istreamIcNS_11char_traitsIcEEEC2EPNS_15basic_streambufIcS2_EE
FN:1407,_ZNSt3__114basic_iostreamIcNS_11char_traitsIcEEEC2EPNS_15basic_streambufIcS2_EE
FNDA:45,_ZNSt3__114basic_iostreamIcNS_11char_traitsIcEEEC2EPNS_15basic_streambufIcS2_EE
DA:190,90
DA:191,90
DA:1407,90
DA:1408,45
DA:1409,90
FNF:2
FNH:2
LF:5
LH:5
end_of_record
SF:/Library/Developer/CommandLineTools/SDKs/MacOSX11.3.sdk/usr/include/c++/v1/iosfwd
FN:130,_ZNSt3__115basic_stringbufIcNS_11char_traitsIcEENS_9allocatorIcEEED1Ev
FNDA:0,_ZNSt3__115basic_stringbufIcNS_11char_traitsIcEENS_9allocatorIcEEED1Ev
FN:130,_ZNSt3__115basic_stringbufIcNS_11char_traitsIcEENS_9allocatorIcEEED2Ev
FNDA:0,_ZNSt3__115basic_stringbufIcNS_11char_traitsIcEENS_9allocatorIcEEED2Ev
FN:130,_ZNSt3__115basic_stringbufIcNS_11char_traitsIcEENS_9allocatorIcEEED0Ev
FNDA:0,_ZNSt3__115basic_stringbufIcNS_11char_traitsIcEENS_9allocatorIcEEED0Ev
FN:136,_ZNSt3__119basic_ostringstreamIcNS_11char_traitsIcEENS_9allocatorIcEEED1Ev
FNDA:0,_ZNSt3__119basic_ostringstreamIcNS_11char_traitsIcEENS_9allocatorIcEEED1Ev
FN:136,_ZNSt3__119basic_ostringstreamIcNS_11char_traitsIcEENS_9allocatorIcEEED2Ev
FNDA:0,_ZNSt3__119basic_ostringstreamIcNS_11char_traitsIcEENS_9allocatorIcEEED2Ev
FN:136,_ZNSt3__119basic_ostringstreamIcNS_11char_traitsIcEENS_9allocatorIcEEED0Ev
FNDA:0,_ZNSt3__119basic_ostringstreamIcNS_11char_traitsIcEENS_9allocatorIcEEED0Ev
FN:139,_ZNSt3__118basic_stringstreamIcNS_11char_traitsIcEENS_9allocatorIcEEED1Ev
FNDA:0,_ZNSt3__118basic_stringstreamIcNS_11char_traitsIcEENS_9allocatorIcEEED1Ev
FN:139,_ZNSt3__118basic_stringstreamIcNS_11char_traitsIcEENS_9allocatorIcEEED2Ev
FNDA:0,_ZNSt3__118basic_stringstreamIcNS_11char_traitsIcEENS_9allocatorIcEEED2Ev
FN:139,_ZNSt3__118basic_stringstreamIcNS_11char_traitsIcEENS_9allocatorIcEEED0Ev
FNDA:0,_ZNSt3__118basic_stringstreamIcNS_11char_traitsIcEENS_9allocatorIcEEED0Ev
FNF:9
FNH:0
LF:0
LH:0
end_of_record
SF:/Library/Developer/CommandLineTools/SDKs/MacOSX11.3.sdk/usr/include/c++/v1/map
FN:508,_ZNSt3__119__map_value_compareINS_12basic_stringIcNS_11char_traitsIcEENS_9allocatorIcEEEENS_12__value_typeIS6_mEENS_4lessIS6_EELb1EEC1ESA_
FNDA:0,_ZNSt3__119__map_value_compareINS_12basic_stringIcNS_11char_traitsIcEENS_9allocatorIcEEEENS_12__value_typeIS6_mEENS_4lessIS6_EELb1EEC1ESA_
FN:508,_ZNSt3__119__map_value_compareINS_12basic_stringIcNS_11char_traitsIcEENS_9allocatorIcEEEENS_12__value_typeIS6_mEENS_4lessIS6_EELb1EEC2ESA_
FNDA:0,_ZNSt3__119__map_value_compareINS_12basic_stringIcNS_11char_traitsIcEENS_9allocatorIcEEEENS_12__value_typeIS6_mEENS_4lessIS6_EELb1EEC2ESA_
FN:508,_ZNSt3__119__map_value_compareINS_12basic_stringIcNS_11char_traitsIcEENS_9allocatorIcEEEENS_12__value_typeIS6_N7testing8internal34TypeParameterizedTestSuiteRegistry30TypeParameterizedTestSuiteInfoEEENS_4lessIS6_EELb1EEC1ESE_
FNDA:1,_ZNSt3__119__map_value_compareINS_12basic_stringIcNS_11char_traitsIcEENS_9allocatorIcEEEENS_12__value_typeIS6_N7testing8internal34TypeParameterizedTestSuiteRegistry30TypeParameterizedTestSuiteInfoEEENS_4lessIS6_EELb1EEC1ESE_
FN:508,_ZNSt3__119__map_value_compareINS_12basic_stringIcNS_11char_traitsIcEENS_9allocatorIcEEEENS_12__value_typeIS6_N7testing8internal34TypeParameterizedTestSuiteRegistry30TypeParameterizedTestSuiteInfoEEENS_4lessIS6_EELb1EEC2ESE_
FNDA:1,_ZNSt3__119__map_value_compareINS_12basic_stringIcNS_11char_traitsIcEENS_9allocatorIcEEEENS_12__value_typeIS6_N7testing8internal34TypeParameterizedTestSuiteRegistry30TypeParameterizedTestSuiteInfoEEENS_4lessIS6_EELb1EEC2ESE_
FN:517,_ZNKSt3__119__map_value_compareINS_12basic_stringIcNS_11char_traitsIcEENS_9allocatorIcEEEENS_12__value_typeIS6_mEENS_4lessIS6_EELb1EEclERKS8_RKS6_
FNDA:0,_ZNKSt3__119__map_value_compareINS_12basic_stringIcNS_11char_traitsIcEENS_9allocatorIcEEEENS_12__value_typeIS6_mEENS_4lessIS6_EELb1EEclERKS8_RKS6_
FN:517,_ZNKSt3__119__map_value_compareINS_12basic_stringIcNS_11char_traitsIcEENS_9allocatorIcEEEENS_12__value_typeIS6_N7testing8internal12CodeLocationEEENS_4lessIS6_EELb1EEclERKSB_RKS6_
FNDA:0,_ZNKSt3__119__map_value_compareINS_12basic_stringIcNS_11char_traitsIcEENS_9allocatorIcEEEENS_12__value_typeIS6_N7testing8internal12CodeLocationEEENS_4lessIS6_EELb1EEclERKSB_RKS6_
FN:517,_ZNKSt3__119__map_value_compareINS_12basic_stringIcNS_11char_traitsIcEENS_9allocatorIcEEEENS_12__value_typeIS6_N7testing8internal34TypeParameterizedTestSuiteRegistry30TypeParameterizedTestSuiteInfoEEENS_4lessIS6_EELb1EEclERKSC_RKS6_
FNDA:0,_ZNKSt3__119__map_value_compareINS_12basic_stringIcNS_11char_traitsIcEENS_9allocatorIcEEEENS_12__value_typeIS6_N7testing8internal34TypeParameterizedTestSuiteRegistry30TypeParameterizedTestSuiteInfoEEENS_4lessIS6_EELb1EEclERKSC_RKS6_
FN:520,_ZNKSt3__119__map_value_compareINS_12basic_stringIcNS_11char_traitsIcEENS_9allocatorIcEEEENS_12__value_typeIS6_mEENS_4lessIS6_EELb1EEclERKS6_RKS8_
FNDA:0,_ZNKSt3__119__map_value_compareINS_12basic_stringIcNS_11char_traitsIcEENS_9allocatorIcEEEENS_12__value_typeIS6_mEENS_4lessIS6_EELb1EEclERKS6_RKS8_
FN:520,_ZNKSt3__119__map_value_compareINS_12basic_stringIcNS_11char_traitsIcEENS_9allocatorIcEEEENS_12__value_typeIS6_N7testing8internal12CodeLocationEEENS_4lessIS6_EELb1EEclERKS6_RKSB_
FNDA:0,_ZNKSt3__119__map_value_compareINS_12basic_stringIcNS_11char_traitsIcEENS_9allocatorIcEEEENS_12__value_typeIS6_N7testing8internal12CodeLocationEEENS_4lessIS6_EELb1EEclERKS6_RKSB_
FN:520,_ZNKSt3__119__map_value_compareINS_12basic_stringIcNS_11char_traitsIcEENS_9allocatorIcEEEENS_12__value_typeIS6_N7testing8internal34TypeParameterizedTestSuiteRegistry30TypeParameterizedTestSuiteInfoEEENS_4lessIS6_EELb1EEclERKS6_RKSC_
FNDA:0,_ZNKSt3__119__map_value_compareINS_12basic_stringIcNS_11char_traitsIcEENS_9allocatorIcEEEENS_12__value_typeIS6_N7testing8internal34TypeParameterizedTestSuiteRegistry30TypeParameterizedTestSuiteInfoEEENS_4lessIS6_EELb1EEclERKS6_RKSC_
FN:672,_ZNSt3__112__value_typeINS_12basic_stringIcNS_11char_traitsIcEENS_9allocatorIcEEEEmE11__get_valueEv
FNDA:0,_ZNSt3__112__value_typeINS_12basic_stringIcNS_11char_traitsIcEENS_9allocatorIcEEEEmE11__get_valueEv
FN:672,_ZNSt3__112__value_typeINS_12basic_stringIcNS_11char_traitsIcEENS_9allocatorIcEEEEN7testing8internal34TypeParameterizedTestSuiteRegistry30TypeParameterizedTestSuiteInfoEE11__get_valueEv
FNDA:0,_ZNSt3__112__value_typeINS_12basic_stringIcNS_11char_traitsIcEENS_9allocatorIcEEEEN7testing8internal34TypeParameterizedTestSuiteRegistry30TypeParameterizedTestSuiteInfoEE11__get_valueEv
FN:682,_ZNKSt3__112__value_typeINS_12basic_stringIcNS_11char_traitsIcEENS_9allocatorIcEEEEmE11__get_valueEv
FNDA:0,_ZNKSt3__112__value_typeINS_12basic_stringIcNS_11char_traitsIcEENS_9allocatorIcEEEEmE11__get_valueEv
FN:682,_ZNKSt3__112__value_typeINS_12basic_stringIcNS_11char_traitsIcEENS_9allocatorIcEEEEN7testing8internal12CodeLocationEE11__get_valueEv
FNDA:0,_ZNKSt3__112__value_typeINS_12basic_stringIcNS_11char_traitsIcEENS_9allocatorIcEEEEN7testing8internal12CodeLocationEE11__get_valueEv
FN:682,_ZNKSt3__112__value_typeINS_12basic_stringIcNS_11char_traitsIcEENS_9allocatorIcEEEEN7testing8internal34TypeParameterizedTestSuiteRegistry30TypeParameterizedTestSuiteInfoEE11__get_valueEv
FNDA:0,_ZNKSt3__112__value_typeINS_12basic_stringIcNS_11char_traitsIcEENS_9allocatorIcEEEEN7testing8internal34TypeParameterizedTestSuiteRegistry30TypeParameterizedTestSuiteInfoEE11__get_valueEv
FN:796,_ZNSt3__114__map_iteratorINS_15__tree_iteratorINS_12__value_typeINS_12basic_stringIcNS_11char_traitsIcEENS_9allocatorIcEEEEmEEPNS_11__tree_nodeIS9_PvEElEEEC1ESE_
FNDA:0,_ZNSt3__114__map_iteratorINS_15__tree_iteratorINS_12__value_typeINS_12basic_stringIcNS_11char_traitsIcEENS_9allocatorIcEEEEmEEPNS_11__tree_nodeIS9_PvEElEEEC1ESE_
FN:796,_ZNSt3__114__map_iteratorINS_15__tree_iteratorINS_12__value_typeINS_12basic_stringIcNS_11char_traitsIcEENS_9allocatorIcEEEEmEEPNS_11__tree_nodeIS9_PvEElEEEC2ESE_
FNDA:0,_ZNSt3__114__map_iteratorINS_15__tree_iteratorINS_12__value_typeINS_12basic_stringIcNS_11char_traitsIcEENS_9allocatorIcEEEEmEEPNS_11__tree_nodeIS9_PvEElEEEC2ESE_
FN:796,_ZNSt3__114__map_iteratorINS_15__tree_iteratorINS_12__value_typeINS_12basic_stringIcNS_11char_traitsIcEENS_9allocatorIcEEEEN7testing8internal34TypeParameterizedTestSuiteRegistry30TypeParameterizedTestSuiteInfoEEEPNS_11__tree_nodeISD_PvEElEEEC1ESI_
FNDA:2,_ZNSt3__114__map_iteratorINS_15__tree_iteratorINS_12__value_typeINS_12basic_stringIcNS_11char_traitsIcEENS_9allocatorIcEEEEN7testing8internal34TypeParameterizedTestSuiteRegistry30TypeParameterizedTestSuiteInfoEEEPNS_11__tree_nodeISD_PvEElEEEC1ESI_
FN:796,_ZNSt3__114__map_iteratorINS_15__tree_iteratorINS_12__value_typeINS_12basic_stringIcNS_11char_traitsIcEENS_9allocatorIcEEEEN7testing8internal34TypeParameterizedTestSuiteRegistry30TypeParameterizedTestSuiteInfoEEEPNS_11__tree_nodeISD_PvEElEEEC2ESI_
FNDA:2,_ZNSt3__114__map_iteratorINS_15__tree_iteratorINS_12__value_typeINS_12basic_stringIcNS_11char_traitsIcEENS_9allocatorIcEEEEN7testing8internal34TypeParameterizedTestSuiteRegistry30TypeParameterizedTestSuiteInfoEEEPNS_11__tree_nodeISD_PvEElEEEC2ESI_
FN:796,_ZNSt3__114__map_iteratorINS_15__tree_iteratorINS_12__value_typeINS_12basic_stringIcNS_11char_traitsIcEENS_9allocatorIcEEEEN7testing8internal12CodeLocationEEEPNS_11__tree_nodeISC_PvEElEEEC1ESH_
FNDA:0,_ZNSt3__114__map_iteratorINS_15__tree_iteratorINS_12__value_typeINS_12basic_stringIcNS_11char_traitsIcEENS_9allocatorIcEEEEN7testing8internal12CodeLocationEEEPNS_11__tree_nodeISC_PvEElEEEC1ESH_
FN:796,_ZNSt3__114__map_iteratorINS_15__tree_iteratorINS_12__value_typeINS_12basic_stringIcNS_11char_traitsIcEENS_9allocatorIcEEEEN7testing8internal12CodeLocationEEEPNS_11__tree_nodeISC_PvEElEEEC2ESH_
FNDA:0,_ZNSt3__114__map_iteratorINS_15__tree_iteratorINS_12__value_typeINS_12basic_stringIcNS_11char_traitsIcEENS_9allocatorIcEEEEN7testing8internal12CodeLocationEEEPNS_11__tree_nodeISC_PvEElEEEC2ESH_
FN:799,_ZNKSt3__114__map_iteratorINS_15__tree_iteratorINS_12__value_typeINS_12basic_stringIcNS_11char_traitsIcEENS_9allocatorIcEEEEN7testing8internal34TypeParameterizedTestSuiteRegistry30TypeParameterizedTestSuiteInfoEEEPNS_11__tree_nodeISD_PvEElEEEdeEv
FNDA:0,_ZNKSt3__114__map_iteratorINS_15__tree_iteratorINS_12__value_typeINS_12basic_stringIcNS_11char_traitsIcEENS_9allocatorIcEEEEN7testing8internal34TypeParameterizedTestSuiteRegistry30TypeParameterizedTestSuiteInfoEEEPNS_11__tree_nodeISD_PvEElEEEdeEv
FN:801,_ZNKSt3__114__map_iteratorINS_15__tree_iteratorINS_12__value_typeINS_12basic_stringIcNS_11char_traitsIcEENS_9allocatorIcEEEEN7testing8internal34TypeParameterizedTestSuiteRegistry30TypeParameterizedTestSuiteInfoEEEPNS_11__tree_nodeISD_PvEElEEEptEv
FNDA:0,_ZNKSt3__114__map_iteratorINS_15__tree_iteratorINS_12__value_typeINS_12basic_stringIcNS_11char_traitsIcEENS_9allocatorIcEEEEN7testing8internal34TypeParameterizedTestSuiteRegistry30TypeParameterizedTestSuiteInfoEEEPNS_11__tree_nodeISD_PvEElEEEptEv
FN:801,_ZNKSt3__114__map_iteratorINS_15__tree_iteratorINS_12__value_typeINS_12basic_stringIcNS_11char_traitsIcEENS_9allocatorIcEEEEmEEPNS_11__tree_nodeIS9_PvEElEEEptEv
FNDA:0,_ZNKSt3__114__map_iteratorINS_15__tree_iteratorINS_12__value_typeINS_12basic_stringIcNS_11char_traitsIcEENS_9allocatorIcEEEEmEEPNS_11__tree_nodeIS9_PvEElEEEptEv
FN:804,_ZNSt3__114__map_iteratorINS_15__tree_iteratorINS_12__value_typeINS_12basic_stringIcNS_11char_traitsIcEENS_9allocatorIcEEEEN7testing8internal34TypeParameterizedTestSuiteRegistry30TypeParameterizedTestSuiteInfoEEEPNS_11__tree_nodeISD_PvEElEEEppEv
FNDA:0,_ZNSt3__114__map_iteratorINS_15__tree_iteratorINS_12__value_typeINS_12basic_stringIcNS_11char_traitsIcEENS_9allocatorIcEEEEN7testing8internal34TypeParameterizedTestSuiteRegistry30TypeParameterizedTestSuiteInfoEEEPNS_11__tree_nodeISD_PvEElEEEppEv
FN:828,_ZNSt3__1neERKNS_14__map_iteratorINS_15__tree_iteratorINS_12__value_typeINS_12basic_stringIcNS_11char_traitsIcEENS_9allocatorIcEEEEN7testing8internal34TypeParameterizedTestSuiteRegistry30TypeParameterizedTestSuiteInfoEEEPNS_11__tree_nodeISD_PvEElEEEESL_
FNDA:1,_ZNSt3__1neERKNS_14__map_iteratorINS_15__tree_iteratorINS_12__value_typeINS_12basic_stringIcNS_11char_traitsIcEENS_9allocatorIcEEEEN7testing8internal34TypeParameterizedTestSuiteRegistry30TypeParameterizedTestSuiteInfoEEEPNS_11__tree_nodeISD_PvEElEEEESL_
FN:828,_ZNSt3__1neERKNS_14__map_iteratorINS_15__tree_iteratorINS_12__value_typeINS_12basic_stringIcNS_11char_traitsIcEENS_9allocatorIcEEEEmEEPNS_11__tree_nodeIS9_PvEElEEEESH_
FNDA:0,_ZNSt3__1neERKNS_14__map_iteratorINS_15__tree_iteratorINS_12__value_typeINS_12basic_stringIcNS_11char_traitsIcEENS_9allocatorIcEEEEmEEPNS_11__tree_nodeIS9_PvEElEEEESH_
FN:857,_ZNSt3__120__map_const_iteratorINS_21__tree_const_iteratorINS_12__value_typeINS_12basic_stringIcNS_11char_traitsIcEENS_9allocatorIcEEEEN7testing8internal12CodeLocationEEEPNS_11__tree_nodeISC_PvEElEEEC1ENS_14__map_iteratorINS_15__tree_iteratorISC_SG_lEEEE
FNDA:0,_ZNSt3__120__map_const_iteratorINS_21__tree_const_iteratorINS_12__value_typeINS_12basic_stringIcNS_11char_traitsIcEENS_9allocatorIcEEEEN7testing8internal12CodeLocationEEEPNS_11__tree_nodeISC_PvEElEEEC1ENS_14__map_iteratorINS_15__tree_iteratorISC_SG_lEEEE
FN:857,_ZNSt3__120__map_const_iteratorINS_21__tree_const_iteratorINS_12__value_typeINS_12basic_stringIcNS_11char_traitsIcEENS_9allocatorIcEEEEN7testing8internal12CodeLocationEEEPNS_11__tree_nodeISC_PvEElEEEC2ENS_14__map_iteratorINS_15__tree_iteratorISC_SG_lEEEE
FNDA:0,_ZNSt3__120__map_const_iteratorINS_21__tree_const_iteratorINS_12__value_typeINS_12basic_stringIcNS_11char_traitsIcEENS_9allocatorIcEEEEN7testing8internal12CodeLocationEEEPNS_11__tree_nodeISC_PvEElEEEC2ENS_14__map_iteratorINS_15__tree_iteratorISC_SG_lEEEE
FN:864,_ZNKSt3__120__map_const_iteratorINS_21__tree_const_iteratorINS_12__value_typeINS_12basic_stringIcNS_11char_traitsIcEENS_9allocatorIcEEEEN7testing8internal12CodeLocationEEEPNS_11__tree_nodeISC_PvEElEEEptEv
FNDA:0,_ZNKSt3__120__map_const_iteratorINS_21__tree_const_iteratorINS_12__value_typeINS_12basic_stringIcNS_11char_traitsIcEENS_9allocatorIcEEEEN7testing8internal12CodeLocationEEEPNS_11__tree_nodeISC_PvEElEEEptEv
FN:867,_ZNSt3__120__map_const_iteratorINS_21__tree_const_iteratorINS_12__value_typeINS_12basic_stringIcNS_11char_traitsIcEENS_9allocatorIcEEEEN7testing8internal12CodeLocationEEEPNS_11__tree_nodeISC_PvEElEEEppEv
FNDA:0,_ZNSt3__120__map_const_iteratorINS_21__tree_const_iteratorINS_12__value_typeINS_12basic_stringIcNS_11char_traitsIcEENS_9allocatorIcEEEEN7testing8internal12CodeLocationEEEPNS_11__tree_nodeISC_PvEElEEEppEv
FN:890,_ZNSt3__1neERKNS_20__map_const_iteratorINS_21__tree_const_iteratorINS_12__value_typeINS_12basic_stringIcNS_11char_traitsIcEENS_9allocatorIcEEEEN7testing8internal12CodeLocationEEEPNS_11__tree_nodeISC_PvEElEEEESK_
FNDA:0,_ZNSt3__1neERKNS_20__map_const_iteratorINS_21__tree_const_iteratorINS_12__value_typeINS_12basic_stringIcNS_11char_traitsIcEENS_9allocatorIcEEEEN7testing8internal12CodeLocationEEEPNS_11__tree_nodeISC_PvEElEEEESK_
FN:962,_ZNSt3__13mapINS_12basic_stringIcNS_11char_traitsIcEENS_9allocatorIcEEEEmNS_4lessIS6_EENS4_INS_4pairIKS6_mEEEEEC1Ev
FNDA:0,_ZNSt3__13mapINS_12basic_stringIcNS_11char_traitsIcEENS_9allocatorIcEEEEmNS_4lessIS6_EENS4_INS_4pairIKS6_mEEEEEC1Ev
FN:962,_ZNSt3__13mapINS_12basic_stringIcNS_11char_traitsIcEENS_9allocatorIcEEEEmNS_4lessIS6_EENS4_INS_4pairIKS6_mEEEEEC2Ev
FNDA:0,_ZNSt3__13mapINS_12basic_stringIcNS_11char_traitsIcEENS_9allocatorIcEEEEmNS_4lessIS6_EENS4_INS_4pairIKS6_mEEEEEC2Ev
FN:962,_ZNSt3__13mapINS_12basic_stringIcNS_11char_traitsIcEENS_9allocatorIcEEEEN7testing8internal34TypeParameterizedTestSuiteRegistry30TypeParameterizedTestSuiteInfoENS_4lessIS6_EENS4_INS_4pairIKS6_SA_EEEEEC1Ev
FNDA:1,_ZNSt3__13mapINS_12basic_stringIcNS_11char_traitsIcEENS_9allocatorIcEEEEN7testing8internal34TypeParameterizedTestSuiteRegistry30TypeParameterizedTestSuiteInfoENS_4lessIS6_EENS4_INS_4pairIKS6_SA_EEEEEC1Ev
FN:962,_ZNSt3__13mapINS_12basic_stringIcNS_11char_traitsIcEENS_9allocatorIcEEEEN7testing8internal34TypeParameterizedTestSuiteRegistry30TypeParameterizedTestSuiteInfoENS_4lessIS6_EENS4_INS_4pairIKS6_SA_EEEEEC2Ev
FNDA:1,_ZNSt3__13mapINS_12basic_stringIcNS_11char_traitsIcEENS_9allocatorIcEEEEN7testing8internal34TypeParameterizedTestSuiteRegistry30TypeParameterizedTestSuiteInfoENS_4lessIS6_EENS4_INS_4pairIKS6_SA_EEEEEC2Ev
FN:1090,_ZNSt3__13mapINS_12basic_stringIcNS_11char_traitsIcEENS_9allocatorIcEEEEmNS_4lessIS6_EENS4_INS_4pairIKS6_mEEEEED1Ev
FNDA:0,_ZNSt3__13mapINS_12basic_stringIcNS_11char_traitsIcEENS_9allocatorIcEEEEmNS_4lessIS6_EENS4_INS_4pairIKS6_mEEEEED1Ev
FN:1090,_ZNSt3__13mapINS_12basic_stringIcNS_11char_traitsIcEENS_9allocatorIcEEEEmNS_4lessIS6_EENS4_INS_4pairIKS6_mEEEEED2Ev
FNDA:0,_ZNSt3__13mapINS_12basic_stringIcNS_11char_traitsIcEENS_9allocatorIcEEEEmNS_4lessIS6_EENS4_INS_4pairIKS6_mEEEEED2Ev
FN:1090,_ZNSt3__13mapINS_12basic_stringIcNS_11char_traitsIcEENS_9allocatorIcEEEEN7testing8internal34TypeParameterizedTestSuiteRegistry30TypeParameterizedTestSuiteInfoENS_4lessIS6_EENS4_INS_4pairIKS6_SA_EEEEED1Ev
FNDA:1,_ZNSt3__13mapINS_12basic_stringIcNS_11char_traitsIcEENS_9allocatorIcEEEEN7testing8internal34TypeParameterizedTestSuiteRegistry30TypeParameterizedTestSuiteInfoENS_4lessIS6_EENS4_INS_4pairIKS6_SA_EEEEED1Ev
FN:1090,_ZNSt3__13mapINS_12basic_stringIcNS_11char_traitsIcEENS_9allocatorIcEEEEN7testing8internal34TypeParameterizedTestSuiteRegistry30TypeParameterizedTestSuiteInfoENS_4lessIS6_EENS4_INS_4pairIKS6_SA_EEEEED2Ev
FNDA:1,_ZNSt3__13mapINS_12basic_stringIcNS_11char_traitsIcEENS_9allocatorIcEEEEN7testing8internal34TypeParameterizedTestSuiteRegistry30TypeParameterizedTestSuiteInfoENS_4lessIS6_EENS4_INS_4pairIKS6_SA_EEEEED2Ev
FN:1095,_ZNSt3__13mapINS_12basic_stringIcNS_11char_traitsIcEENS_9allocatorIcEEEEN7testing8internal34TypeParameterizedTestSuiteRegistry30TypeParameterizedTestSuiteInfoENS_4lessIS6_EENS4_INS_4pairIKS6_SA_EEEEE5beginEv
FNDA:1,_ZNSt3__13mapINS_12basic_stringIcNS_11char_traitsIcEENS_9allocatorIcEEEEN7testing8internal34TypeParameterizedTestSuiteRegistry30TypeParameterizedTestSuiteInfoENS_4lessIS6_EENS4_INS_4pairIKS6_SA_EEEEE5beginEv
FN:1095,_ZNSt3__13mapINS_12basic_stringIcNS_11char_traitsIcEENS_9allocatorIcEEEEN7testing8internal12CodeLocationENS_4lessIS6_EENS4_INS_4pairIKS6_S9_EEEEE5beginEv
FNDA:0,_ZNSt3__13mapINS_12basic_stringIcNS_11char_traitsIcEENS_9allocatorIcEEEEN7testing8internal12CodeLocationENS_4lessIS6_EENS4_INS_4pairIKS6_S9_EEEEE5beginEv
FN:1099,_ZNSt3__13mapINS_12basic_stringIcNS_11char_traitsIcEENS_9allocatorIcEEEEN7testing8internal34TypeParameterizedTestSuiteRegistry30TypeParameterizedTestSuiteInfoENS_4lessIS6_EENS4_INS_4pairIKS6_SA_EEEEE3endEv
FNDA:1,_ZNSt3__13mapINS_12basic_stringIcNS_11char_traitsIcEENS_9allocatorIcEEEEN7testing8internal34TypeParameterizedTestSuiteRegistry30TypeParameterizedTestSuiteInfoENS_4lessIS6_EENS4_INS_4pairIKS6_SA_EEEEE3endEv
FN:1099,_ZNSt3__13mapINS_12basic_stringIcNS_11char_traitsIcEENS_9allocatorIcEEEEN7testing8internal12CodeLocationENS_4lessIS6_EENS4_INS_4pairIKS6_S9_EEEEE3endEv
FNDA:0,_ZNSt3__13mapINS_12basic_stringIcNS_11char_traitsIcEENS_9allocatorIcEEEEN7testing8internal12CodeLocationENS_4lessIS6_EENS4_INS_4pairIKS6_S9_EEEEE3endEv
FN:1099,_ZNSt3__13mapINS_12basic_stringIcNS_11char_traitsIcEENS_9allocatorIcEEEEmNS_4lessIS6_EENS4_INS_4pairIKS6_mEEEEE3endEv
FNDA:0,_ZNSt3__13mapINS_12basic_stringIcNS_11char_traitsIcEENS_9allocatorIcEEEEmNS_4lessIS6_EENS4_INS_4pairIKS6_mEEEEE3endEv
FN:1127,_ZNKSt3__13mapINS_12basic_stringIcNS_11char_traitsIcEENS_9allocatorIcEEEEmNS_4lessIS6_EENS4_INS_4pairIKS6_mEEEEE4sizeEv
FNDA:0,_ZNKSt3__13mapINS_12basic_stringIcNS_11char_traitsIcEENS_9allocatorIcEEEEmNS_4lessIS6_EENS4_INS_4pairIKS6_mEEEEE4sizeEv
FN:1149,_ZNSt3__13mapINS_12basic_stringIcNS_11char_traitsIcEENS_9allocatorIcEEEEN7testing8internal34TypeParameterizedTestSuiteRegistry30TypeParameterizedTestSuiteInfoENS_4lessIS6_EENS4_INS_4pairIKS6_SA_EEEEE7emplaceIJS6_SA_EEENSD_INS_14__map_iteratorINS_15__tree_iteratorINS_12__value_typeIS6_SA_EEPNS_11__tree_nodeISM_PvEElEEEEbEEDpOT_
FNDA:0,_ZNSt3__13mapINS_12basic_stringIcNS_11char_traitsIcEENS_9allocatorIcEEEEN7testing8internal34TypeParameterizedTestSuiteRegistry30TypeParameterizedTestSuiteInfoENS_4lessIS6_EENS4_INS_4pairIKS6_SA_EEEEE7emplaceIJS6_SA_EEENSD_INS_14__map_iteratorINS_15__tree_iteratorINS_12__value_typeIS6_SA_EEPNS_11__tree_nodeISM_PvEElEEEEbEEDpOT_
FN:1380,_ZNSt3__13mapINS_12basic_stringIcNS_11char_traitsIcEENS_9allocatorIcEEEEN7testing8internal34TypeParameterizedTestSuiteRegistry30TypeParameterizedTestSuiteInfoENS_4lessIS6_EENS4_INS_4pairIKS6_SA_EEEEE4findERSE_
FNDA:0,_ZNSt3__13mapINS_12basic_stringIcNS_11char_traitsIcEENS_9allocatorIcEEEEN7testing8internal34TypeParameterizedTestSuiteRegistry30TypeParameterizedTestSuiteInfoENS_4lessIS6_EENS4_INS_4pairIKS6_SA_EEEEE4findERSE_
FN:1380,_ZNSt3__13mapINS_12basic_stringIcNS_11char_traitsIcEENS_9allocatorIcEEEEmNS_4lessIS6_EENS4_INS_4pairIKS6_mEEEEE4findERSA_
FNDA:0,_ZNSt3__13mapINS_12basic_stringIcNS_11char_traitsIcEENS_9allocatorIcEEEEmNS_4lessIS6_EENS4_INS_4pairIKS6_mEEEEE4findERSA_
FN:1395,_ZNKSt3__13mapINS_12basic_stringIcNS_11char_traitsIcEENS_9allocatorIcEEEEN7testing8internal12CodeLocationENS_4lessIS6_EENS4_INS_4pairIKS6_S9_EEEEE5countERSD_
FNDA:0,_ZNKSt3__13mapINS_12basic_stringIcNS_11char_traitsIcEENS_9allocatorIcEEEEN7testing8internal12CodeLocationENS_4lessIS6_EENS4_INS_4pairIKS6_S9_EEEEE5countERSD_
FN:1519,_ZNSt3__13mapINS_12basic_stringIcNS_11char_traitsIcEENS_9allocatorIcEEEEmNS_4lessIS6_EENS4_INS_4pairIKS6_mEEEEEixERSA_
FNDA:0,_ZNSt3__13mapINS_12basic_stringIcNS_11char_traitsIcEENS_9allocatorIcEEEEmNS_4lessIS6_EENS4_INS_4pairIKS6_mEEEEEixERSA_
DA:508,2
DA:510,2
DA:517,0
DA:518,0
DA:520,0
DA:521,0
DA:672,0
DA:677,0
DA:682,0
DA:687,0
DA:796,4
DA:799,0
DA:801,0
DA:804,0
DA:828,1
DA:829,1
DA:857,0
DA:859,0
DA:864,0
DA:867,0
DA:890,0
DA:891,0
DA:962,2
DA:967,2
DA:1090,2
DA:1092,2
DA:1095,1
DA:1099,1
DA:1127,0
DA:1149,0
DA:1150,0
DA:1380,0
DA:1395,0
DA:1396,0
DA:1519,0
DA:1521,0
DA:1523,0
DA:1524,0
FNF:51
FNH:11
LF:38
LH:11
end_of_record
SF:/Users/phil/Downloads/fractal/protocol/build/_deps/googletest-src/googletest/include/gtest/internal/gtest-port.h
FN:973,_ZN7testing8internal8GTestLog9GetStreamEv
FNDA:0,_ZN7testing8internal8GTestLog9GetStreamEv
FN:987,_ZN7testing8internal11LogToStderrEv
FNDA:0,_ZN7testing8internal11LogToStderrEv
FN:988,_ZN7testing8internal12FlushInfoLogEv
FNDA:0,_ZN7testing8internal12FlushInfoLogEv
FN:1066,_ZN7testing8internal13ImplicitCast_IPKvEET_S4_
FNDA:0,_ZN7testing8internal13ImplicitCast_IPKvEET_S4_
FN:1115,_ZN7testing8internal27CheckedDowncastToActualTypeINS0_11ThreadLocalINSt3__16vectorINS0_9TraceInfoENS3_9allocatorIS5_EEEEE11ValueHolderENS0_26ThreadLocalValueHolderBaseEEEPT_PT0_
FNDA:0,_ZN7testing8internal27CheckedDowncastToActualTypeINS0_11ThreadLocalINSt3__16vectorINS0_9TraceInfoENS3_9allocatorIS5_EEEEE11ValueHolderENS0_26ThreadLocalValueHolderBaseEEEPT_PT0_
FN:1115,_ZN7testing8internal27CheckedDowncastToActualTypeINS0_11ThreadLocalIPNS_31TestPartResultReporterInterfaceEE11ValueHolderENS0_26ThreadLocalValueHolderBaseEEEPT_PT0_
FNDA:0,_ZN7testing8internal27CheckedDowncastToActualTypeINS0_11ThreadLocalIPNS_31TestPartResultReporterInterfaceEE11ValueHolderENS0_26ThreadLocalValueHolderBaseEEEPT_PT0_
FN:1648,_ZN7testing8internal9MutexBase4LockEv
FNDA:0,_ZN7testing8internal9MutexBase4LockEv
FN:1655,_ZN7testing8internal9MutexBase6UnlockEv
FNDA:0,_ZN7testing8internal9MutexBase6UnlockEv
FN:1705,_ZN7testing8internal5MutexC1Ev
FNDA:8,_ZN7testing8internal5MutexC1Ev
FN:1705,_ZN7testing8internal5MutexC2Ev
FNDA:8,_ZN7testing8internal5MutexC2Ev
FN:1709,_ZN7testing8internal5MutexD1Ev
FNDA:8,_ZN7testing8internal5MutexD1Ev
FN:1709,_ZN7testing8internal5MutexD2Ev
FNDA:8,_ZN7testing8internal5MutexD2Ev
FN:1724,_ZN7testing8internal14GTestMutexLockC1EPNS0_9MutexBaseE
FNDA:0,_ZN7testing8internal14GTestMutexLockC1EPNS0_9MutexBaseE
FN:1724,_ZN7testing8internal14GTestMutexLockC2EPNS0_9MutexBaseE
FNDA:0,_ZN7testing8internal14GTestMutexLockC2EPNS0_9MutexBaseE
FN:1727,_ZN7testing8internal14GTestMutexLockD1Ev
FNDA:0,_ZN7testing8internal14GTestMutexLockD1Ev
FN:1727,_ZN7testing8internal14GTestMutexLockD2Ev
FNDA:0,_ZN7testing8internal14GTestMutexLockD2Ev
FN:1743,_ZN7testing8internal26ThreadLocalValueHolderBaseC2Ev
FNDA:0,_ZN7testing8internal26ThreadLocalValueHolderBaseC2Ev
FN:1745,_ZN7testing8internal26ThreadLocalValueHolderBaseD1Ev
FNDA:0,_ZN7testing8internal26ThreadLocalValueHolderBaseD1Ev
FN:1745,_ZN7testing8internal26ThreadLocalValueHolderBaseD0Ev
FNDA:0,_ZN7testing8internal26ThreadLocalValueHolderBaseD0Ev
FN:1745,_ZN7testing8internal26ThreadLocalValueHolderBaseD2Ev
FNDA:0,_ZN7testing8internal26ThreadLocalValueHolderBaseD2Ev
FN:1750,DeleteThreadLocalValue
FNDA:2,DeleteThreadLocalValue
FN:1758,_ZN7testing8internal11ThreadLocalINSt3__16vectorINS0_9TraceInfoENS2_9allocatorIS4_EEEEEC1Ev
FNDA:1,_ZN7testing8internal11ThreadLocalINSt3__16vectorINS0_9TraceInfoENS2_9allocatorIS4_EEEEEC1Ev
FN:1758,_ZN7testing8internal11ThreadLocalINSt3__16vectorINS0_9TraceInfoENS2_9allocatorIS4_EEEEEC2Ev
FNDA:1,_ZN7testing8internal11ThreadLocalINSt3__16vectorINS0_9TraceInfoENS2_9allocatorIS4_EEEEEC2Ev
FN:1760,_ZN7testing8internal11ThreadLocalIPNS_31TestPartResultReporterInterfaceEEC1ERKS3_
FNDA:1,_ZN7testing8internal11ThreadLocalIPNS_31TestPartResultReporterInterfaceEEC1ERKS3_
FN:1760,_ZN7testing8internal11ThreadLocalIPNS_31TestPartResultReporterInterfaceEEC2ERKS3_
FNDA:1,_ZN7testing8internal11ThreadLocalIPNS_31TestPartResultReporterInterfaceEEC2ERKS3_
FN:1764,_ZN7testing8internal11ThreadLocalINSt3__16vectorINS0_9TraceInfoENS2_9allocatorIS4_EEEEED1Ev
FNDA:1,_ZN7testing8internal11ThreadLocalINSt3__16vectorINS0_9TraceInfoENS2_9allocatorIS4_EEEEED1Ev
FN:1764,_ZN7testing8internal11ThreadLocalIPNS_31TestPartResultReporterInterfaceEED1Ev
FNDA:1,_ZN7testing8internal11ThreadLocalIPNS_31TestPartResultReporterInterfaceEED1Ev
FN:1764,_ZN7testing8internal11ThreadLocalIPNS_31TestPartResultReporterInterfaceEED2Ev
FNDA:1,_ZN7testing8internal11ThreadLocalIPNS_31TestPartResultReporterInterfaceEED2Ev
FN:1764,_ZN7testing8internal11ThreadLocalINSt3__16vectorINS0_9TraceInfoENS2_9allocatorIS4_EEEEED2Ev
FNDA:1,_ZN7testing8internal11ThreadLocalINSt3__16vectorINS0_9TraceInfoENS2_9allocatorIS4_EEEEED2Ev
FN:1773,_ZN7testing8internal11ThreadLocalINSt3__16vectorINS0_9TraceInfoENS2_9allocatorIS4_EEEEE7pointerEv
FNDA:0,_ZN7testing8internal11ThreadLocalINSt3__16vectorINS0_9TraceInfoENS2_9allocatorIS4_EEEEE7pointerEv
FN:1773,_ZN7testing8internal11ThreadLocalIPNS_31TestPartResultReporterInterfaceEE7pointerEv
FNDA:0,_ZN7testing8internal11ThreadLocalIPNS_31TestPartResultReporterInterfaceEE7pointerEv
FN:1774,_ZNK7testing8internal11ThreadLocalIPNS_31TestPartResultReporterInterfaceEE7pointerEv
FNDA:0,_ZNK7testing8internal11ThreadLocalIPNS_31TestPartResultReporterInterfaceEE7pointerEv
FN:1775,_ZNK7testing8internal11ThreadLocalIPNS_31TestPartResultReporterInterfaceEE3getEv
FNDA:0,_ZNK7testing8internal11ThreadLocalIPNS_31TestPartResultReporterInterfaceEE3getEv
FN:1776,_ZN7testing8internal11ThreadLocalIPNS_31TestPartResultReporterInterfaceEE3setERKS3_
FNDA:0,_ZN7testing8internal11ThreadLocalIPNS_31TestPartResultReporterInterfaceEE3setERKS3_
FN:1780,_ZN7testing8internal11ThreadLocalIPNS_31TestPartResultReporterInterfaceEE11ValueHolderD1Ev
FNDA:0,_ZN7testing8internal11ThreadLocalIPNS_31TestPartResultReporterInterfaceEE11ValueHolderD1Ev
FN:1780,_ZN7testing8internal11ThreadLocalIPNS_31TestPartResultReporterInterfaceEE11ValueHolderD0Ev
FNDA:0,_ZN7testing8internal11ThreadLocalIPNS_31TestPartResultReporterInterfaceEE11ValueHolderD0Ev
FN:1780,_ZN7testing8internal11ThreadLocalIPNS_31TestPartResultReporterInterfaceEE11ValueHolderD2Ev
FNDA:0,_ZN7testing8internal11ThreadLocalIPNS_31TestPartResultReporterInterfaceEE11ValueHolderD2Ev
FN:1780,_ZN7testing8internal11ThreadLocalINSt3__16vectorINS0_9TraceInfoENS2_9allocatorIS4_EEEEE11ValueHolderD1Ev
FNDA:0,_ZN7testing8internal11ThreadLocalINSt3__16vectorINS0_9TraceInfoENS2_9allocatorIS4_EEEEE11ValueHolderD1Ev
FN:1780,_ZN7testing8internal11ThreadLocalINSt3__16vectorINS0_9TraceInfoENS2_9allocatorIS4_EEEEE11ValueHolderD0Ev
FNDA:0,_ZN7testing8internal11ThreadLocalINSt3__16vectorINS0_9TraceInfoENS2_9allocatorIS4_EEEEE11ValueHolderD0Ev
FN:1780,_ZN7testing8internal11ThreadLocalINSt3__16vectorINS0_9TraceInfoENS2_9allocatorIS4_EEEEE11ValueHolderD2Ev
FNDA:0,_ZN7testing8internal11ThreadLocalINSt3__16vectorINS0_9TraceInfoENS2_9allocatorIS4_EEEEE11ValueHolderD2Ev
FN:1782,_ZN7testing8internal11ThreadLocalINSt3__16vectorINS0_9TraceInfoENS2_9allocatorIS4_EEEEE11ValueHolderC1Ev
FNDA:0,_ZN7testing8internal11ThreadLocalINSt3__16vectorINS0_9TraceInfoENS2_9allocatorIS4_EEEEE11ValueHolderC1Ev
FN:1782,_ZN7testing8internal11ThreadLocalINSt3__16vectorINS0_9TraceInfoENS2_9allocatorIS4_EEEEE11ValueHolderC2Ev
FNDA:0,_ZN7testing8internal11ThreadLocalINSt3__16vectorINS0_9TraceInfoENS2_9allocatorIS4_EEEEE11ValueHolderC2Ev
FN:1783,_ZN7testing8internal11ThreadLocalIPNS_31TestPartResultReporterInterfaceEE11ValueHolderC1ERKS3_
FNDA:0,_ZN7testing8internal11ThreadLocalIPNS_31TestPartResultReporterInterfaceEE11ValueHolderC1ERKS3_
FN:1783,_ZN7testing8internal11ThreadLocalIPNS_31TestPartResultReporterInterfaceEE11ValueHolderC2ERKS3_
FNDA:0,_ZN7testing8internal11ThreadLocalIPNS_31TestPartResultReporterInterfaceEE11ValueHolderC2ERKS3_
FN:1785,_ZN7testing8internal11ThreadLocalINSt3__16vectorINS0_9TraceInfoENS2_9allocatorIS4_EEEEE11ValueHolder7pointerEv
FNDA:0,_ZN7testing8internal11ThreadLocalINSt3__16vectorINS0_9TraceInfoENS2_9allocatorIS4_EEEEE11ValueHolder7pointerEv
FN:1785,_ZN7testing8internal11ThreadLocalIPNS_31TestPartResultReporterInterfaceEE11ValueHolder7pointerEv
FNDA:0,_ZN7testing8internal11ThreadLocalIPNS_31TestPartResultReporterInterfaceEE11ValueHolder7pointerEv
FN:1792,_ZN7testing8internal11ThreadLocalIPNS_31TestPartResultReporterInterfaceEE9CreateKeyEv
FNDA:1,_ZN7testing8internal11ThreadLocalIPNS_31TestPartResultReporterInterfaceEE9CreateKeyEv
FN:1792,_ZN7testing8internal11ThreadLocalINSt3__16vectorINS0_9TraceInfoENS2_9allocatorIS4_EEEEE9CreateKeyEv
FNDA:1,_ZN7testing8internal11ThreadLocalINSt3__16vectorINS0_9TraceInfoENS2_9allocatorIS4_EEEEE9CreateKeyEv
FN:1801,_ZNK7testing8internal11ThreadLocalINSt3__16vectorINS0_9TraceInfoENS2_9allocatorIS4_EEEEE16GetOrCreateValueEv
FNDA:0,_ZNK7testing8internal11ThreadLocalINSt3__16vectorINS0_9TraceInfoENS2_9allocatorIS4_EEEEE16GetOrCreateValueEv
FN:1801,_ZNK7testing8internal11ThreadLocalIPNS_31TestPartResultReporterInterfaceEE16GetOrCreateValueEv
FNDA:0,_ZNK7testing8internal11ThreadLocalIPNS_31TestPartResultReporterInterfaceEE16GetOrCreateValueEv
FN:1816,_ZN7testing8internal11ThreadLocalIPNS_31TestPartResultReporterInterfaceEE18ValueHolderFactoryC2Ev
FNDA:1,_ZN7testing8internal11ThreadLocalIPNS_31TestPartResultReporterInterfaceEE18ValueHolderFactoryC2Ev
FN:1816,_ZN7testing8internal11ThreadLocalINSt3__16vectorINS0_9TraceInfoENS2_9allocatorIS4_EEEEE18ValueHolderFactoryC2Ev
FNDA:1,_ZN7testing8internal11ThreadLocalINSt3__16vectorINS0_9TraceInfoENS2_9allocatorIS4_EEEEE18ValueHolderFactoryC2Ev
FN:1817,_ZN7testing8internal11ThreadLocalIPNS_31TestPartResultReporterInterfaceEE18ValueHolderFactoryD1Ev
FNDA:0,_ZN7testing8internal11ThreadLocalIPNS_31TestPartResultReporterInterfaceEE18ValueHolderFactoryD1Ev
FN:1817,_ZN7testing8internal11ThreadLocalIPNS_31TestPartResultReporterInterfaceEE18ValueHolderFactoryD0Ev
FNDA:0,_ZN7testing8internal11ThreadLocalIPNS_31TestPartResultReporterInterfaceEE18ValueHolderFactoryD0Ev
FN:1817,_ZN7testing8internal11ThreadLocalIPNS_31TestPartResultReporterInterfaceEE18ValueHolderFactoryD2Ev
FNDA:1,_ZN7testing8internal11ThreadLocalIPNS_31TestPartResultReporterInterfaceEE18ValueHolderFactoryD2Ev
FN:1817,_ZN7testing8internal11ThreadLocalINSt3__16vectorINS0_9TraceInfoENS2_9allocatorIS4_EEEEE18ValueHolderFactoryD1Ev
FNDA:0,_ZN7testing8internal11ThreadLocalINSt3__16vectorINS0_9TraceInfoENS2_9allocatorIS4_EEEEE18ValueHolderFactoryD1Ev
FN:1817,_ZN7testing8internal11ThreadLocalINSt3__16vectorINS0_9TraceInfoENS2_9allocatorIS4_EEEEE18ValueHolderFactoryD0Ev
FNDA:0,_ZN7testing8internal11ThreadLocalINSt3__16vectorINS0_9TraceInfoENS2_9allocatorIS4_EEEEE18ValueHolderFactoryD0Ev
FN:1817,_ZN7testing8internal11ThreadLocalINSt3__16vectorINS0_9TraceInfoENS2_9allocatorIS4_EEEEE18ValueHolderFactoryD2Ev
FNDA:1,_ZN7testing8internal11ThreadLocalINSt3__16vectorINS0_9TraceInfoENS2_9allocatorIS4_EEEEE18ValueHolderFactoryD2Ev
FN:1824,_ZN7testing8internal11ThreadLocalINSt3__16vectorINS0_9TraceInfoENS2_9allocatorIS4_EEEEE25DefaultValueHolderFactoryD1Ev
FNDA:1,_ZN7testing8internal11ThreadLocalINSt3__16vectorINS0_9TraceInfoENS2_9allocatorIS4_EEEEE25DefaultValueHolderFactoryD1Ev
FN:1824,_ZN7testing8internal11ThreadLocalINSt3__16vectorINS0_9TraceInfoENS2_9allocatorIS4_EEEEE25DefaultValueHolderFactoryD0Ev
FNDA:1,_ZN7testing8internal11ThreadLocalINSt3__16vectorINS0_9TraceInfoENS2_9allocatorIS4_EEEEE25DefaultValueHolderFactoryD0Ev
FN:1824,_ZN7testing8internal11ThreadLocalINSt3__16vectorINS0_9TraceInfoENS2_9allocatorIS4_EEEEE25DefaultValueHolderFactoryD2Ev
FNDA:1,_ZN7testing8internal11ThreadLocalINSt3__16vectorINS0_9TraceInfoENS2_9allocatorIS4_EEEEE25DefaultValueHolderFactoryD2Ev
FN:1826,_ZN7testing8internal11ThreadLocalINSt3__16vectorINS0_9TraceInfoENS2_9allocatorIS4_EEEEE25DefaultValueHolderFactoryC1Ev
FNDA:1,_ZN7testing8internal11ThreadLocalINSt3__16vectorINS0_9TraceInfoENS2_9allocatorIS4_EEEEE25DefaultValueHolderFactoryC1Ev
FN:1826,_ZN7testing8internal11ThreadLocalINSt3__16vectorINS0_9TraceInfoENS2_9allocatorIS4_EEEEE25DefaultValueHolderFactoryC2Ev
FNDA:1,_ZN7testing8internal11ThreadLocalINSt3__16vectorINS0_9TraceInfoENS2_9allocatorIS4_EEEEE25DefaultValueHolderFactoryC2Ev
FN:1827,_ZNK7testing8internal11ThreadLocalINSt3__16vectorINS0_9TraceInfoENS2_9allocatorIS4_EEEEE25DefaultValueHolderFactory13MakeNewHolderEv
FNDA:0,_ZNK7testing8internal11ThreadLocalINSt3__16vectorINS0_9TraceInfoENS2_9allocatorIS4_EEEEE25DefaultValueHolderFactory13MakeNewHolderEv
FN:1833,_ZN7testing8internal11ThreadLocalIPNS_31TestPartResultReporterInterfaceEE26InstanceValueHolderFactoryD1Ev
FNDA:1,_ZN7testing8internal11ThreadLocalIPNS_31TestPartResultReporterInterfaceEE26InstanceValueHolderFactoryD1Ev
FN:1833,_ZN7testing8internal11ThreadLocalIPNS_31TestPartResultReporterInterfaceEE26InstanceValueHolderFactoryD0Ev
FNDA:1,_ZN7testing8internal11ThreadLocalIPNS_31TestPartResultReporterInterfaceEE26InstanceValueHolderFactoryD0Ev
FN:1833,_ZN7testing8internal11ThreadLocalIPNS_31TestPartResultReporterInterfaceEE26InstanceValueHolderFactoryD2Ev
FNDA:1,_ZN7testing8internal11ThreadLocalIPNS_31TestPartResultReporterInterfaceEE26InstanceValueHolderFactoryD2Ev
FN:1835,_ZN7testing8internal11ThreadLocalIPNS_31TestPartResultReporterInterfaceEE26InstanceValueHolderFactoryC1ERKS3_
FNDA:1,_ZN7testing8internal11ThreadLocalIPNS_31TestPartResultReporterInterfaceEE26InstanceValueHolderFactoryC1ERKS3_
FN:1835,_ZN7testing8internal11ThreadLocalIPNS_31TestPartResultReporterInterfaceEE26InstanceValueHolderFactoryC2ERKS3_
FNDA:1,_ZN7testing8internal11ThreadLocalIPNS_31TestPartResultReporterInterfaceEE26InstanceValueHolderFactoryC2ERKS3_
FN:1836,_ZNK7testing8internal11ThreadLocalIPNS_31TestPartResultReporterInterfaceEE26InstanceValueHolderFactory13MakeNewHolderEv
FNDA:0,_ZNK7testing8internal11ThreadLocalIPNS_31TestPartResultReporterInterfaceEE26InstanceValueHolderFactory13MakeNewHolderEv
FN:1927,_ZN7testing8internal7IsDigitEc
FNDA:0,_ZN7testing8internal7IsDigitEc
FN:1933,_ZN7testing8internal7IsSpaceEc
FNDA:0,_ZN7testing8internal7IsSpaceEc
FN:1939,_ZN7testing8internal8IsXDigitEc
FNDA:0,_ZN7testing8internal8IsXDigitEc
FN:1947,_ZN7testing8internal8IsXDigitEDs
FNDA:0,_ZN7testing8internal8IsXDigitEDs
FN:1951,_ZN7testing8internal8IsXDigitEDi
FNDA:0,_ZN7testing8internal8IsXDigitEDi
FN:1955,_ZN7testing8internal8IsXDigitEw
FNDA:0,_ZN7testing8internal8IsXDigitEw
FN:1963,_ZN7testing8internal7ToUpperEc
FNDA:414,_ZN7testing8internal7ToUpperEc
FN:1967,_ZN7testing8internal19StripTrailingSpacesENSt3__112basic_stringIcNS1_11char_traitsIcEENS1_9allocatorIcEEEE
FNDA:0,_ZN7testing8internal19StripTrailingSpacesENSt3__112basic_stringIcNS1_11char_traitsIcEENS1_9allocatorIcEEEE
FN:2039,_ZN7testing8internal5posix6FileNoEP7__sFILE
FNDA:0,_ZN7testing8internal5posix6FileNoEP7__sFILE
FN:2040,_ZN7testing8internal5posix8DoIsATTYEi
FNDA:0,_ZN7testing8internal5posix8DoIsATTYEi
FN:2041,_ZN7testing8internal5posix4StatEPKcP4stat
FNDA:0,_ZN7testing8internal5posix4StatEPKcP4stat
FN:2042,_ZN7testing8internal5posix10StrCaseCmpEPKcS3_
FNDA:0,_ZN7testing8internal5posix10StrCaseCmpEPKcS3_
FN:2045,_ZN7testing8internal5posix6StrDupEPKc
FNDA:0,_ZN7testing8internal5posix6StrDupEPKc
FN:2047,_ZN7testing8internal5posix5IsDirERK4stat
FNDA:0,_ZN7testing8internal5posix5IsDirERK4stat
FN:2051,_ZN7testing8internal5posix6IsATTYEi
FNDA:0,_ZN7testing8internal5posix6IsATTYEi
FN:2074,_ZN7testing8internal5posix5FOpenEPKcS3_
FNDA:0,_ZN7testing8internal5posix5FOpenEPKcS3_
FN:2089,_ZN7testing8internal5posix6FDOpenEiPKc
FNDA:0,_ZN7testing8internal5posix6FDOpenEiPKc
FN:2091,_ZN7testing8internal5posix6FCloseEP7__sFILE
FNDA:0,_ZN7testing8internal5posix6FCloseEP7__sFILE
FN:2093,_ZN7testing8internal5posix4ReadEiPvj
FNDA:0,_ZN7testing8internal5posix4ReadEiPvj
FN:2096,_ZN7testing8internal5posix5WriteEiPKvj
FNDA:0,_ZN7testing8internal5posix5WriteEiPKvj
FN:2099,_ZN7testing8internal5posix5CloseEi
FNDA:0,_ZN7testing8internal5posix5CloseEi
FN:2100,_ZN7testing8internal5posix8StrErrorEi
FNDA:0,_ZN7testing8internal5posix8StrErrorEi
FN:2102,_ZN7testing8internal5posix6GetEnvEPKc
FNDA:28,_ZN7testing8internal5posix6GetEnvEPKc
FN:2126,_ZN7testing8internal5posix5AbortEv
FNDA:0,_ZN7testing8internal5posix5AbortEv
DA:973,0
DA:987,0
DA:988,0
DA:1066,0
DA:1115,0
DA:1117,0
DA:1123,0
DA:1127,0
DA:1648,0
DA:1649,0
DA:1650,0
DA:1651,0
DA:1652,0
DA:1655,0
DA:1660,0
DA:1661,0
DA:1662,0
DA:1705,16
DA:1706,8
DA:1707,8
DA:1708,16
DA:1709,16
DA:1710,8
DA:1711,16
DA:1724,0
DA:1725,0
DA:1727,0
DA:1745,0
DA:1750,2
DA:1751,2
DA:1752,2
DA:1758,2
DA:1759,2
DA:1760,2
DA:1761,1
DA:1762,2
DA:1764,4
DA:1766,2
DA:1770,2
DA:1771,4
DA:1773,0
DA:1774,0
DA:1775,0
DA:1776,0
DA:1782,0
DA:1783,0
DA:1785,0
DA:1792,2
DA:1796,2
DA:1798,2
DA:1799,0
DA:1801,0
DA:1802,0
DA:1803,0
DA:1804,0
DA:1805,0
DA:1808,0
DA:1809,0
DA:1810,0
DA:1811,0
DA:1812,0
DA:1816,2
DA:1817,2
DA:1826,2
DA:1827,0
DA:1835,2
DA:1836,0
DA:1837,0
DA:1838,0
DA:1927,0
DA:1928,0
DA:1933,0
DA:1934,0
DA:1939,0
DA:1940,0
DA:1947,0
DA:1948,0
DA:1949,0
DA:1951,0
DA:1952,0
DA:1953,0
DA:1955,0
DA:1956,0
DA:1957,0
DA:1963,414
DA:1964,414
DA:1967,0
DA:1968,0
DA:1969,0
DA:1970,0
DA:1971,0
DA:2039,0
DA:2040,0
DA:2041,0
DA:2042,0
DA:2043,0
DA:2045,0
DA:2047,0
DA:2051,0
DA:2055,0
DA:2056,0
DA:2057,0
DA:2059,0
DA:2074,0
DA:2082,0
DA:2089,0
DA:2091,0
DA:2093,0
DA:2094,0
DA:2096,0
DA:2097,0
DA:2099,0
DA:2100,0
DA:2102,28
DA:2114,28
DA:2126,0
FNF:94
FNH:31
LF:116
LH:30
end_of_record
SF:/Library/Developer/CommandLineTools/SDKs/MacOSX11.3.sdk/usr/include/c++/v1/__string
FN:361,_ZNSt3__111char_traitsIcE6assignERcRKc
FNDA:0,_ZNSt3__111char_traitsIcE6assignERcRKc
FN:362,_ZNSt3__111char_traitsIcE2eqEcc
FNDA:0,_ZNSt3__111char_traitsIcE2eqEcc
FN:370,_ZNSt3__111char_traitsIcE6lengthEPKc
FNDA:0,_ZNSt3__111char_traitsIcE6lengthEPKc
FN:396,_ZNSt3__111char_traitsIcE7not_eofEi
FNDA:0,_ZNSt3__111char_traitsIcE7not_eofEi
FN:398,_ZNSt3__111char_traitsIcE12to_char_typeEi
FNDA:0,_ZNSt3__111char_traitsIcE12to_char_typeEi
FN:400,_ZNSt3__111char_traitsIcE11to_int_typeEc
FNDA:0,_ZNSt3__111char_traitsIcE11to_int_typeEc
FN:402,_ZNSt3__111char_traitsIcE11eq_int_typeEii
FNDA:0,_ZNSt3__111char_traitsIcE11eq_int_typeEii
FN:404,_ZNSt3__111char_traitsIcE3eofEv
FNDA:0,_ZNSt3__111char_traitsIcE3eofEv
FN:410,_ZNSt3__111char_traitsIcE7compareEPKcS3_m
FNDA:0,_ZNSt3__111char_traitsIcE7compareEPKcS3_m
FN:432,_ZNSt3__111char_traitsIcE4findEPKcmRS2_
FNDA:0,_ZNSt3__111char_traitsIcE4findEPKcmRS2_
FN:512,_ZNSt3__111char_traitsIwE7compareEPKwS3_m
FNDA:0,_ZNSt3__111char_traitsIwE7compareEPKwS3_m
FN:546,_ZNSt3__111char_traitsIwE6lengthEPKw
FNDA:0,_ZNSt3__111char_traitsIwE6lengthEPKw
FN:562,_ZNSt3__111char_traitsIwE4findEPKwmRS2_
FNDA:0,_ZNSt3__111char_traitsIwE4findEPKwmRS2_
FN:704,_ZNSt3__111char_traitsIDsE2eqEDsDs
FNDA:0,_ZNSt3__111char_traitsIDsE2eqEDsDs
FN:750,_ZNSt3__111char_traitsIDsE6lengthEPKDs
FNDA:0,_ZNSt3__111char_traitsIDsE6lengthEPKDs
FN:824,_ZNSt3__111char_traitsIDiE2eqEDiDi
FNDA:0,_ZNSt3__111char_traitsIDiE2eqEDiDi
FN:870,_ZNSt3__111char_traitsIDiE6lengthEPKDi
FNDA:0,_ZNSt3__111char_traitsIDiE6lengthEPKDi
FN:953,_ZNSt3__118__search_substringIcNS_11char_traitsIcEEEEPKT_S5_S5_S5_S5_
FNDA:0,_ZNSt3__118__search_substringIcNS_11char_traitsIcEEEEPKT_S5_S5_S5_S5_
FN:953,_ZNSt3__118__search_substringIwNS_11char_traitsIwEEEEPKT_S5_S5_S5_S5_
FNDA:0,_ZNSt3__118__search_substringIwNS_11char_traitsIwEEEEPKT_S5_S5_S5_S5_
FN:992,_ZNSt3__1L10__str_findIcmNS_11char_traitsIcEELm18446744073709551615EEET0_PKT_S3_S6_S3_S3_
FNDA:0,_ZNSt3__1L10__str_findIcmNS_11char_traitsIcEELm18446744073709551615EEET0_PKT_S3_S6_S3_S3_
FN:992,_ZNSt3__1L10__str_findIwmNS_11char_traitsIwEELm18446744073709551615EEET0_PKT_S3_S6_S3_S3_
FNDA:0,_ZNSt3__1L10__str_findIwmNS_11char_traitsIwEELm18446744073709551615EEET0_PKT_S3_S6_S3_S3_
DA:361,0
DA:362,0
DA:363,0
DA:370,0
DA:396,0
DA:397,0
DA:398,0
DA:399,0
DA:400,0
DA:401,0
DA:402,0
DA:403,0
DA:404,0
DA:405,0
DA:410,0
DA:412,0
DA:413,0
DA:415,0
DA:428,0
DA:432,0
DA:434,0
DA:435,0
DA:437,0
DA:449,0
DA:512,0
DA:514,0
DA:515,0
DA:517,0
DA:530,0
DA:546,0
DA:549,0
DA:562,0
DA:564,0
DA:565,0
DA:567,0
DA:579,0
DA:704,0
DA:705,0
DA:750,0
DA:752,0
DA:753,0
DA:754,0
DA:755,0
DA:824,0
DA:825,0
DA:870,0
DA:872,0
DA:873,0
DA:874,0
DA:875,0
DA:953,0
DA:957,0
DA:958,0
DA:959,0
DA:961,0
DA:962,0
DA:963,0
DA:966,0
DA:967,0
DA:968,0
DA:970,0
DA:971,0
DA:974,0
DA:975,0
DA:976,0
DA:983,0
DA:984,0
DA:986,0
DA:988,0
DA:992,0
DA:995,0
DA:996,0
DA:998,0
DA:999,0
DA:1001,0
DA:1002,0
DA:1004,0
DA:1005,0
DA:1006,0
DA:1007,0
FNF:21
FNH:0
LF:80
LH:0
end_of_record
SF:/Users/phil/Downloads/fractal/protocol/build/_deps/googletest-src/googletest/include/gtest/internal/gtest-internal.h
FN:151,_ZN7testing8internal26GoogleTestFailureExceptionD1Ev
FNDA:0,_ZN7testing8internal26GoogleTestFailureExceptionD1Ev
FN:151,_ZN7testing8internal26GoogleTestFailureExceptionD0Ev
FNDA:0,_ZN7testing8internal26GoogleTestFailureExceptionD0Ev
FN:151,_ZN7testing8internal26GoogleTestFailureExceptionD2Ev
FNDA:0,_ZN7testing8internal26GoogleTestFailureExceptionD2Ev
FN:296,_ZN7testing8internal13FloatingPointIfEC1ERKf
FNDA:0,_ZN7testing8internal13FloatingPointIfEC1ERKf
FN:296,_ZN7testing8internal13FloatingPointIfEC2ERKf
FNDA:0,_ZN7testing8internal13FloatingPointIfEC2ERKf
FN:296,_ZN7testing8internal13FloatingPointIdEC1ERKd
FNDA:0,_ZN7testing8internal13FloatingPointIdEC1ERKd
FN:296,_ZN7testing8internal13FloatingPointIdEC2ERKd
FNDA:0,_ZN7testing8internal13FloatingPointIdEC2ERKd
FN:323,_ZNK7testing8internal13FloatingPointIfE13exponent_bitsEv
FNDA:0,_ZNK7testing8internal13FloatingPointIfE13exponent_bitsEv
FN:323,_ZNK7testing8internal13FloatingPointIdE13exponent_bitsEv
FNDA:0,_ZNK7testing8internal13FloatingPointIdE13exponent_bitsEv
FN:326,_ZNK7testing8internal13FloatingPointIfE13fraction_bitsEv
FNDA:0,_ZNK7testing8internal13FloatingPointIfE13fraction_bitsEv
FN:326,_ZNK7testing8internal13FloatingPointIdE13fraction_bitsEv
FNDA:0,_ZNK7testing8internal13FloatingPointIdE13fraction_bitsEv
FN:332,_ZNK7testing8internal13FloatingPointIfE6is_nanEv
FNDA:0,_ZNK7testing8internal13FloatingPointIfE6is_nanEv
FN:332,_ZNK7testing8internal13FloatingPointIdE6is_nanEv
FNDA:0,_ZNK7testing8internal13FloatingPointIdE6is_nanEv
FN:344,_ZNK7testing8internal13FloatingPointIfE12AlmostEqualsERKS2_
FNDA:0,_ZNK7testing8internal13FloatingPointIfE12AlmostEqualsERKS2_
FN:344,_ZNK7testing8internal13FloatingPointIdE12AlmostEqualsERKS2_
FNDA:0,_ZNK7testing8internal13FloatingPointIdE12AlmostEqualsERKS2_
FN:375,_ZN7testing8internal13FloatingPointIfE24SignAndMagnitudeToBiasedERKj
FNDA:0,_ZN7testing8internal13FloatingPointIfE24SignAndMagnitudeToBiasedERKj
FN:375,_ZN7testing8internal13FloatingPointIdE24SignAndMagnitudeToBiasedERKy
FNDA:0,_ZN7testing8internal13FloatingPointIdE24SignAndMagnitudeToBiasedERKy
FN:387,_ZN7testing8internal13FloatingPointIfE38DistanceBetweenSignAndMagnitudeNumbersERKjS4_
FNDA:0,_ZN7testing8internal13FloatingPointIfE38DistanceBetweenSignAndMagnitudeNumbersERKjS4_
FN:387,_ZN7testing8internal13FloatingPointIdE38DistanceBetweenSignAndMagnitudeNumbersERKyS4_
FNDA:0,_ZN7testing8internal13FloatingPointIdE38DistanceBetweenSignAndMagnitudeNumbersERKyS4_
FN:433,_ZN7testing8internal9GetTypeIdINS_4TestEEEPKvv
FNDA:5,_ZN7testing8internal9GetTypeIdINS_4TestEEEPKvv
FN:433,_ZN7testing8internal9GetTypeIdINS0_12_GLOBAL__N_111FailureTestEEEPKvv
FNDA:0,_ZN7testing8internal9GetTypeIdINS0_12_GLOBAL__N_111FailureTestEEEPKvv
FN:452,_ZN7testing8internal15TestFactoryBaseD1Ev
FNDA:0,_ZN7testing8internal15TestFactoryBaseD1Ev
FN:452,_ZN7testing8internal15TestFactoryBaseD0Ev
FNDA:0,_ZN7testing8internal15TestFactoryBaseD0Ev
FN:452,_ZN7testing8internal15TestFactoryBaseD2Ev
FNDA:0,_ZN7testing8internal15TestFactoryBaseD2Ev
FN:459,_ZN7testing8internal15TestFactoryBaseC2Ev
FNDA:0,_ZN7testing8internal15TestFactoryBaseC2Ev
FN:490,_ZN7testing8internal12CodeLocationC1ERKS1_
FNDA:8,_ZN7testing8internal12CodeLocationC1ERKS1_
FN:490,_ZN7testing8internal12CodeLocationD1Ev
FNDA:0,_ZN7testing8internal12CodeLocationD1Ev
FN:490,_ZN7testing8internal12CodeLocationC2ERKS1_
FNDA:8,_ZN7testing8internal12CodeLocationC2ERKS1_
FN:490,_ZN7testing8internal12CodeLocationD2Ev
FNDA:0,_ZN7testing8internal12CodeLocationD2Ev
FN:490,_ZN7testing8internal12CodeLocationC1EOS1_
FNDA:0,_ZN7testing8internal12CodeLocationC1EOS1_
FN:490,_ZN7testing8internal12CodeLocationC2EOS1_
FNDA:0,_ZN7testing8internal12CodeLocationC2EOS1_
FN:491,_ZN7testing8internal12CodeLocationC1ERKNSt3__112basic_stringIcNS2_11char_traitsIcEENS2_9allocatorIcEEEEi
FNDA:0,_ZN7testing8internal12CodeLocationC1ERKNSt3__112basic_stringIcNS2_11char_traitsIcEENS2_9allocatorIcEEEEi
FN:491,_ZN7testing8internal12CodeLocationC2ERKNSt3__112basic_stringIcNS2_11char_traitsIcEENS2_9allocatorIcEEEEi
FNDA:0,_ZN7testing8internal12CodeLocationC2ERKNSt3__112basic_stringIcNS2_11char_traitsIcEENS2_9allocatorIcEEEEi
FN:504,_ZN7testing8internal19GetNotDefaultOrNullEPFvvES2_
FNDA:0,_ZN7testing8internal19GetNotDefaultOrNullEPFvvES2_
FN:519,_ZN7testing8internal16SuiteApiResolverINS0_12_GLOBAL__N_111FailureTestEE19GetSetUpCaseOrSuiteEPKci
FNDA:0,_ZN7testing8internal16SuiteApiResolverINS0_12_GLOBAL__N_111FailureTestEE19GetSetUpCaseOrSuiteEPKci
FN:540,_ZN7testing8internal16SuiteApiResolverINS0_12_GLOBAL__N_111FailureTestEE22GetTearDownCaseOrSuiteEPKci
FNDA:0,_ZN7testing8internal16SuiteApiResolverINS0_12_GLOBAL__N_111FailureTestEE22GetTearDownCaseOrSuiteEPKci
FN:650,_ZN7testing8internal9SkipCommaEPKc
FNDA:0,_ZN7testing8internal9SkipCommaEPKc
FN:661,_ZN7testing8internal19GetPrefixUntilCommaEPKc
FNDA:0,_ZN7testing8internal19GetPrefixUntilCommaEPKc
FN:842,_ZN7testing8internal11AlwaysFalseEv
FNDA:0,_ZN7testing8internal11AlwaysFalseEv
FN:872,_ZN7testing8internal6RandomC1Ej
FNDA:1,_ZN7testing8internal6RandomC1Ej
FN:872,_ZN7testing8internal6RandomC2Ej
FNDA:1,_ZN7testing8internal6RandomC2Ej
FN:874,_ZN7testing8internal6Random6ReseedEj
FNDA:0,_ZN7testing8internal6Random6ReseedEj
DA:296,0
DA:323,0
DA:326,0
DA:332,0
DA:335,0
DA:344,0
DA:347,0
DA:349,0
DA:350,0
DA:351,0
DA:375,0
DA:376,0
DA:378,0
DA:381,0
DA:383,0
DA:387,0
DA:389,0
DA:390,0
DA:391,0
DA:433,5
DA:438,5
DA:452,0
DA:459,0
DA:491,0
DA:492,0
DA:504,0
DA:506,0
DA:519,0
DA:522,0
DA:523,0
DA:524,0
DA:525,0
DA:527,0
DA:528,0
DA:530,0
DA:532,0
DA:538,0
DA:540,0
DA:543,0
DA:544,0
DA:545,0
DA:546,0
DA:548,0
DA:549,0
DA:551,0
DA:553,0
DA:559,0
DA:650,0
DA:651,0
DA:652,0
DA:653,0
DA:655,0
DA:656,0
DA:657,0
DA:661,0
DA:662,0
DA:663,0
DA:842,0
DA:872,2
DA:874,0
FNF:42
FNH:5
LF:60
LH:3
end_of_record
SF:/Library/Developer/CommandLineTools/SDKs/MacOSX11.3.sdk/usr/include/c++/v1/vector
FN:305,_ZNSt3__120__vector_base_commonILb1EEC2Ev
FNDA:22,_ZNSt3__120__vector_base_commonILb1EEC2Ev
FN:349,_ZNSt3__113__vector_baseINS_12basic_stringIcNS_11char_traitsIcEENS_9allocatorIcEEEENS4_IS6_EEE7__allocEv
FNDA:12,_ZNSt3__113__vector_baseINS_12basic_stringIcNS_11char_traitsIcEENS_9allocatorIcEEEENS4_IS6_EEE7__allocEv
FN:349,_ZNSt3__113__vector_baseIPN7testing8internal30ParameterizedTestSuiteInfoBaseENS_9allocatorIS4_EEE7__allocEv
FNDA:0,_ZNSt3__113__vector_baseIPN7testing8internal30ParameterizedTestSuiteInfoBaseENS_9allocatorIS4_EEE7__allocEv
FN:349,_ZNSt3__113__vector_baseIPcNS_9allocatorIS1_EEE7__allocEv
FNDA:0,_ZNSt3__113__vector_baseIPcNS_9allocatorIS1_EEE7__allocEv
FN:349,_ZNSt3__113__vector_baseIN7testing14TestPartResultENS_9allocatorIS2_EEE7__allocEv
FNDA:0,_ZNSt3__113__vector_baseIN7testing14TestPartResultENS_9allocatorIS2_EEE7__allocEv
FN:349,_ZNSt3__113__vector_baseIdNS_9allocatorIdEEE7__allocEv
FNDA:0,_ZNSt3__113__vector_baseIdNS_9allocatorIdEEE7__allocEv
FN:349,_ZNSt3__113__vector_baseINS_6vectorIdNS_9allocatorIdEEEENS2_IS4_EEE7__allocEv
FNDA:0,_ZNSt3__113__vector_baseINS_6vectorIdNS_9allocatorIdEEEENS2_IS4_EEE7__allocEv
FN:349,_ZNSt3__113__vector_baseIN7testing8internal13edit_distance8EditTypeENS_9allocatorIS4_EEE7__allocEv
FNDA:0,_ZNSt3__113__vector_baseIN7testing8internal13edit_distance8EditTypeENS_9allocatorIS4_EEE7__allocEv
FN:349,_ZNSt3__113__vector_baseINS_6vectorIN7testing8internal13edit_distance8EditTypeENS_9allocatorIS5_EEEENS6_IS8_EEE7__allocEv
FNDA:0,_ZNSt3__113__vector_baseINS_6vectorIN7testing8internal13edit_distance8EditTypeENS_9allocatorIS5_EEEENS6_IS8_EEE7__allocEv
FN:349,_ZNSt3__113__vector_baseImNS_9allocatorImEEE7__allocEv
FNDA:0,_ZNSt3__113__vector_baseImNS_9allocatorImEEE7__allocEv
FN:349,_ZNSt3__113__vector_baseIN7testing12TestPropertyENS_9allocatorIS2_EEE7__allocEv
FNDA:0,_ZNSt3__113__vector_baseIN7testing12TestPropertyENS_9allocatorIS2_EEE7__allocEv
FN:349,_ZNSt3__113__vector_baseIPN7testing8TestInfoENS_9allocatorIS3_EEE7__allocEv
FNDA:12,_ZNSt3__113__vector_baseIPN7testing8TestInfoENS_9allocatorIS3_EEE7__allocEv
FN:349,_ZNSt3__113__vector_baseIiNS_9allocatorIiEEE7__allocEv
FNDA:16,_ZNSt3__113__vector_baseIiNS_9allocatorIiEEE7__allocEv
FN:349,_ZNSt3__113__vector_baseIPN7testing17TestEventListenerENS_9allocatorIS3_EEE7__allocEv
FNDA:4,_ZNSt3__113__vector_baseIPN7testing17TestEventListenerENS_9allocatorIS3_EEE7__allocEv
FN:349,_ZNSt3__113__vector_baseIPN7testing11EnvironmentENS_9allocatorIS3_EEE7__allocEv
FNDA:0,_ZNSt3__113__vector_baseIPN7testing11EnvironmentENS_9allocatorIS3_EEE7__allocEv
FN:349,_ZNSt3__113__vector_baseIN7testing8internal9TraceInfoENS_9allocatorIS3_EEE7__allocEv
FNDA:0,_ZNSt3__113__vector_baseIN7testing8internal9TraceInfoENS_9allocatorIS3_EEE7__allocEv
FN:349,_ZNSt3__113__vector_baseIPN7testing9TestSuiteENS_9allocatorIS3_EEE7__allocEv
FNDA:4,_ZNSt3__113__vector_baseIPN7testing9TestSuiteENS_9allocatorIS3_EEE7__allocEv
FN:352,_ZNKSt3__113__vector_baseINS_12basic_stringIcNS_11char_traitsIcEENS_9allocatorIcEEEENS4_IS6_EEE7__allocEv
FNDA:5,_ZNKSt3__113__vector_baseINS_12basic_stringIcNS_11char_traitsIcEENS_9allocatorIcEEEENS4_IS6_EEE7__allocEv
FN:352,_ZNKSt3__113__vector_baseIPcNS_9allocatorIS1_EEE7__allocEv
FNDA:0,_ZNKSt3__113__vector_baseIPcNS_9allocatorIS1_EEE7__allocEv
FN:352,_ZNKSt3__113__vector_baseIdNS_9allocatorIdEEE7__allocEv
FNDA:0,_ZNKSt3__113__vector_baseIdNS_9allocatorIdEEE7__allocEv
FN:352,_ZNKSt3__113__vector_baseINS_6vectorIdNS_9allocatorIdEEEENS2_IS4_EEE7__allocEv
FNDA:0,_ZNKSt3__113__vector_baseINS_6vectorIdNS_9allocatorIdEEEENS2_IS4_EEE7__allocEv
FN:352,_ZNKSt3__113__vector_baseIN7testing8internal13edit_distance8EditTypeENS_9allocatorIS4_EEE7__allocEv
FNDA:0,_ZNKSt3__113__vector_baseIN7testing8internal13edit_distance8EditTypeENS_9allocatorIS4_EEE7__allocEv
FN:352,_ZNKSt3__113__vector_baseINS_6vectorIN7testing8internal13edit_distance8EditTypeENS_9allocatorIS5_EEEENS6_IS8_EEE7__allocEv
FNDA:0,_ZNKSt3__113__vector_baseINS_6vectorIN7testing8internal13edit_distance8EditTypeENS_9allocatorIS5_EEEENS6_IS8_EEE7__allocEv
FN:352,_ZNKSt3__113__vector_baseImNS_9allocatorImEEE7__allocEv
FNDA:0,_ZNKSt3__113__vector_baseImNS_9allocatorImEEE7__allocEv
FN:352,_ZNKSt3__113__vector_baseIN7testing14TestPartResultENS_9allocatorIS2_EEE7__allocEv
FNDA:0,_ZNKSt3__113__vector_baseIN7testing14TestPartResultENS_9allocatorIS2_EEE7__allocEv
FN:352,_ZNKSt3__113__vector_baseIN7testing12TestPropertyENS_9allocatorIS2_EEE7__allocEv
FNDA:0,_ZNKSt3__113__vector_baseIN7testing12TestPropertyENS_9allocatorIS2_EEE7__allocEv
FN:352,_ZNKSt3__113__vector_baseIPN7testing8TestInfoENS_9allocatorIS3_EEE7__allocEv
FNDA:3,_ZNKSt3__113__vector_baseIPN7testing8TestInfoENS_9allocatorIS3_EEE7__allocEv
FN:352,_ZNKSt3__113__vector_baseIiNS_9allocatorIiEEE7__allocEv
FNDA:4,_ZNKSt3__113__vector_baseIiNS_9allocatorIiEEE7__allocEv
FN:352,_ZNKSt3__113__vector_baseIPN7testing17TestEventListenerENS_9allocatorIS3_EEE7__allocEv
FNDA:1,_ZNKSt3__113__vector_baseIPN7testing17TestEventListenerENS_9allocatorIS3_EEE7__allocEv
FN:352,_ZNKSt3__113__vector_baseIPN7testing11EnvironmentENS_9allocatorIS3_EEE7__allocEv
FNDA:0,_ZNKSt3__113__vector_baseIPN7testing11EnvironmentENS_9allocatorIS3_EEE7__allocEv
FN:352,_ZNKSt3__113__vector_baseIN7testing8internal9TraceInfoENS_9allocatorIS3_EEE7__allocEv
FNDA:0,_ZNKSt3__113__vector_baseIN7testing8internal9TraceInfoENS_9allocatorIS3_EEE7__allocEv
FN:352,_ZNKSt3__113__vector_baseIPN7testing9TestSuiteENS_9allocatorIS3_EEE7__allocEv
FNDA:1,_ZNKSt3__113__vector_baseIPN7testing9TestSuiteENS_9allocatorIS3_EEE7__allocEv
FN:355,_ZNSt3__113__vector_baseINS_12basic_stringIcNS_11char_traitsIcEENS_9allocatorIcEEEENS4_IS6_EEE9__end_capEv
FNDA:5,_ZNSt3__113__vector_baseINS_12basic_stringIcNS_11char_traitsIcEENS_9allocatorIcEEEENS4_IS6_EEE9__end_capEv
FN:355,_ZNSt3__113__vector_baseIPcNS_9allocatorIS1_EEE9__end_capEv
FNDA:0,_ZNSt3__113__vector_baseIPcNS_9allocatorIS1_EEE9__end_capEv
FN:355,_ZNSt3__113__vector_baseIdNS_9allocatorIdEEE9__end_capEv
FNDA:0,_ZNSt3__113__vector_baseIdNS_9allocatorIdEEE9__end_capEv
FN:355,_ZNSt3__113__vector_baseINS_6vectorIdNS_9allocatorIdEEEENS2_IS4_EEE9__end_capEv
FNDA:0,_ZNSt3__113__vector_baseINS_6vectorIdNS_9allocatorIdEEEENS2_IS4_EEE9__end_capEv
FN:355,_ZNSt3__113__vector_baseIN7testing8internal13edit_distance8EditTypeENS_9allocatorIS4_EEE9__end_capEv
FNDA:0,_ZNSt3__113__vector_baseIN7testing8internal13edit_distance8EditTypeENS_9allocatorIS4_EEE9__end_capEv
FN:355,_ZNSt3__113__vector_baseINS_6vectorIN7testing8internal13edit_distance8EditTypeENS_9allocatorIS5_EEEENS6_IS8_EEE9__end_capEv
FNDA:0,_ZNSt3__113__vector_baseINS_6vectorIN7testing8internal13edit_distance8EditTypeENS_9allocatorIS5_EEEENS6_IS8_EEE9__end_capEv
FN:355,_ZNSt3__113__vector_baseImNS_9allocatorImEEE9__end_capEv
FNDA:0,_ZNSt3__113__vector_baseImNS_9allocatorImEEE9__end_capEv
FN:355,_ZNSt3__113__vector_baseIN7testing14TestPartResultENS_9allocatorIS2_EEE9__end_capEv
FNDA:0,_ZNSt3__113__vector_baseIN7testing14TestPartResultENS_9allocatorIS2_EEE9__end_capEv
FN:355,_ZNSt3__113__vector_baseIN7testing12TestPropertyENS_9allocatorIS2_EEE9__end_capEv
FNDA:0,_ZNSt3__113__vector_baseIN7testing12TestPropertyENS_9allocatorIS2_EEE9__end_capEv
FN:355,_ZNSt3__113__vector_baseIPN7testing8TestInfoENS_9allocatorIS3_EEE9__end_capEv
FNDA:7,_ZNSt3__113__vector_baseIPN7testing8TestInfoENS_9allocatorIS3_EEE9__end_capEv
FN:355,_ZNSt3__113__vector_baseIiNS_9allocatorIiEEE9__end_capEv
FNDA:9,_ZNSt3__113__vector_baseIiNS_9allocatorIiEEE9__end_capEv
FN:355,_ZNSt3__113__vector_baseIPN7testing17TestEventListenerENS_9allocatorIS3_EEE9__end_capEv
FNDA:2,_ZNSt3__113__vector_baseIPN7testing17TestEventListenerENS_9allocatorIS3_EEE9__end_capEv
FN:355,_ZNSt3__113__vector_baseIPN7testing11EnvironmentENS_9allocatorIS3_EEE9__end_capEv
FNDA:0,_ZNSt3__113__vector_baseIPN7testing11EnvironmentENS_9allocatorIS3_EEE9__end_capEv
FN:355,_ZNSt3__113__vector_baseIN7testing8internal9TraceInfoENS_9allocatorIS3_EEE9__end_capEv
FNDA:0,_ZNSt3__113__vector_baseIN7testing8internal9TraceInfoENS_9allocatorIS3_EEE9__end_capEv
FN:355,_ZNSt3__113__vector_baseIPN7testing9TestSuiteENS_9allocatorIS3_EEE9__end_capEv
FNDA:2,_ZNSt3__113__vector_baseIPN7testing9TestSuiteENS_9allocatorIS3_EEE9__end_capEv
FN:358,_ZNKSt3__113__vector_baseINS_12basic_stringIcNS_11char_traitsIcEENS_9allocatorIcEEEENS4_IS6_EEE9__end_capEv
FNDA:21,_ZNKSt3__113__vector_baseINS_12basic_stringIcNS_11char_traitsIcEENS_9allocatorIcEEEENS4_IS6_EEE9__end_capEv
FN:358,_ZNKSt3__113__vector_baseIPN7testing8internal30ParameterizedTestSuiteInfoBaseENS_9allocatorIS4_EEE9__end_capEv
FNDA:2,_ZNKSt3__113__vector_baseIPN7testing8internal30ParameterizedTestSuiteInfoBaseENS_9allocatorIS4_EEE9__end_capEv
FN:358,_ZNKSt3__113__vector_baseIPcNS_9allocatorIS1_EEE9__end_capEv
FNDA:0,_ZNKSt3__113__vector_baseIPcNS_9allocatorIS1_EEE9__end_capEv
FN:358,_ZNKSt3__113__vector_baseIN7testing14TestPartResultENS_9allocatorIS2_EEE9__end_capEv
FNDA:12,_ZNKSt3__113__vector_baseIN7testing14TestPartResultENS_9allocatorIS2_EEE9__end_capEv
FN:358,_ZNKSt3__113__vector_baseIdNS_9allocatorIdEEE9__end_capEv
FNDA:0,_ZNKSt3__113__vector_baseIdNS_9allocatorIdEEE9__end_capEv
FN:358,_ZNKSt3__113__vector_baseINS_6vectorIdNS_9allocatorIdEEEENS2_IS4_EEE9__end_capEv
FNDA:0,_ZNKSt3__113__vector_baseINS_6vectorIdNS_9allocatorIdEEEENS2_IS4_EEE9__end_capEv
FN:358,_ZNKSt3__113__vector_baseIN7testing8internal13edit_distance8EditTypeENS_9allocatorIS4_EEE9__end_capEv
FNDA:0,_ZNKSt3__113__vector_baseIN7testing8internal13edit_distance8EditTypeENS_9allocatorIS4_EEE9__end_capEv
FN:358,_ZNKSt3__113__vector_baseINS_6vectorIN7testing8internal13edit_distance8EditTypeENS_9allocatorIS5_EEEENS6_IS8_EEE9__end_capEv
FNDA:0,_ZNKSt3__113__vector_baseINS_6vectorIN7testing8internal13edit_distance8EditTypeENS_9allocatorIS5_EEEENS6_IS8_EEE9__end_capEv
FN:358,_ZNKSt3__113__vector_baseImNS_9allocatorImEEE9__end_capEv
FNDA:0,_ZNKSt3__113__vector_baseImNS_9allocatorImEEE9__end_capEv
FN:358,_ZNKSt3__113__vector_baseIN7testing12TestPropertyENS_9allocatorIS2_EEE9__end_capEv
FNDA:12,_ZNKSt3__113__vector_baseIN7testing12TestPropertyENS_9allocatorIS2_EEE9__end_capEv
FN:358,_ZNKSt3__113__vector_baseIPN7testing8TestInfoENS_9allocatorIS3_EEE9__end_capEv
FNDA:18,_ZNKSt3__113__vector_baseIPN7testing8TestInfoENS_9allocatorIS3_EEE9__end_capEv
FN:358,_ZNKSt3__113__vector_baseIiNS_9allocatorIiEEE9__end_capEv
FNDA:26,_ZNKSt3__113__vector_baseIiNS_9allocatorIiEEE9__end_capEv
FN:358,_ZNKSt3__113__vector_baseIPN7testing17TestEventListenerENS_9allocatorIS3_EEE9__end_capEv
FNDA:8,_ZNKSt3__113__vector_baseIPN7testing17TestEventListenerENS_9allocatorIS3_EEE9__end_capEv
FN:358,_ZNKSt3__113__vector_baseIPN7testing11EnvironmentENS_9allocatorIS3_EEE9__end_capEv
FNDA:2,_ZNKSt3__113__vector_baseIPN7testing11EnvironmentENS_9allocatorIS3_EEE9__end_capEv
FN:358,_ZNKSt3__113__vector_baseIN7testing8internal9TraceInfoENS_9allocatorIS3_EEE9__end_capEv
FNDA:0,_ZNKSt3__113__vector_baseIN7testing8internal9TraceInfoENS_9allocatorIS3_EEE9__end_capEv
FN:358,_ZNKSt3__113__vector_baseIPN7testing9TestSuiteENS_9allocatorIS3_EEE9__end_capEv
FNDA:8,_ZNKSt3__113__vector_baseIPN7testing9TestSuiteENS_9allocatorIS3_EEE9__end_capEv
FN:371,_ZNSt3__113__vector_baseINS_12basic_stringIcNS_11char_traitsIcEENS_9allocatorIcEEEENS4_IS6_EEE5clearEv
FNDA:3,_ZNSt3__113__vector_baseINS_12basic_stringIcNS_11char_traitsIcEENS_9allocatorIcEEEENS4_IS6_EEE5clearEv
FN:371,_ZNSt3__113__vector_baseIPN7testing8internal30ParameterizedTestSuiteInfoBaseENS_9allocatorIS4_EEE5clearEv
FNDA:0,_ZNSt3__113__vector_baseIPN7testing8internal30ParameterizedTestSuiteInfoBaseENS_9allocatorIS4_EEE5clearEv
FN:371,_ZNSt3__113__vector_baseIPcNS_9allocatorIS1_EEE5clearEv
FNDA:0,_ZNSt3__113__vector_baseIPcNS_9allocatorIS1_EEE5clearEv
FN:371,_ZNSt3__113__vector_baseIN7testing14TestPartResultENS_9allocatorIS2_EEE5clearEv
FNDA:0,_ZNSt3__113__vector_baseIN7testing14TestPartResultENS_9allocatorIS2_EEE5clearEv
FN:371,_ZNSt3__113__vector_baseIdNS_9allocatorIdEEE5clearEv
FNDA:0,_ZNSt3__113__vector_baseIdNS_9allocatorIdEEE5clearEv
FN:371,_ZNSt3__113__vector_baseINS_6vectorIdNS_9allocatorIdEEEENS2_IS4_EEE5clearEv
FNDA:0,_ZNSt3__113__vector_baseINS_6vectorIdNS_9allocatorIdEEEENS2_IS4_EEE5clearEv
FN:371,_ZNSt3__113__vector_baseIN7testing8internal13edit_distance8EditTypeENS_9allocatorIS4_EEE5clearEv
FNDA:0,_ZNSt3__113__vector_baseIN7testing8internal13edit_distance8EditTypeENS_9allocatorIS4_EEE5clearEv
FN:371,_ZNSt3__113__vector_baseINS_6vectorIN7testing8internal13edit_distance8EditTypeENS_9allocatorIS5_EEEENS6_IS8_EEE5clearEv
FNDA:0,_ZNSt3__113__vector_baseINS_6vectorIN7testing8internal13edit_distance8EditTypeENS_9allocatorIS5_EEEENS6_IS8_EEE5clearEv
FN:371,_ZNSt3__113__vector_baseImNS_9allocatorImEEE5clearEv
FNDA:0,_ZNSt3__113__vector_baseImNS_9allocatorImEEE5clearEv
FN:371,_ZNSt3__113__vector_baseIN7testing12TestPropertyENS_9allocatorIS2_EEE5clearEv
FNDA:0,_ZNSt3__113__vector_baseIN7testing12TestPropertyENS_9allocatorIS2_EEE5clearEv
FN:371,_ZNSt3__113__vector_baseIPN7testing8TestInfoENS_9allocatorIS3_EEE5clearEv
FNDA:1,_ZNSt3__113__vector_baseIPN7testing8TestInfoENS_9allocatorIS3_EEE5clearEv
FN:371,_ZNSt3__113__vector_baseIiNS_9allocatorIiEEE5clearEv
FNDA:2,_ZNSt3__113__vector_baseIiNS_9allocatorIiEEE5clearEv
FN:371,_ZNSt3__113__vector_baseIPN7testing17TestEventListenerENS_9allocatorIS3_EEE5clearEv
FNDA:1,_ZNSt3__113__vector_baseIPN7testing17TestEventListenerENS_9allocatorIS3_EEE5clearEv
FN:371,_ZNSt3__113__vector_baseIN7testing8internal9TraceInfoENS_9allocatorIS3_EEE5clearEv
FNDA:0,_ZNSt3__113__vector_baseIN7testing8internal9TraceInfoENS_9allocatorIS3_EEE5clearEv
FN:371,_ZNSt3__113__vector_baseIPN7testing11EnvironmentENS_9allocatorIS3_EEE5clearEv
FNDA:0,_ZNSt3__113__vector_baseIPN7testing11EnvironmentENS_9allocatorIS3_EEE5clearEv
FN:371,_ZNSt3__113__vector_baseIPN7testing9TestSuiteENS_9allocatorIS3_EEE5clearEv
FNDA:1,_ZNSt3__113__vector_baseIPN7testing9TestSuiteENS_9allocatorIS3_EEE5clearEv
FN:373,_ZNKSt3__113__vector_baseINS_12basic_stringIcNS_11char_traitsIcEENS_9allocatorIcEEEENS4_IS6_EEE8capacityEv
FNDA:21,_ZNKSt3__113__vector_baseINS_12basic_stringIcNS_11char_traitsIcEENS_9allocatorIcEEEENS4_IS6_EEE8capacityEv
FN:373,_ZNKSt3__113__vector_baseIPN7testing8internal30ParameterizedTestSuiteInfoBaseENS_9allocatorIS4_EEE8capacityEv
FNDA:2,_ZNKSt3__113__vector_baseIPN7testing8internal30ParameterizedTestSuiteInfoBaseENS_9allocatorIS4_EEE8capacityEv
FN:373,_ZNKSt3__113__vector_baseIPcNS_9allocatorIS1_EEE8capacityEv
FNDA:0,_ZNKSt3__113__vector_baseIPcNS_9allocatorIS1_EEE8capacityEv
FN:373,_ZNKSt3__113__vector_baseIN7testing14TestPartResultENS_9allocatorIS2_EEE8capacityEv
FNDA:12,_ZNKSt3__113__vector_baseIN7testing14TestPartResultENS_9allocatorIS2_EEE8capacityEv
FN:373,_ZNKSt3__113__vector_baseIdNS_9allocatorIdEEE8capacityEv
FNDA:0,_ZNKSt3__113__vector_baseIdNS_9allocatorIdEEE8capacityEv
FN:373,_ZNKSt3__113__vector_baseINS_6vectorIdNS_9allocatorIdEEEENS2_IS4_EEE8capacityEv
FNDA:0,_ZNKSt3__113__vector_baseINS_6vectorIdNS_9allocatorIdEEEENS2_IS4_EEE8capacityEv
FN:373,_ZNKSt3__113__vector_baseIN7testing8internal13edit_distance8EditTypeENS_9allocatorIS4_EEE8capacityEv
FNDA:0,_ZNKSt3__113__vector_baseIN7testing8internal13edit_distance8EditTypeENS_9allocatorIS4_EEE8capacityEv
FN:373,_ZNKSt3__113__vector_baseINS_6vectorIN7testing8internal13edit_distance8EditTypeENS_9allocatorIS5_EEEENS6_IS8_EEE8capacityEv
FNDA:0,_ZNKSt3__113__vector_baseINS_6vectorIN7testing8internal13edit_distance8EditTypeENS_9allocatorIS5_EEEENS6_IS8_EEE8capacityEv
FN:373,_ZNKSt3__113__vector_baseImNS_9allocatorImEEE8capacityEv
FNDA:0,_ZNKSt3__113__vector_baseImNS_9allocatorImEEE8capacityEv
FN:373,_ZNKSt3__113__vector_baseIN7testing12TestPropertyENS_9allocatorIS2_EEE8capacityEv
FNDA:12,_ZNKSt3__113__vector_baseIN7testing12TestPropertyENS_9allocatorIS2_EEE8capacityEv
FN:373,_ZNKSt3__113__vector_baseIPN7testing8TestInfoENS_9allocatorIS3_EEE8capacityEv
FNDA:18,_ZNKSt3__113__vector_baseIPN7testing8TestInfoENS_9allocatorIS3_EEE8capacityEv
FN:373,_ZNKSt3__113__vector_baseIiNS_9allocatorIiEEE8capacityEv
FNDA:26,_ZNKSt3__113__vector_baseIiNS_9allocatorIiEEE8capacityEv
FN:373,_ZNKSt3__113__vector_baseIPN7testing17TestEventListenerENS_9allocatorIS3_EEE8capacityEv
FNDA:8,_ZNKSt3__113__vector_baseIPN7testing17TestEventListenerENS_9allocatorIS3_EEE8capacityEv
FN:373,_ZNKSt3__113__vector_baseIPN7testing11EnvironmentENS_9allocatorIS3_EEE8capacityEv
FNDA:2,_ZNKSt3__113__vector_baseIPN7testing11EnvironmentENS_9allocatorIS3_EEE8capacityEv
FN:373,_ZNKSt3__113__vector_baseIN7testing8internal9TraceInfoENS_9allocatorIS3_EEE8capacityEv
FNDA:0,_ZNKSt3__113__vector_baseIN7testing8internal9TraceInfoENS_9allocatorIS3_EEE8capacityEv
FN:373,_ZNKSt3__113__vector_baseIPN7testing9TestSuiteENS_9allocatorIS3_EEE8capacityEv
FNDA:8,_ZNKSt3__113__vector_baseIPN7testing9TestSuiteENS_9allocatorIS3_EEE8capacityEv
FN:424,_ZNSt3__113__vector_baseINS_12basic_stringIcNS_11char_traitsIcEENS_9allocatorIcEEEENS4_IS6_EEE17__destruct_at_endEPS6_
FNDA:3,_ZNSt3__113__vector_baseINS_12basic_stringIcNS_11char_traitsIcEENS_9allocatorIcEEEENS4_IS6_EEE17__destruct_at_endEPS6_
FN:424,_ZNSt3__113__vector_baseIPN7testing8internal30ParameterizedTestSuiteInfoBaseENS_9allocatorIS4_EEE17__destruct_at_endEPS4_
FNDA:0,_ZNSt3__113__vector_baseIPN7testing8internal30ParameterizedTestSuiteInfoBaseENS_9allocatorIS4_EEE17__destruct_at_endEPS4_
FN:424,_ZNSt3__113__vector_baseIPcNS_9allocatorIS1_EEE17__destruct_at_endEPS1_
FNDA:0,_ZNSt3__113__vector_baseIPcNS_9allocatorIS1_EEE17__destruct_at_endEPS1_
FN:424,_ZNSt3__113__vector_baseIN7testing14TestPartResultENS_9allocatorIS2_EEE17__destruct_at_endEPS2_
FNDA:0,_ZNSt3__113__vector_baseIN7testing14TestPartResultENS_9allocatorIS2_EEE17__destruct_at_endEPS2_
FN:424,_ZNSt3__113__vector_baseIdNS_9allocatorIdEEE17__destruct_at_endEPd
FNDA:0,_ZNSt3__113__vector_baseIdNS_9allocatorIdEEE17__destruct_at_endEPd
FN:424,_ZNSt3__113__vector_baseINS_6vectorIdNS_9allocatorIdEEEENS2_IS4_EEE17__destruct_at_endEPS4_
FNDA:0,_ZNSt3__113__vector_baseINS_6vectorIdNS_9allocatorIdEEEENS2_IS4_EEE17__destruct_at_endEPS4_
FN:424,_ZNSt3__113__vector_baseIN7testing8internal13edit_distance8EditTypeENS_9allocatorIS4_EEE17__destruct_at_endEPS4_
FNDA:0,_ZNSt3__113__vector_baseIN7testing8internal13edit_distance8EditTypeENS_9allocatorIS4_EEE17__destruct_at_endEPS4_
FN:424,_ZNSt3__113__vector_baseINS_6vectorIN7testing8internal13edit_distance8EditTypeENS_9allocatorIS5_EEEENS6_IS8_EEE17__destruct_at_endEPS8_
FNDA:0,_ZNSt3__113__vector_baseINS_6vectorIN7testing8internal13edit_distance8EditTypeENS_9allocatorIS5_EEEENS6_IS8_EEE17__destruct_at_endEPS8_
FN:424,_ZNSt3__113__vector_baseImNS_9allocatorImEEE17__destruct_at_endEPm
FNDA:0,_ZNSt3__113__vector_baseImNS_9allocatorImEEE17__destruct_at_endEPm
FN:424,_ZNSt3__113__vector_baseIN7testing12TestPropertyENS_9allocatorIS2_EEE17__destruct_at_endEPS2_
FNDA:0,_ZNSt3__113__vector_baseIN7testing12TestPropertyENS_9allocatorIS2_EEE17__destruct_at_endEPS2_
FN:424,_ZNSt3__113__vector_baseIPN7testing8TestInfoENS_9allocatorIS3_EEE17__destruct_at_endEPS3_
FNDA:1,_ZNSt3__113__vector_baseIPN7testing8TestInfoENS_9allocatorIS3_EEE17__destruct_at_endEPS3_
FN:424,_ZNSt3__113__vector_baseIiNS_9allocatorIiEEE17__destruct_at_endEPi
FNDA:2,_ZNSt3__113__vector_baseIiNS_9allocatorIiEEE17__destruct_at_endEPi
FN:424,_ZNSt3__113__vector_baseIPN7testing17TestEventListenerENS_9allocatorIS3_EEE17__destruct_at_endEPS3_
FNDA:1,_ZNSt3__113__vector_baseIPN7testing17TestEventListenerENS_9allocatorIS3_EEE17__destruct_at_endEPS3_
FN:424,_ZNSt3__113__vector_baseIN7testing8internal9TraceInfoENS_9allocatorIS3_EEE17__destruct_at_endEPS3_
FNDA:0,_ZNSt3__113__vector_baseIN7testing8internal9TraceInfoENS_9allocatorIS3_EEE17__destruct_at_endEPS3_
FN:424,_ZNSt3__113__vector_baseIPN7testing11EnvironmentENS_9allocatorIS3_EEE17__destruct_at_endEPS3_
FNDA:0,_ZNSt3__113__vector_baseIPN7testing11EnvironmentENS_9allocatorIS3_EEE17__destruct_at_endEPS3_
FN:424,_ZNSt3__113__vector_baseIPN7testing9TestSuiteENS_9allocatorIS3_EEE17__destruct_at_endEPS3_
FNDA:1,_ZNSt3__113__vector_baseIPN7testing9TestSuiteENS_9allocatorIS3_EEE17__destruct_at_endEPS3_
FN:434,_ZNSt3__113__vector_baseINS_12basic_stringIcNS_11char_traitsIcEENS_9allocatorIcEEEENS4_IS6_EEEC2Ev
FNDA:1,_ZNSt3__113__vector_baseINS_12basic_stringIcNS_11char_traitsIcEENS_9allocatorIcEEEENS4_IS6_EEEC2Ev
FN:434,_ZNSt3__113__vector_baseIPN7testing17TestEventListenerENS_9allocatorIS3_EEEC2Ev
FNDA:1,_ZNSt3__113__vector_baseIPN7testing17TestEventListenerENS_9allocatorIS3_EEEC2Ev
FN:434,_ZNSt3__113__vector_baseIPN7testing8internal30ParameterizedTestSuiteInfoBaseENS_9allocatorIS4_EEEC2Ev
FNDA:1,_ZNSt3__113__vector_baseIPN7testing8internal30ParameterizedTestSuiteInfoBaseENS_9allocatorIS4_EEEC2Ev
FN:434,_ZNSt3__113__vector_baseIPcNS_9allocatorIS1_EEEC2Ev
FNDA:0,_ZNSt3__113__vector_baseIPcNS_9allocatorIS1_EEEC2Ev
FN:434,_ZNSt3__113__vector_baseIN7testing14TestPartResultENS_9allocatorIS2_EEEC2Ev
FNDA:6,_ZNSt3__113__vector_baseIN7testing14TestPartResultENS_9allocatorIS2_EEEC2Ev
FN:434,_ZNSt3__113__vector_baseIdNS_9allocatorIdEEEC2Ev
FNDA:0,_ZNSt3__113__vector_baseIdNS_9allocatorIdEEEC2Ev
FN:434,_ZNSt3__113__vector_baseINS_6vectorIdNS_9allocatorIdEEEENS2_IS4_EEEC2Ev
FNDA:0,_ZNSt3__113__vector_baseINS_6vectorIdNS_9allocatorIdEEEENS2_IS4_EEEC2Ev
FN:434,_ZNSt3__113__vector_baseIN7testing8internal13edit_distance8EditTypeENS_9allocatorIS4_EEEC2Ev
FNDA:0,_ZNSt3__113__vector_baseIN7testing8internal13edit_distance8EditTypeENS_9allocatorIS4_EEEC2Ev
FN:434,_ZNSt3__113__vector_baseINS_6vectorIN7testing8internal13edit_distance8EditTypeENS_9allocatorIS5_EEEENS6_IS8_EEEC2Ev
FNDA:0,_ZNSt3__113__vector_baseINS_6vectorIN7testing8internal13edit_distance8EditTypeENS_9allocatorIS5_EEEENS6_IS8_EEEC2Ev
FN:434,_ZNSt3__113__vector_baseImNS_9allocatorImEEEC2Ev
FNDA:0,_ZNSt3__113__vector_baseImNS_9allocatorImEEEC2Ev
FN:434,_ZNSt3__113__vector_baseIN7testing12TestPropertyENS_9allocatorIS2_EEEC2Ev
FNDA:6,_ZNSt3__113__vector_baseIN7testing12TestPropertyENS_9allocatorIS2_EEEC2Ev
FN:434,_ZNSt3__113__vector_baseIPN7testing8TestInfoENS_9allocatorIS3_EEEC2Ev
FNDA:1,_ZNSt3__113__vector_baseIPN7testing8TestInfoENS_9allocatorIS3_EEEC2Ev
FN:434,_ZNSt3__113__vector_baseIiNS_9allocatorIiEEEC2Ev
FNDA:2,_ZNSt3__113__vector_baseIiNS_9allocatorIiEEEC2Ev
FN:434,_ZNSt3__113__vector_baseIPN7testing11EnvironmentENS_9allocatorIS3_EEEC2Ev
FNDA:1,_ZNSt3__113__vector_baseIPN7testing11EnvironmentENS_9allocatorIS3_EEEC2Ev
FN:434,_ZNSt3__113__vector_baseIPN7testing9TestSuiteENS_9allocatorIS3_EEEC2Ev
FNDA:1,_ZNSt3__113__vector_baseIPN7testing9TestSuiteENS_9allocatorIS3_EEEC2Ev
FN:434,_ZNSt3__113__vector_baseIN7testing8internal9TraceInfoENS_9allocatorIS3_EEEC2Ev
FNDA:0,_ZNSt3__113__vector_baseIN7testing8internal9TraceInfoENS_9allocatorIS3_EEEC2Ev
FN:454,_ZNSt3__113__vector_baseINS_12basic_stringIcNS_11char_traitsIcEENS_9allocatorIcEEEENS4_IS6_EEEC2EOS7_
FNDA:2,_ZNSt3__113__vector_baseINS_12basic_stringIcNS_11char_traitsIcEENS_9allocatorIcEEEENS4_IS6_EEEC2EOS7_
FN:454,_ZNSt3__113__vector_baseIdNS_9allocatorIdEEEC2EOS2_
FNDA:0,_ZNSt3__113__vector_baseIdNS_9allocatorIdEEEC2EOS2_
FN:454,_ZNSt3__113__vector_baseIN7testing8internal13edit_distance8EditTypeENS_9allocatorIS4_EEEC2EOS6_
FNDA:0,_ZNSt3__113__vector_baseIN7testing8internal13edit_distance8EditTypeENS_9allocatorIS4_EEEC2EOS6_
FN:461,_ZNSt3__113__vector_baseINS_12basic_stringIcNS_11char_traitsIcEENS_9allocatorIcEEEENS4_IS6_EEED2Ev
FNDA:3,_ZNSt3__113__vector_baseINS_12basic_stringIcNS_11char_traitsIcEENS_9allocatorIcEEEENS4_IS6_EEED2Ev
FN:461,_ZNSt3__113__vector_baseIPN7testing8internal30ParameterizedTestSuiteInfoBaseENS_9allocatorIS4_EEED2Ev
FNDA:1,_ZNSt3__113__vector_baseIPN7testing8internal30ParameterizedTestSuiteInfoBaseENS_9allocatorIS4_EEED2Ev
FN:461,_ZNSt3__113__vector_baseIPcNS_9allocatorIS1_EEED2Ev
FNDA:0,_ZNSt3__113__vector_baseIPcNS_9allocatorIS1_EEED2Ev
FN:461,_ZNSt3__113__vector_baseIN7testing14TestPartResultENS_9allocatorIS2_EEED2Ev
FNDA:6,_ZNSt3__113__vector_baseIN7testing14TestPartResultENS_9allocatorIS2_EEED2Ev
FN:461,_ZNSt3__113__vector_baseIdNS_9allocatorIdEEED2Ev
FNDA:0,_ZNSt3__113__vector_baseIdNS_9allocatorIdEEED2Ev
FN:461,_ZNSt3__113__vector_baseINS_6vectorIdNS_9allocatorIdEEEENS2_IS4_EEED2Ev
FNDA:0,_ZNSt3__113__vector_baseINS_6vectorIdNS_9allocatorIdEEEENS2_IS4_EEED2Ev
FN:461,_ZNSt3__113__vector_baseIN7testing8internal13edit_distance8EditTypeENS_9allocatorIS4_EEED2Ev
FNDA:0,_ZNSt3__113__vector_baseIN7testing8internal13edit_distance8EditTypeENS_9allocatorIS4_EEED2Ev
FN:461,_ZNSt3__113__vector_baseINS_6vectorIN7testing8internal13edit_distance8EditTypeENS_9allocatorIS5_EEEENS6_IS8_EEED2Ev
FNDA:0,_ZNSt3__113__vector_baseINS_6vectorIN7testing8internal13edit_distance8EditTypeENS_9allocatorIS5_EEEENS6_IS8_EEED2Ev
FN:461,_ZNSt3__113__vector_baseImNS_9allocatorImEEED2Ev
FNDA:0,_ZNSt3__113__vector_baseImNS_9allocatorImEEED2Ev
FN:461,_ZNSt3__113__vector_baseIN7testing12TestPropertyENS_9allocatorIS2_EEED2Ev
FNDA:6,_ZNSt3__113__vector_baseIN7testing12TestPropertyENS_9allocatorIS2_EEED2Ev
FN:461,_ZNSt3__113__vector_baseIPN7testing8TestInfoENS_9allocatorIS3_EEED2Ev
FNDA:1,_ZNSt3__113__vector_baseIPN7testing8TestInfoENS_9allocatorIS3_EEED2Ev
FN:461,_ZNSt3__113__vector_baseIiNS_9allocatorIiEEED2Ev
FNDA:2,_ZNSt3__113__vector_baseIiNS_9allocatorIiEEED2Ev
FN:461,_ZNSt3__113__vector_baseIPN7testing17TestEventListenerENS_9allocatorIS3_EEED2Ev
FNDA:1,_ZNSt3__113__vector_baseIPN7testing17TestEventListenerENS_9allocatorIS3_EEED2Ev
FN:461,_ZNSt3__113__vector_baseIN7testing8internal9TraceInfoENS_9allocatorIS3_EEED2Ev
FNDA:0,_ZNSt3__113__vector_baseIN7testing8internal9TraceInfoENS_9allocatorIS3_EEED2Ev
FN:461,_ZNSt3__113__vector_baseIPN7testing11EnvironmentENS_9allocatorIS3_EEED2Ev
FNDA:1,_ZNSt3__113__vector_baseIPN7testing11EnvironmentENS_9allocatorIS3_EEED2Ev
FN:461,_ZNSt3__113__vector_baseIPN7testing9TestSuiteENS_9allocatorIS3_EEED2Ev
FNDA:1,_ZNSt3__113__vector_baseIPN7testing9TestSuiteENS_9allocatorIS3_EEED2Ev
FN:497,_ZNSt3__16vectorINS_12basic_stringIcNS_11char_traitsIcEENS_9allocatorIcEEEENS4_IS6_EEEC1Ev
FNDA:1,_ZNSt3__16vectorINS_12basic_stringIcNS_11char_traitsIcEENS_9allocatorIcEEEENS4_IS6_EEEC1Ev
FN:497,_ZNSt3__16vectorIN7testing8internal13edit_distance8EditTypeENS_9allocatorIS4_EEEC1Ev
FNDA:0,_ZNSt3__16vectorIN7testing8internal13edit_distance8EditTypeENS_9allocatorIS4_EEEC1Ev
FN:497,_ZNSt3__16vectorImNS_9allocatorImEEEC1Ev
FNDA:0,_ZNSt3__16vectorImNS_9allocatorImEEEC1Ev
FN:497,_ZNSt3__16vectorIN7testing14TestPartResultENS_9allocatorIS2_EEEC1Ev
FNDA:6,_ZNSt3__16vectorIN7testing14TestPartResultENS_9allocatorIS2_EEEC1Ev
FN:497,_ZNSt3__16vectorIN7testing12TestPropertyENS_9allocatorIS2_EEEC1Ev
FNDA:6,_ZNSt3__16vectorIN7testing12TestPropertyENS_9allocatorIS2_EEEC1Ev
FN:497,_ZNSt3__16vectorIPN7testing8TestInfoENS_9allocatorIS3_EEEC1Ev
FNDA:1,_ZNSt3__16vectorIPN7testing8TestInfoENS_9allocatorIS3_EEEC1Ev
FN:497,_ZNSt3__16vectorIiNS_9allocatorIiEEEC1Ev
FNDA:2,_ZNSt3__16vectorIiNS_9allocatorIiEEEC1Ev
FN:497,_ZNSt3__16vectorIPN7testing11EnvironmentENS_9allocatorIS3_EEEC1Ev
FNDA:1,_ZNSt3__16vectorIPN7testing11EnvironmentENS_9allocatorIS3_EEEC1Ev
FN:497,_ZNSt3__16vectorIPN7testing9TestSuiteENS_9allocatorIS3_EEEC1Ev
FNDA:1,_ZNSt3__16vectorIPN7testing9TestSuiteENS_9allocatorIS3_EEEC1Ev
FN:497,_ZNSt3__16vectorIPN7testing17TestEventListenerENS_9allocatorIS3_EEEC1Ev
FNDA:1,_ZNSt3__16vectorIPN7testing17TestEventListenerENS_9allocatorIS3_EEEC1Ev
FN:497,_ZNSt3__16vectorIPN7testing17TestEventListenerENS_9allocatorIS3_EEEC2Ev
FNDA:1,_ZNSt3__16vectorIPN7testing17TestEventListenerENS_9allocatorIS3_EEEC2Ev
FN:497,_ZNSt3__16vectorIPN7testing8internal30ParameterizedTestSuiteInfoBaseENS_9allocatorIS4_EEEC1Ev
FNDA:1,_ZNSt3__16vectorIPN7testing8internal30ParameterizedTestSuiteInfoBaseENS_9allocatorIS4_EEEC1Ev
FN:497,_ZNSt3__16vectorIPN7testing8internal30ParameterizedTestSuiteInfoBaseENS_9allocatorIS4_EEEC2Ev
FNDA:1,_ZNSt3__16vectorIPN7testing8internal30ParameterizedTestSuiteInfoBaseENS_9allocatorIS4_EEEC2Ev
FN:497,_ZNSt3__16vectorIPcNS_9allocatorIS1_EEEC1Ev
FNDA:0,_ZNSt3__16vectorIPcNS_9allocatorIS1_EEEC1Ev
FN:497,_ZNSt3__16vectorIPcNS_9allocatorIS1_EEEC2Ev
FNDA:0,_ZNSt3__16vectorIPcNS_9allocatorIS1_EEEC2Ev
FN:497,_ZNSt3__16vectorIN7testing14TestPartResultENS_9allocatorIS2_EEEC2Ev
FNDA:6,_ZNSt3__16vectorIN7testing14TestPartResultENS_9allocatorIS2_EEEC2Ev
FN:497,_ZNSt3__16vectorINS_12basic_stringIcNS_11char_traitsIcEENS_9allocatorIcEEEENS4_IS6_EEEC2Ev
FNDA:1,_ZNSt3__16vectorINS_12basic_stringIcNS_11char_traitsIcEENS_9allocatorIcEEEENS4_IS6_EEEC2Ev
FN:497,_ZNSt3__16vectorIN7testing8internal13edit_distance8EditTypeENS_9allocatorIS4_EEEC2Ev
FNDA:0,_ZNSt3__16vectorIN7testing8internal13edit_distance8EditTypeENS_9allocatorIS4_EEEC2Ev
FN:497,_ZNSt3__16vectorImNS_9allocatorImEEEC2Ev
FNDA:0,_ZNSt3__16vectorImNS_9allocatorImEEEC2Ev
FN:497,_ZNSt3__16vectorIN7testing12TestPropertyENS_9allocatorIS2_EEEC2Ev
FNDA:6,_ZNSt3__16vectorIN7testing12TestPropertyENS_9allocatorIS2_EEEC2Ev
FN:497,_ZNSt3__16vectorIPN7testing8TestInfoENS_9allocatorIS3_EEEC2Ev
FNDA:1,_ZNSt3__16vectorIPN7testing8TestInfoENS_9allocatorIS3_EEEC2Ev
FN:497,_ZNSt3__16vectorIiNS_9allocatorIiEEEC2Ev
FNDA:2,_ZNSt3__16vectorIiNS_9allocatorIiEEEC2Ev
FN:497,_ZNSt3__16vectorIPN7testing11EnvironmentENS_9allocatorIS3_EEEC2Ev
FNDA:1,_ZNSt3__16vectorIPN7testing11EnvironmentENS_9allocatorIS3_EEEC2Ev
FN:497,_ZNSt3__16vectorIPN7testing9TestSuiteENS_9allocatorIS3_EEEC2Ev
FNDA:1,_ZNSt3__16vectorIPN7testing9TestSuiteENS_9allocatorIS3_EEEC2Ev
FN:497,_ZNSt3__16vectorIN7testing8internal9TraceInfoENS_9allocatorIS3_EEEC1Ev
FNDA:0,_ZNSt3__16vectorIN7testing8internal9TraceInfoENS_9allocatorIS3_EEEC1Ev
FN:497,_ZNSt3__16vectorIN7testing8internal9TraceInfoENS_9allocatorIS3_EEEC2Ev
FNDA:0,_ZNSt3__16vectorIN7testing8internal9TraceInfoENS_9allocatorIS3_EEEC2Ev
FN:551,_ZNSt3__16vectorINS_12basic_stringIcNS_11char_traitsIcEENS_9allocatorIcEEEENS4_IS6_EEED1Ev
FNDA:3,_ZNSt3__16vectorINS_12basic_stringIcNS_11char_traitsIcEENS_9allocatorIcEEEENS4_IS6_EEED1Ev
FN:551,_ZNSt3__16vectorIdNS_9allocatorIdEEED1Ev
FNDA:0,_ZNSt3__16vectorIdNS_9allocatorIdEEED1Ev
FN:551,_ZNSt3__16vectorIN7testing8internal13edit_distance8EditTypeENS_9allocatorIS4_EEED1Ev
FNDA:0,_ZNSt3__16vectorIN7testing8internal13edit_distance8EditTypeENS_9allocatorIS4_EEED1Ev
FN:551,_ZNSt3__16vectorINS0_IN7testing8internal13edit_distance8EditTypeENS_9allocatorIS4_EEEENS5_IS7_EEED1Ev
FNDA:0,_ZNSt3__16vectorINS0_IN7testing8internal13edit_distance8EditTypeENS_9allocatorIS4_EEEENS5_IS7_EEED1Ev
FN:551,_ZNSt3__16vectorINS0_IdNS_9allocatorIdEEEENS1_IS3_EEED1Ev
FNDA:0,_ZNSt3__16vectorINS0_IdNS_9allocatorIdEEEENS1_IS3_EEED1Ev
FN:551,_ZNSt3__16vectorImNS_9allocatorImEEED1Ev
FNDA:0,_ZNSt3__16vectorImNS_9allocatorImEEED1Ev
FN:551,_ZNSt3__16vectorIN7testing12TestPropertyENS_9allocatorIS2_EEED1Ev
FNDA:6,_ZNSt3__16vectorIN7testing12TestPropertyENS_9allocatorIS2_EEED1Ev
FN:551,_ZNSt3__16vectorIN7testing14TestPartResultENS_9allocatorIS2_EEED1Ev
FNDA:6,_ZNSt3__16vectorIN7testing14TestPartResultENS_9allocatorIS2_EEED1Ev
FN:551,_ZNSt3__16vectorIiNS_9allocatorIiEEED1Ev
FNDA:2,_ZNSt3__16vectorIiNS_9allocatorIiEEED1Ev
FN:551,_ZNSt3__16vectorIPN7testing8TestInfoENS_9allocatorIS3_EEED1Ev
FNDA:1,_ZNSt3__16vectorIPN7testing8TestInfoENS_9allocatorIS3_EEED1Ev
FN:551,_ZNSt3__16vectorIPN7testing17TestEventListenerENS_9allocatorIS3_EEED1Ev
FNDA:1,_ZNSt3__16vectorIPN7testing17TestEventListenerENS_9allocatorIS3_EEED1Ev
FN:551,_ZNSt3__16vectorIPN7testing9TestSuiteENS_9allocatorIS3_EEED1Ev
FNDA:1,_ZNSt3__16vectorIPN7testing9TestSuiteENS_9allocatorIS3_EEED1Ev
FN:551,_ZNSt3__16vectorIPN7testing11EnvironmentENS_9allocatorIS3_EEED1Ev
FNDA:1,_ZNSt3__16vectorIPN7testing11EnvironmentENS_9allocatorIS3_EEED1Ev
FN:551,_ZNSt3__16vectorIPN7testing8internal30ParameterizedTestSuiteInfoBaseENS_9allocatorIS4_EEED1Ev
FNDA:1,_ZNSt3__16vectorIPN7testing8internal30ParameterizedTestSuiteInfoBaseENS_9allocatorIS4_EEED1Ev
FN:551,_ZNSt3__16vectorIPN7testing8internal30ParameterizedTestSuiteInfoBaseENS_9allocatorIS4_EEED2Ev
FNDA:1,_ZNSt3__16vectorIPN7testing8internal30ParameterizedTestSuiteInfoBaseENS_9allocatorIS4_EEED2Ev
FN:551,_ZNSt3__16vectorIPcNS_9allocatorIS1_EEED1Ev
FNDA:0,_ZNSt3__16vectorIPcNS_9allocatorIS1_EEED1Ev
FN:551,_ZNSt3__16vectorIPcNS_9allocatorIS1_EEED2Ev
FNDA:0,_ZNSt3__16vectorIPcNS_9allocatorIS1_EEED2Ev
FN:551,_ZNSt3__16vectorIN7testing14TestPartResultENS_9allocatorIS2_EEED2Ev
FNDA:6,_ZNSt3__16vectorIN7testing14TestPartResultENS_9allocatorIS2_EEED2Ev
FN:551,_ZNSt3__16vectorINS_12basic_stringIcNS_11char_traitsIcEENS_9allocatorIcEEEENS4_IS6_EEED2Ev
FNDA:3,_ZNSt3__16vectorINS_12basic_stringIcNS_11char_traitsIcEENS_9allocatorIcEEEENS4_IS6_EEED2Ev
FN:551,_ZNSt3__16vectorIdNS_9allocatorIdEEED2Ev
FNDA:0,_ZNSt3__16vectorIdNS_9allocatorIdEEED2Ev
FN:551,_ZNSt3__16vectorINS0_IdNS_9allocatorIdEEEENS1_IS3_EEED2Ev
FNDA:0,_ZNSt3__16vectorINS0_IdNS_9allocatorIdEEEENS1_IS3_EEED2Ev
FN:551,_ZNSt3__16vectorIN7testing8internal13edit_distance8EditTypeENS_9allocatorIS4_EEED2Ev
FNDA:0,_ZNSt3__16vectorIN7testing8internal13edit_distance8EditTypeENS_9allocatorIS4_EEED2Ev
FN:551,_ZNSt3__16vectorINS0_IN7testing8internal13edit_distance8EditTypeENS_9allocatorIS4_EEEENS5_IS7_EEED2Ev
FNDA:0,_ZNSt3__16vectorINS0_IN7testing8internal13edit_distance8EditTypeENS_9allocatorIS4_EEEENS5_IS7_EEED2Ev
FN:551,_ZNSt3__16vectorImNS_9allocatorImEEED2Ev
FNDA:0,_ZNSt3__16vectorImNS_9allocatorImEEED2Ev
FN:551,_ZNSt3__16vectorIN7testing12TestPropertyENS_9allocatorIS2_EEED2Ev
FNDA:6,_ZNSt3__16vectorIN7testing12TestPropertyENS_9allocatorIS2_EEED2Ev
FN:551,_ZNSt3__16vectorIPN7testing8TestInfoENS_9allocatorIS3_EEED2Ev
FNDA:1,_ZNSt3__16vectorIPN7testing8TestInfoENS_9allocatorIS3_EEED2Ev
FN:551,_ZNSt3__16vectorIiNS_9allocatorIiEEED2Ev
FNDA:2,_ZNSt3__16vectorIiNS_9allocatorIiEEED2Ev
FN:551,_ZNSt3__16vectorIPN7testing17TestEventListenerENS_9allocatorIS3_EEED2Ev
FNDA:1,_ZNSt3__16vectorIPN7testing17TestEventListenerENS_9allocatorIS3_EEED2Ev
FN:551,_ZNSt3__16vectorIN7testing8internal9TraceInfoENS_9allocatorIS3_EEED1Ev
FNDA:0,_ZNSt3__16vectorIN7testing8internal9TraceInfoENS_9allocatorIS3_EEED1Ev
FN:551,_ZNSt3__16vectorIN7testing8internal9TraceInfoENS_9allocatorIS3_EEED2Ev
FNDA:0,_ZNSt3__16vectorIN7testing8internal9TraceInfoENS_9allocatorIS3_EEED2Ev
FN:551,_ZNSt3__16vectorIPN7testing11EnvironmentENS_9allocatorIS3_EEED2Ev
FNDA:1,_ZNSt3__16vectorIPN7testing11EnvironmentENS_9allocatorIS3_EEED2Ev
FN:551,_ZNSt3__16vectorIPN7testing9TestSuiteENS_9allocatorIS3_EEED2Ev
FNDA:1,_ZNSt3__16vectorIPN7testing9TestSuiteENS_9allocatorIS3_EEED2Ev
FN:631,_ZNSt3__16vectorIPN7testing9TestSuiteENS_9allocatorIS3_EEE6rbeginEv
FNDA:4,_ZNSt3__16vectorIPN7testing9TestSuiteENS_9allocatorIS3_EEE6rbeginEv
FN:631,_ZNSt3__16vectorIPN7testing11EnvironmentENS_9allocatorIS3_EEE6rbeginEv
FNDA:0,_ZNSt3__16vectorIPN7testing11EnvironmentENS_9allocatorIS3_EEE6rbeginEv
FN:637,_ZNSt3__16vectorIPN7testing9TestSuiteENS_9allocatorIS3_EEE4rendEv
FNDA:8,_ZNSt3__16vectorIPN7testing9TestSuiteENS_9allocatorIS3_EEE4rendEv
FN:637,_ZNSt3__16vectorIPN7testing11EnvironmentENS_9allocatorIS3_EEE4rendEv
FNDA:0,_ZNSt3__16vectorIPN7testing11EnvironmentENS_9allocatorIS3_EEE4rendEv
FN:644,_ZNKSt3__16vectorIPN7testing17TestEventListenerENS_9allocatorIS3_EEE6cbeginEv
FNDA:0,_ZNKSt3__16vectorIPN7testing17TestEventListenerENS_9allocatorIS3_EEE6cbeginEv
FN:657,_ZNKSt3__16vectorIPN7testing9TestSuiteENS_9allocatorIS3_EEE4sizeEv
FNDA:5,_ZNKSt3__16vectorIPN7testing9TestSuiteENS_9allocatorIS3_EEE4sizeEv
FN:657,_ZNKSt3__16vectorImNS_9allocatorImEEE4sizeEv
FNDA:0,_ZNKSt3__16vectorImNS_9allocatorImEEE4sizeEv
FN:657,_ZNKSt3__16vectorINS0_IdNS_9allocatorIdEEEENS1_IS3_EEE4sizeEv
FNDA:0,_ZNKSt3__16vectorINS0_IdNS_9allocatorIdEEEENS1_IS3_EEE4sizeEv
FN:657,_ZNKSt3__16vectorIdNS_9allocatorIdEEE4sizeEv
FNDA:0,_ZNKSt3__16vectorIdNS_9allocatorIdEEE4sizeEv
FN:657,_ZNKSt3__16vectorINS_12basic_stringIcNS_11char_traitsIcEENS_9allocatorIcEEEENS4_IS6_EEE4sizeEv
FNDA:17,_ZNKSt3__16vectorINS_12basic_stringIcNS_11char_traitsIcEENS_9allocatorIcEEEENS4_IS6_EEE4sizeEv
FN:657,_ZNKSt3__16vectorIN7testing8internal13edit_distance8EditTypeENS_9allocatorIS4_EEE4sizeEv
FNDA:0,_ZNKSt3__16vectorIN7testing8internal13edit_distance8EditTypeENS_9allocatorIS4_EEE4sizeEv
FN:657,_ZNKSt3__16vectorIN7testing14TestPartResultENS_9allocatorIS2_EEE4sizeEv
FNDA:6,_ZNKSt3__16vectorIN7testing14TestPartResultENS_9allocatorIS2_EEE4sizeEv
FN:657,_ZNKSt3__16vectorIN7testing12TestPropertyENS_9allocatorIS2_EEE4sizeEv
FNDA:6,_ZNKSt3__16vectorIN7testing12TestPropertyENS_9allocatorIS2_EEE4sizeEv
FN:657,_ZNKSt3__16vectorIPN7testing8TestInfoENS_9allocatorIS3_EEE4sizeEv
FNDA:23,_ZNKSt3__16vectorIPN7testing8TestInfoENS_9allocatorIS3_EEE4sizeEv
FN:657,_ZNKSt3__16vectorIiNS_9allocatorIiEEE4sizeEv
FNDA:23,_ZNKSt3__16vectorIiNS_9allocatorIiEEE4sizeEv
FN:657,_ZNKSt3__16vectorIPN7testing17TestEventListenerENS_9allocatorIS3_EEE4sizeEv
FNDA:6,_ZNKSt3__16vectorIPN7testing17TestEventListenerENS_9allocatorIS3_EEE4sizeEv
FN:657,_ZNKSt3__16vectorIN7testing8internal9TraceInfoENS_9allocatorIS3_EEE4sizeEv
FNDA:0,_ZNKSt3__16vectorIN7testing8internal9TraceInfoENS_9allocatorIS3_EEE4sizeEv
FN:657,_ZNKSt3__16vectorIPN7testing8internal30ParameterizedTestSuiteInfoBaseENS_9allocatorIS4_EEE4sizeEv
FNDA:1,_ZNKSt3__16vectorIPN7testing8internal30ParameterizedTestSuiteInfoBaseENS_9allocatorIS4_EEE4sizeEv
FN:657,_ZNKSt3__16vectorIPcNS_9allocatorIS1_EEE4sizeEv
FNDA:0,_ZNKSt3__16vectorIPcNS_9allocatorIS1_EEE4sizeEv
FN:657,_ZNKSt3__16vectorINS0_IN7testing8internal13edit_distance8EditTypeENS_9allocatorIS4_EEEENS5_IS7_EEE4sizeEv
FNDA:0,_ZNKSt3__16vectorINS0_IN7testing8internal13edit_distance8EditTypeENS_9allocatorIS4_EEEENS5_IS7_EEE4sizeEv
FN:657,_ZNKSt3__16vectorIPN7testing11EnvironmentENS_9allocatorIS3_EEE4sizeEv
FNDA:1,_ZNKSt3__16vectorIPN7testing11EnvironmentENS_9allocatorIS3_EEE4sizeEv
FN:660,_ZNKSt3__16vectorINS_12basic_stringIcNS_11char_traitsIcEENS_9allocatorIcEEEENS4_IS6_EEE8capacityEv
FNDA:19,_ZNKSt3__16vectorINS_12basic_stringIcNS_11char_traitsIcEENS_9allocatorIcEEEENS4_IS6_EEE8capacityEv
FN:660,_ZNKSt3__16vectorIPN7testing8internal30ParameterizedTestSuiteInfoBaseENS_9allocatorIS4_EEE8capacityEv
FNDA:2,_ZNKSt3__16vectorIPN7testing8internal30ParameterizedTestSuiteInfoBaseENS_9allocatorIS4_EEE8capacityEv
FN:660,_ZNKSt3__16vectorIPcNS_9allocatorIS1_EEE8capacityEv
FNDA:0,_ZNKSt3__16vectorIPcNS_9allocatorIS1_EEE8capacityEv
FN:660,_ZNKSt3__16vectorIN7testing14TestPartResultENS_9allocatorIS2_EEE8capacityEv
FNDA:12,_ZNKSt3__16vectorIN7testing14TestPartResultENS_9allocatorIS2_EEE8capacityEv
FN:660,_ZNKSt3__16vectorIdNS_9allocatorIdEEE8capacityEv
FNDA:0,_ZNKSt3__16vectorIdNS_9allocatorIdEEE8capacityEv
FN:660,_ZNKSt3__16vectorINS0_IdNS_9allocatorIdEEEENS1_IS3_EEE8capacityEv
FNDA:0,_ZNKSt3__16vectorINS0_IdNS_9allocatorIdEEEENS1_IS3_EEE8capacityEv
FN:660,_ZNKSt3__16vectorIN7testing8internal13edit_distance8EditTypeENS_9allocatorIS4_EEE8capacityEv
FNDA:0,_ZNKSt3__16vectorIN7testing8internal13edit_distance8EditTypeENS_9allocatorIS4_EEE8capacityEv
FN:660,_ZNKSt3__16vectorINS0_IN7testing8internal13edit_distance8EditTypeENS_9allocatorIS4_EEEENS5_IS7_EEE8capacityEv
FNDA:0,_ZNKSt3__16vectorINS0_IN7testing8internal13edit_distance8EditTypeENS_9allocatorIS4_EEEENS5_IS7_EEE8capacityEv
FN:660,_ZNKSt3__16vectorImNS_9allocatorImEEE8capacityEv
FNDA:0,_ZNKSt3__16vectorImNS_9allocatorImEEE8capacityEv
FN:660,_ZNKSt3__16vectorIN7testing12TestPropertyENS_9allocatorIS2_EEE8capacityEv
FNDA:12,_ZNKSt3__16vectorIN7testing12TestPropertyENS_9allocatorIS2_EEE8capacityEv
FN:660,_ZNKSt3__16vectorIPN7testing8TestInfoENS_9allocatorIS3_EEE8capacityEv
FNDA:17,_ZNKSt3__16vectorIPN7testing8TestInfoENS_9allocatorIS3_EEE8capacityEv
FN:660,_ZNKSt3__16vectorIiNS_9allocatorIiEEE8capacityEv
FNDA:24,_ZNKSt3__16vectorIiNS_9allocatorIiEEE8capacityEv
FN:660,_ZNKSt3__16vectorIPN7testing17TestEventListenerENS_9allocatorIS3_EEE8capacityEv
FNDA:7,_ZNKSt3__16vectorIPN7testing17TestEventListenerENS_9allocatorIS3_EEE8capacityEv
FN:660,_ZNKSt3__16vectorIPN7testing11EnvironmentENS_9allocatorIS3_EEE8capacityEv
FNDA:2,_ZNKSt3__16vectorIPN7testing11EnvironmentENS_9allocatorIS3_EEE8capacityEv
FN:660,_ZNKSt3__16vectorIN7testing8internal9TraceInfoENS_9allocatorIS3_EEE8capacityEv
FNDA:0,_ZNKSt3__16vectorIN7testing8internal9TraceInfoENS_9allocatorIS3_EEE8capacityEv
FN:660,_ZNKSt3__16vectorIPN7testing9TestSuiteENS_9allocatorIS3_EEE8capacityEv
FNDA:7,_ZNKSt3__16vectorIPN7testing9TestSuiteENS_9allocatorIS3_EEE8capacityEv
FN:699,_ZNKSt3__16vectorINS_12basic_stringIcNS_11char_traitsIcEENS_9allocatorIcEEEENS4_IS6_EEE4dataEv
FNDA:36,_ZNKSt3__16vectorINS_12basic_stringIcNS_11char_traitsIcEENS_9allocatorIcEEEENS4_IS6_EEE4dataEv
FN:699,_ZNKSt3__16vectorIPN7testing8internal30ParameterizedTestSuiteInfoBaseENS_9allocatorIS4_EEE4dataEv
FNDA:4,_ZNKSt3__16vectorIPN7testing8internal30ParameterizedTestSuiteInfoBaseENS_9allocatorIS4_EEE4dataEv
FN:699,_ZNKSt3__16vectorIPcNS_9allocatorIS1_EEE4dataEv
FNDA:0,_ZNKSt3__16vectorIPcNS_9allocatorIS1_EEE4dataEv
FN:699,_ZNKSt3__16vectorIN7testing14TestPartResultENS_9allocatorIS2_EEE4dataEv
FNDA:24,_ZNKSt3__16vectorIN7testing14TestPartResultENS_9allocatorIS2_EEE4dataEv
FN:699,_ZNKSt3__16vectorIdNS_9allocatorIdEEE4dataEv
FNDA:0,_ZNKSt3__16vectorIdNS_9allocatorIdEEE4dataEv
FN:699,_ZNKSt3__16vectorINS0_IdNS_9allocatorIdEEEENS1_IS3_EEE4dataEv
FNDA:0,_ZNKSt3__16vectorINS0_IdNS_9allocatorIdEEEENS1_IS3_EEE4dataEv
FN:699,_ZNKSt3__16vectorIN7testing8internal13edit_distance8EditTypeENS_9allocatorIS4_EEE4dataEv
FNDA:0,_ZNKSt3__16vectorIN7testing8internal13edit_distance8EditTypeENS_9allocatorIS4_EEE4dataEv
FN:699,_ZNKSt3__16vectorINS0_IN7testing8internal13edit_distance8EditTypeENS_9allocatorIS4_EEEENS5_IS7_EEE4dataEv
FNDA:0,_ZNKSt3__16vectorINS0_IN7testing8internal13edit_distance8EditTypeENS_9allocatorIS4_EEEENS5_IS7_EEE4dataEv
FN:699,_ZNKSt3__16vectorImNS_9allocatorImEEE4dataEv
FNDA:0,_ZNKSt3__16vectorImNS_9allocatorImEEE4dataEv
FN:699,_ZNKSt3__16vectorIN7testing12TestPropertyENS_9allocatorIS2_EEE4dataEv
FNDA:24,_ZNKSt3__16vectorIN7testing12TestPropertyENS_9allocatorIS2_EEE4dataEv
FN:699,_ZNKSt3__16vectorIPN7testing8TestInfoENS_9allocatorIS3_EEE4dataEv
FNDA:28,_ZNKSt3__16vectorIPN7testing8TestInfoENS_9allocatorIS3_EEE4dataEv
FN:699,_ZNKSt3__16vectorIiNS_9allocatorIiEEE4dataEv
FNDA:40,_ZNKSt3__16vectorIiNS_9allocatorIiEEE4dataEv
FN:699,_ZNKSt3__16vectorIPN7testing17TestEventListenerENS_9allocatorIS3_EEE4dataEv
FNDA:12,_ZNKSt3__16vectorIPN7testing17TestEventListenerENS_9allocatorIS3_EEE4dataEv
FN:699,_ZNKSt3__16vectorIPN7testing11EnvironmentENS_9allocatorIS3_EEE4dataEv
FNDA:4,_ZNKSt3__16vectorIPN7testing11EnvironmentENS_9allocatorIS3_EEE4dataEv
FN:699,_ZNKSt3__16vectorIN7testing8internal9TraceInfoENS_9allocatorIS3_EEE4dataEv
FNDA:0,_ZNKSt3__16vectorIN7testing8internal9TraceInfoENS_9allocatorIS3_EEE4dataEv
FN:699,_ZNKSt3__16vectorIPN7testing9TestSuiteENS_9allocatorIS3_EEE4dataEv
FNDA:12,_ZNKSt3__16vectorIPN7testing9TestSuiteENS_9allocatorIS3_EEE4dataEv
FN:771,_ZNSt3__16vectorIN7testing14TestPartResultENS_9allocatorIS2_EEE5clearEv
FNDA:0,_ZNSt3__16vectorIN7testing14TestPartResultENS_9allocatorIS2_EEE5clearEv
FN:771,_ZNSt3__16vectorIN7testing12TestPropertyENS_9allocatorIS2_EEE5clearEv
FNDA:0,_ZNSt3__16vectorIN7testing12TestPropertyENS_9allocatorIS2_EEE5clearEv
FN:771,_ZNSt3__16vectorINS_12basic_stringIcNS_11char_traitsIcEENS_9allocatorIcEEEENS4_IS6_EEE5clearEv
FNDA:1,_ZNSt3__16vectorINS_12basic_stringIcNS_11char_traitsIcEENS_9allocatorIcEEEENS4_IS6_EEE5clearEv
FN:831,_ZNSt3__16vectorIPN7testing17TestEventListenerENS_9allocatorIS3_EEE17__destruct_at_endEPS3_
FNDA:0,_ZNSt3__16vectorIPN7testing17TestEventListenerENS_9allocatorIS3_EEE17__destruct_at_endEPS3_
FN:831,_ZNSt3__16vectorIN7testing8internal9TraceInfoENS_9allocatorIS3_EEE17__destruct_at_endEPS3_
FNDA:0,_ZNSt3__16vectorIN7testing8internal9TraceInfoENS_9allocatorIS3_EEE17__destruct_at_endEPS3_
FN:868,_ZNKSt3__16vectorINS_12basic_stringIcNS_11char_traitsIcEENS_9allocatorIcEEEENS4_IS6_EEE31__annotate_contiguous_containerEPKvSA_SA_SA_
FNDA:9,_ZNKSt3__16vectorINS_12basic_stringIcNS_11char_traitsIcEENS_9allocatorIcEEEENS4_IS6_EEE31__annotate_contiguous_containerEPKvSA_SA_SA_
FN:868,_ZNKSt3__16vectorIPN7testing8internal30ParameterizedTestSuiteInfoBaseENS_9allocatorIS4_EEE31__annotate_contiguous_containerEPKvS9_S9_S9_
FNDA:1,_ZNKSt3__16vectorIPN7testing8internal30ParameterizedTestSuiteInfoBaseENS_9allocatorIS4_EEE31__annotate_contiguous_containerEPKvS9_S9_S9_
FN:868,_ZNKSt3__16vectorIPcNS_9allocatorIS1_EEE31__annotate_contiguous_containerEPKvS6_S6_S6_
FNDA:0,_ZNKSt3__16vectorIPcNS_9allocatorIS1_EEE31__annotate_contiguous_containerEPKvS6_S6_S6_
FN:868,_ZNKSt3__16vectorIN7testing14TestPartResultENS_9allocatorIS2_EEE31__annotate_contiguous_containerEPKvS7_S7_S7_
FNDA:6,_ZNKSt3__16vectorIN7testing14TestPartResultENS_9allocatorIS2_EEE31__annotate_contiguous_containerEPKvS7_S7_S7_
FN:868,_ZNKSt3__16vectorIdNS_9allocatorIdEEE31__annotate_contiguous_containerEPKvS5_S5_S5_
FNDA:0,_ZNKSt3__16vectorIdNS_9allocatorIdEEE31__annotate_contiguous_containerEPKvS5_S5_S5_
FN:868,_ZNKSt3__16vectorINS0_IdNS_9allocatorIdEEEENS1_IS3_EEE31__annotate_contiguous_containerEPKvS7_S7_S7_
FNDA:0,_ZNKSt3__16vectorINS0_IdNS_9allocatorIdEEEENS1_IS3_EEE31__annotate_contiguous_containerEPKvS7_S7_S7_
FN:868,_ZNKSt3__16vectorIN7testing8internal13edit_distance8EditTypeENS_9allocatorIS4_EEE31__annotate_contiguous_containerEPKvS9_S9_S9_
FNDA:0,_ZNKSt3__16vectorIN7testing8internal13edit_distance8EditTypeENS_9allocatorIS4_EEE31__annotate_contiguous_containerEPKvS9_S9_S9_
FN:868,_ZNKSt3__16vectorINS0_IN7testing8internal13edit_distance8EditTypeENS_9allocatorIS4_EEEENS5_IS7_EEE31__annotate_contiguous_containerEPKvSB_SB_SB_
FNDA:0,_ZNKSt3__16vectorINS0_IN7testing8internal13edit_distance8EditTypeENS_9allocatorIS4_EEEENS5_IS7_EEE31__annotate_contiguous_containerEPKvSB_SB_SB_
FN:868,_ZNKSt3__16vectorImNS_9allocatorImEEE31__annotate_contiguous_containerEPKvS5_S5_S5_
FNDA:0,_ZNKSt3__16vectorImNS_9allocatorImEEE31__annotate_contiguous_containerEPKvS5_S5_S5_
FN:868,_ZNKSt3__16vectorIN7testing12TestPropertyENS_9allocatorIS2_EEE31__annotate_contiguous_containerEPKvS7_S7_S7_
FNDA:6,_ZNKSt3__16vectorIN7testing12TestPropertyENS_9allocatorIS2_EEE31__annotate_contiguous_containerEPKvS7_S7_S7_
FN:868,_ZNKSt3__16vectorIPN7testing8TestInfoENS_9allocatorIS3_EEE31__annotate_contiguous_containerEPKvS8_S8_S8_
FNDA:7,_ZNKSt3__16vectorIPN7testing8TestInfoENS_9allocatorIS3_EEE31__annotate_contiguous_containerEPKvS8_S8_S8_
FN:868,_ZNKSt3__16vectorIiNS_9allocatorIiEEE31__annotate_contiguous_containerEPKvS5_S5_S5_
FNDA:10,_ZNKSt3__16vectorIiNS_9allocatorIiEEE31__annotate_contiguous_containerEPKvS5_S5_S5_
FN:868,_ZNKSt3__16vectorIPN7testing17TestEventListenerENS_9allocatorIS3_EEE31__annotate_contiguous_containerEPKvS8_S8_S8_
FNDA:3,_ZNKSt3__16vectorIPN7testing17TestEventListenerENS_9allocatorIS3_EEE31__annotate_contiguous_containerEPKvS8_S8_S8_
FN:868,_ZNKSt3__16vectorIPN7testing11EnvironmentENS_9allocatorIS3_EEE31__annotate_contiguous_containerEPKvS8_S8_S8_
FNDA:1,_ZNKSt3__16vectorIPN7testing11EnvironmentENS_9allocatorIS3_EEE31__annotate_contiguous_containerEPKvS8_S8_S8_
FN:868,_ZNKSt3__16vectorIN7testing8internal9TraceInfoENS_9allocatorIS3_EEE31__annotate_contiguous_containerEPKvS8_S8_S8_
FNDA:0,_ZNKSt3__16vectorIN7testing8internal9TraceInfoENS_9allocatorIS3_EEE31__annotate_contiguous_containerEPKvS8_S8_S8_
FN:868,_ZNKSt3__16vectorIPN7testing9TestSuiteENS_9allocatorIS3_EEE31__annotate_contiguous_containerEPKvS8_S8_S8_
FNDA:3,_ZNKSt3__16vectorIPN7testing9TestSuiteENS_9allocatorIS3_EEE31__annotate_contiguous_containerEPKvS8_S8_S8_
FN:872,_ZNKSt3__16vectorINS_12basic_stringIcNS_11char_traitsIcEENS_9allocatorIcEEEENS4_IS6_EEE14__annotate_newEm
FNDA:3,_ZNKSt3__16vectorINS_12basic_stringIcNS_11char_traitsIcEENS_9allocatorIcEEEENS4_IS6_EEE14__annotate_newEm
FN:872,_ZNKSt3__16vectorIPcNS_9allocatorIS1_EEE14__annotate_newEm
FNDA:0,_ZNKSt3__16vectorIPcNS_9allocatorIS1_EEE14__annotate_newEm
FN:872,_ZNKSt3__16vectorIdNS_9allocatorIdEEE14__annotate_newEm
FNDA:0,_ZNKSt3__16vectorIdNS_9allocatorIdEEE14__annotate_newEm
FN:872,_ZNKSt3__16vectorINS0_IdNS_9allocatorIdEEEENS1_IS3_EEE14__annotate_newEm
FNDA:0,_ZNKSt3__16vectorINS0_IdNS_9allocatorIdEEEENS1_IS3_EEE14__annotate_newEm
FN:872,_ZNKSt3__16vectorIN7testing8internal13edit_distance8EditTypeENS_9allocatorIS4_EEE14__annotate_newEm
FNDA:0,_ZNKSt3__16vectorIN7testing8internal13edit_distance8EditTypeENS_9allocatorIS4_EEE14__annotate_newEm
FN:872,_ZNKSt3__16vectorINS0_IN7testing8internal13edit_distance8EditTypeENS_9allocatorIS4_EEEENS5_IS7_EEE14__annotate_newEm
FNDA:0,_ZNKSt3__16vectorINS0_IN7testing8internal13edit_distance8EditTypeENS_9allocatorIS4_EEEENS5_IS7_EEE14__annotate_newEm
FN:872,_ZNKSt3__16vectorImNS_9allocatorImEEE14__annotate_newEm
FNDA:0,_ZNKSt3__16vectorImNS_9allocatorImEEE14__annotate_newEm
FN:872,_ZNKSt3__16vectorIN7testing14TestPartResultENS_9allocatorIS2_EEE14__annotate_newEm
FNDA:0,_ZNKSt3__16vectorIN7testing14TestPartResultENS_9allocatorIS2_EEE14__annotate_newEm
FN:872,_ZNKSt3__16vectorIN7testing12TestPropertyENS_9allocatorIS2_EEE14__annotate_newEm
FNDA:0,_ZNKSt3__16vectorIN7testing12TestPropertyENS_9allocatorIS2_EEE14__annotate_newEm
FN:872,_ZNKSt3__16vectorIPN7testing8TestInfoENS_9allocatorIS3_EEE14__annotate_newEm
FNDA:3,_ZNKSt3__16vectorIPN7testing8TestInfoENS_9allocatorIS3_EEE14__annotate_newEm
FN:872,_ZNKSt3__16vectorIiNS_9allocatorIiEEE14__annotate_newEm
FNDA:4,_ZNKSt3__16vectorIiNS_9allocatorIiEEE14__annotate_newEm
FN:872,_ZNKSt3__16vectorIPN7testing17TestEventListenerENS_9allocatorIS3_EEE14__annotate_newEm
FNDA:1,_ZNKSt3__16vectorIPN7testing17TestEventListenerENS_9allocatorIS3_EEE14__annotate_newEm
FN:872,_ZNKSt3__16vectorIPN7testing11EnvironmentENS_9allocatorIS3_EEE14__annotate_newEm
FNDA:0,_ZNKSt3__16vectorIPN7testing11EnvironmentENS_9allocatorIS3_EEE14__annotate_newEm
FN:872,_ZNKSt3__16vectorIN7testing8internal9TraceInfoENS_9allocatorIS3_EEE14__annotate_newEm
FNDA:0,_ZNKSt3__16vectorIN7testing8internal9TraceInfoENS_9allocatorIS3_EEE14__annotate_newEm
FN:872,_ZNKSt3__16vectorIPN7testing9TestSuiteENS_9allocatorIS3_EEE14__annotate_newEm
FNDA:1,_ZNKSt3__16vectorIPN7testing9TestSuiteENS_9allocatorIS3_EEE14__annotate_newEm
FN:878,_ZNKSt3__16vectorIPN7testing8internal30ParameterizedTestSuiteInfoBaseENS_9allocatorIS4_EEE17__annotate_deleteEv
FNDA:1,_ZNKSt3__16vectorIPN7testing8internal30ParameterizedTestSuiteInfoBaseENS_9allocatorIS4_EEE17__annotate_deleteEv
FN:878,_ZNKSt3__16vectorIPcNS_9allocatorIS1_EEE17__annotate_deleteEv
FNDA:0,_ZNKSt3__16vectorIPcNS_9allocatorIS1_EEE17__annotate_deleteEv
FN:878,_ZNKSt3__16vectorIN7testing14TestPartResultENS_9allocatorIS2_EEE17__annotate_deleteEv
FNDA:6,_ZNKSt3__16vectorIN7testing14TestPartResultENS_9allocatorIS2_EEE17__annotate_deleteEv
FN:878,_ZNKSt3__16vectorINS_12basic_stringIcNS_11char_traitsIcEENS_9allocatorIcEEEENS4_IS6_EEE17__annotate_deleteEv
FNDA:5,_ZNKSt3__16vectorINS_12basic_stringIcNS_11char_traitsIcEENS_9allocatorIcEEEENS4_IS6_EEE17__annotate_deleteEv
FN:878,_ZNKSt3__16vectorIdNS_9allocatorIdEEE17__annotate_deleteEv
FNDA:0,_ZNKSt3__16vectorIdNS_9allocatorIdEEE17__annotate_deleteEv
FN:878,_ZNKSt3__16vectorINS0_IdNS_9allocatorIdEEEENS1_IS3_EEE17__annotate_deleteEv
FNDA:0,_ZNKSt3__16vectorINS0_IdNS_9allocatorIdEEEENS1_IS3_EEE17__annotate_deleteEv
FN:878,_ZNKSt3__16vectorIN7testing8internal13edit_distance8EditTypeENS_9allocatorIS4_EEE17__annotate_deleteEv
FNDA:0,_ZNKSt3__16vectorIN7testing8internal13edit_distance8EditTypeENS_9allocatorIS4_EEE17__annotate_deleteEv
FN:878,_ZNKSt3__16vectorINS0_IN7testing8internal13edit_distance8EditTypeENS_9allocatorIS4_EEEENS5_IS7_EEE17__annotate_deleteEv
FNDA:0,_ZNKSt3__16vectorINS0_IN7testing8internal13edit_distance8EditTypeENS_9allocatorIS4_EEEENS5_IS7_EEE17__annotate_deleteEv
FN:878,_ZNKSt3__16vectorImNS_9allocatorImEEE17__annotate_deleteEv
FNDA:0,_ZNKSt3__16vectorImNS_9allocatorImEEE17__annotate_deleteEv
FN:878,_ZNKSt3__16vectorIN7testing12TestPropertyENS_9allocatorIS2_EEE17__annotate_deleteEv
FNDA:6,_ZNKSt3__16vectorIN7testing12TestPropertyENS_9allocatorIS2_EEE17__annotate_deleteEv
FN:878,_ZNKSt3__16vectorIPN7testing8TestInfoENS_9allocatorIS3_EEE17__annotate_deleteEv
FNDA:4,_ZNKSt3__16vectorIPN7testing8TestInfoENS_9allocatorIS3_EEE17__annotate_deleteEv
FN:878,_ZNKSt3__16vectorIiNS_9allocatorIiEEE17__annotate_deleteEv
FNDA:6,_ZNKSt3__16vectorIiNS_9allocatorIiEEE17__annotate_deleteEv
FN:878,_ZNKSt3__16vectorIPN7testing17TestEventListenerENS_9allocatorIS3_EEE17__annotate_deleteEv
FNDA:2,_ZNKSt3__16vectorIPN7testing17TestEventListenerENS_9allocatorIS3_EEE17__annotate_deleteEv
FN:878,_ZNKSt3__16vectorIPN7testing11EnvironmentENS_9allocatorIS3_EEE17__annotate_deleteEv
FNDA:1,_ZNKSt3__16vectorIPN7testing11EnvironmentENS_9allocatorIS3_EEE17__annotate_deleteEv
FN:878,_ZNKSt3__16vectorIN7testing8internal9TraceInfoENS_9allocatorIS3_EEE17__annotate_deleteEv
FNDA:0,_ZNKSt3__16vectorIN7testing8internal9TraceInfoENS_9allocatorIS3_EEE17__annotate_deleteEv
FN:878,_ZNKSt3__16vectorIPN7testing9TestSuiteENS_9allocatorIS3_EEE17__annotate_deleteEv
FNDA:2,_ZNKSt3__16vectorIPN7testing9TestSuiteENS_9allocatorIS3_EEE17__annotate_deleteEv
FN:891,_ZNKSt3__16vectorIN7testing14TestPartResultENS_9allocatorIS2_EEE17__annotate_shrinkEm
FNDA:0,_ZNKSt3__16vectorIN7testing14TestPartResultENS_9allocatorIS2_EEE17__annotate_shrinkEm
FN:891,_ZNKSt3__16vectorIN7testing12TestPropertyENS_9allocatorIS2_EEE17__annotate_shrinkEm
FNDA:0,_ZNKSt3__16vectorIN7testing12TestPropertyENS_9allocatorIS2_EEE17__annotate_shrinkEm
FN:891,_ZNKSt3__16vectorIPN7testing17TestEventListenerENS_9allocatorIS3_EEE17__annotate_shrinkEm
FNDA:0,_ZNKSt3__16vectorIPN7testing17TestEventListenerENS_9allocatorIS3_EEE17__annotate_shrinkEm
FN:891,_ZNKSt3__16vectorIN7testing8internal9TraceInfoENS_9allocatorIS3_EEE17__annotate_shrinkEm
FNDA:0,_ZNKSt3__16vectorIN7testing8internal9TraceInfoENS_9allocatorIS3_EEE17__annotate_shrinkEm
FN:891,_ZNKSt3__16vectorINS_12basic_stringIcNS_11char_traitsIcEENS_9allocatorIcEEEENS4_IS6_EEE17__annotate_shrinkEm
FNDA:1,_ZNKSt3__16vectorINS_12basic_stringIcNS_11char_traitsIcEENS_9allocatorIcEEEENS4_IS6_EEE17__annotate_shrinkEm
FN:898,_ZNSt3__16vectorINS_12basic_stringIcNS_11char_traitsIcEENS_9allocatorIcEEEENS4_IS6_EEE21_ConstructTransactionC1ERS8_m
FNDA:1,_ZNSt3__16vectorINS_12basic_stringIcNS_11char_traitsIcEENS_9allocatorIcEEEENS4_IS6_EEE21_ConstructTransactionC1ERS8_m
FN:898,_ZNSt3__16vectorINS_12basic_stringIcNS_11char_traitsIcEENS_9allocatorIcEEEENS4_IS6_EEE21_ConstructTransactionC2ERS8_m
FNDA:1,_ZNSt3__16vectorINS_12basic_stringIcNS_11char_traitsIcEENS_9allocatorIcEEEENS4_IS6_EEE21_ConstructTransactionC2ERS8_m
FN:898,_ZNSt3__16vectorIPcNS_9allocatorIS1_EEE21_ConstructTransactionC1ERS4_m
FNDA:0,_ZNSt3__16vectorIPcNS_9allocatorIS1_EEE21_ConstructTransactionC1ERS4_m
FN:898,_ZNSt3__16vectorIPcNS_9allocatorIS1_EEE21_ConstructTransactionC2ERS4_m
FNDA:0,_ZNSt3__16vectorIPcNS_9allocatorIS1_EEE21_ConstructTransactionC2ERS4_m
FN:898,_ZNSt3__16vectorIdNS_9allocatorIdEEE21_ConstructTransactionC1ERS3_m
FNDA:0,_ZNSt3__16vectorIdNS_9allocatorIdEEE21_ConstructTransactionC1ERS3_m
FN:898,_ZNSt3__16vectorIdNS_9allocatorIdEEE21_ConstructTransactionC2ERS3_m
FNDA:0,_ZNSt3__16vectorIdNS_9allocatorIdEEE21_ConstructTransactionC2ERS3_m
FN:898,_ZNSt3__16vectorINS0_IdNS_9allocatorIdEEEENS1_IS3_EEE21_ConstructTransactionC1ERS5_m
FNDA:0,_ZNSt3__16vectorINS0_IdNS_9allocatorIdEEEENS1_IS3_EEE21_ConstructTransactionC1ERS5_m
FN:898,_ZNSt3__16vectorINS0_IdNS_9allocatorIdEEEENS1_IS3_EEE21_ConstructTransactionC2ERS5_m
FNDA:0,_ZNSt3__16vectorINS0_IdNS_9allocatorIdEEEENS1_IS3_EEE21_ConstructTransactionC2ERS5_m
FN:898,_ZNSt3__16vectorIN7testing8internal13edit_distance8EditTypeENS_9allocatorIS4_EEE21_ConstructTransactionC1ERS7_m
FNDA:0,_ZNSt3__16vectorIN7testing8internal13edit_distance8EditTypeENS_9allocatorIS4_EEE21_ConstructTransactionC1ERS7_m
FN:898,_ZNSt3__16vectorIN7testing8internal13edit_distance8EditTypeENS_9allocatorIS4_EEE21_ConstructTransactionC2ERS7_m
FNDA:0,_ZNSt3__16vectorIN7testing8internal13edit_distance8EditTypeENS_9allocatorIS4_EEE21_ConstructTransactionC2ERS7_m
FN:898,_ZNSt3__16vectorINS0_IN7testing8internal13edit_distance8EditTypeENS_9allocatorIS4_EEEENS5_IS7_EEE21_ConstructTransactionC1ERS9_m
FNDA:0,_ZNSt3__16vectorINS0_IN7testing8internal13edit_distance8EditTypeENS_9allocatorIS4_EEEENS5_IS7_EEE21_ConstructTransactionC1ERS9_m
FN:898,_ZNSt3__16vectorINS0_IN7testing8internal13edit_distance8EditTypeENS_9allocatorIS4_EEEENS5_IS7_EEE21_ConstructTransactionC2ERS9_m
FNDA:0,_ZNSt3__16vectorINS0_IN7testing8internal13edit_distance8EditTypeENS_9allocatorIS4_EEEENS5_IS7_EEE21_ConstructTransactionC2ERS9_m
FN:898,_ZNSt3__16vectorImNS_9allocatorImEEE21_ConstructTransactionC1ERS3_m
FNDA:0,_ZNSt3__16vectorImNS_9allocatorImEEE21_ConstructTransactionC1ERS3_m
FN:898,_ZNSt3__16vectorImNS_9allocatorImEEE21_ConstructTransactionC2ERS3_m
FNDA:0,_ZNSt3__16vectorImNS_9allocatorImEEE21_ConstructTransactionC2ERS3_m
FN:898,_ZNSt3__16vectorIN7testing14TestPartResultENS_9allocatorIS2_EEE21_ConstructTransactionC1ERS5_m
FNDA:0,_ZNSt3__16vectorIN7testing14TestPartResultENS_9allocatorIS2_EEE21_ConstructTransactionC1ERS5_m
FN:898,_ZNSt3__16vectorIN7testing14TestPartResultENS_9allocatorIS2_EEE21_ConstructTransactionC2ERS5_m
FNDA:0,_ZNSt3__16vectorIN7testing14TestPartResultENS_9allocatorIS2_EEE21_ConstructTransactionC2ERS5_m
FN:898,_ZNSt3__16vectorIN7testing12TestPropertyENS_9allocatorIS2_EEE21_ConstructTransactionC1ERS5_m
FNDA:0,_ZNSt3__16vectorIN7testing12TestPropertyENS_9allocatorIS2_EEE21_ConstructTransactionC1ERS5_m
FN:898,_ZNSt3__16vectorIN7testing12TestPropertyENS_9allocatorIS2_EEE21_ConstructTransactionC2ERS5_m
FNDA:0,_ZNSt3__16vectorIN7testing12TestPropertyENS_9allocatorIS2_EEE21_ConstructTransactionC2ERS5_m
FN:898,_ZNSt3__16vectorIPN7testing8TestInfoENS_9allocatorIS3_EEE21_ConstructTransactionC1ERS6_m
FNDA:1,_ZNSt3__16vectorIPN7testing8TestInfoENS_9allocatorIS3_EEE21_ConstructTransactionC1ERS6_m
FN:898,_ZNSt3__16vectorIPN7testing8TestInfoENS_9allocatorIS3_EEE21_ConstructTransactionC2ERS6_m
FNDA:1,_ZNSt3__16vectorIPN7testing8TestInfoENS_9allocatorIS3_EEE21_ConstructTransactionC2ERS6_m
FN:898,_ZNSt3__16vectorIiNS_9allocatorIiEEE21_ConstructTransactionC1ERS3_m
FNDA:1,_ZNSt3__16vectorIiNS_9allocatorIiEEE21_ConstructTransactionC1ERS3_m
FN:898,_ZNSt3__16vectorIiNS_9allocatorIiEEE21_ConstructTransactionC2ERS3_m
FNDA:1,_ZNSt3__16vectorIiNS_9allocatorIiEEE21_ConstructTransactionC2ERS3_m
FN:898,_ZNSt3__16vectorIPN7testing17TestEventListenerENS_9allocatorIS3_EEE21_ConstructTransactionC1ERS6_m
FNDA:0,_ZNSt3__16vectorIPN7testing17TestEventListenerENS_9allocatorIS3_EEE21_ConstructTransactionC1ERS6_m
FN:898,_ZNSt3__16vectorIPN7testing17TestEventListenerENS_9allocatorIS3_EEE21_ConstructTransactionC2ERS6_m
FNDA:0,_ZNSt3__16vectorIPN7testing17TestEventListenerENS_9allocatorIS3_EEE21_ConstructTransactionC2ERS6_m
FN:898,_ZNSt3__16vectorIPN7testing11EnvironmentENS_9allocatorIS3_EEE21_ConstructTransactionC1ERS6_m
FNDA:0,_ZNSt3__16vectorIPN7testing11EnvironmentENS_9allocatorIS3_EEE21_ConstructTransactionC1ERS6_m
FN:898,_ZNSt3__16vectorIPN7testing11EnvironmentENS_9allocatorIS3_EEE21_ConstructTransactionC2ERS6_m
FNDA:0,_ZNSt3__16vectorIPN7testing11EnvironmentENS_9allocatorIS3_EEE21_ConstructTransactionC2ERS6_m
FN:898,_ZNSt3__16vectorIN7testing8internal9TraceInfoENS_9allocatorIS3_EEE21_ConstructTransactionC1ERS6_m
FNDA:0,_ZNSt3__16vectorIN7testing8internal9TraceInfoENS_9allocatorIS3_EEE21_ConstructTransactionC1ERS6_m
FN:898,_ZNSt3__16vectorIN7testing8internal9TraceInfoENS_9allocatorIS3_EEE21_ConstructTransactionC2ERS6_m
FNDA:0,_ZNSt3__16vectorIN7testing8internal9TraceInfoENS_9allocatorIS3_EEE21_ConstructTransactionC2ERS6_m
FN:898,_ZNSt3__16vectorIPN7testing9TestSuiteENS_9allocatorIS3_EEE21_ConstructTransactionC1ERS6_m
FNDA:0,_ZNSt3__16vectorIPN7testing9TestSuiteENS_9allocatorIS3_EEE21_ConstructTransactionC1ERS6_m
FN:898,_ZNSt3__16vectorIPN7testing9TestSuiteENS_9allocatorIS3_EEE21_ConstructTransactionC2ERS6_m
FNDA:0,_ZNSt3__16vectorIPN7testing9TestSuiteENS_9allocatorIS3_EEE21_ConstructTransactionC2ERS6_m
FN:904,_ZNSt3__16vectorINS_12basic_stringIcNS_11char_traitsIcEENS_9allocatorIcEEEENS4_IS6_EEE21_ConstructTransactionD1Ev
FNDA:1,_ZNSt3__16vectorINS_12basic_stringIcNS_11char_traitsIcEENS_9allocatorIcEEEENS4_IS6_EEE21_ConstructTransactionD1Ev
FN:904,_ZNSt3__16vectorINS_12basic_stringIcNS_11char_traitsIcEENS_9allocatorIcEEEENS4_IS6_EEE21_ConstructTransactionD2Ev
FNDA:1,_ZNSt3__16vectorINS_12basic_stringIcNS_11char_traitsIcEENS_9allocatorIcEEEENS4_IS6_EEE21_ConstructTransactionD2Ev
FN:904,_ZNSt3__16vectorIPcNS_9allocatorIS1_EEE21_ConstructTransactionD1Ev
FNDA:0,_ZNSt3__16vectorIPcNS_9allocatorIS1_EEE21_ConstructTransactionD1Ev
FN:904,_ZNSt3__16vectorIPcNS_9allocatorIS1_EEE21_ConstructTransactionD2Ev
FNDA:0,_ZNSt3__16vectorIPcNS_9allocatorIS1_EEE21_ConstructTransactionD2Ev
FN:904,_ZNSt3__16vectorIdNS_9allocatorIdEEE21_ConstructTransactionD1Ev
FNDA:0,_ZNSt3__16vectorIdNS_9allocatorIdEEE21_ConstructTransactionD1Ev
FN:904,_ZNSt3__16vectorIdNS_9allocatorIdEEE21_ConstructTransactionD2Ev
FNDA:0,_ZNSt3__16vectorIdNS_9allocatorIdEEE21_ConstructTransactionD2Ev
FN:904,_ZNSt3__16vectorINS0_IdNS_9allocatorIdEEEENS1_IS3_EEE21_ConstructTransactionD1Ev
FNDA:0,_ZNSt3__16vectorINS0_IdNS_9allocatorIdEEEENS1_IS3_EEE21_ConstructTransactionD1Ev
FN:904,_ZNSt3__16vectorINS0_IdNS_9allocatorIdEEEENS1_IS3_EEE21_ConstructTransactionD2Ev
FNDA:0,_ZNSt3__16vectorINS0_IdNS_9allocatorIdEEEENS1_IS3_EEE21_ConstructTransactionD2Ev
FN:904,_ZNSt3__16vectorIN7testing8internal13edit_distance8EditTypeENS_9allocatorIS4_EEE21_ConstructTransactionD1Ev
FNDA:0,_ZNSt3__16vectorIN7testing8internal13edit_distance8EditTypeENS_9allocatorIS4_EEE21_ConstructTransactionD1Ev
FN:904,_ZNSt3__16vectorIN7testing8internal13edit_distance8EditTypeENS_9allocatorIS4_EEE21_ConstructTransactionD2Ev
FNDA:0,_ZNSt3__16vectorIN7testing8internal13edit_distance8EditTypeENS_9allocatorIS4_EEE21_ConstructTransactionD2Ev
FN:904,_ZNSt3__16vectorINS0_IN7testing8internal13edit_distance8EditTypeENS_9allocatorIS4_EEEENS5_IS7_EEE21_ConstructTransactionD1Ev
FNDA:0,_ZNSt3__16vectorINS0_IN7testing8internal13edit_distance8EditTypeENS_9allocatorIS4_EEEENS5_IS7_EEE21_ConstructTransactionD1Ev
FN:904,_ZNSt3__16vectorINS0_IN7testing8internal13edit_distance8EditTypeENS_9allocatorIS4_EEEENS5_IS7_EEE21_ConstructTransactionD2Ev
FNDA:0,_ZNSt3__16vectorINS0_IN7testing8internal13edit_distance8EditTypeENS_9allocatorIS4_EEEENS5_IS7_EEE21_ConstructTransactionD2Ev
FN:904,_ZNSt3__16vectorImNS_9allocatorImEEE21_ConstructTransactionD1Ev
FNDA:0,_ZNSt3__16vectorImNS_9allocatorImEEE21_ConstructTransactionD1Ev
FN:904,_ZNSt3__16vectorImNS_9allocatorImEEE21_ConstructTransactionD2Ev
FNDA:0,_ZNSt3__16vectorImNS_9allocatorImEEE21_ConstructTransactionD2Ev
FN:904,_ZNSt3__16vectorIN7testing14TestPartResultENS_9allocatorIS2_EEE21_ConstructTransactionD1Ev
FNDA:0,_ZNSt3__16vectorIN7testing14TestPartResultENS_9allocatorIS2_EEE21_ConstructTransactionD1Ev
FN:904,_ZNSt3__16vectorIN7testing14TestPartResultENS_9allocatorIS2_EEE21_ConstructTransactionD2Ev
FNDA:0,_ZNSt3__16vectorIN7testing14TestPartResultENS_9allocatorIS2_EEE21_ConstructTransactionD2Ev
FN:904,_ZNSt3__16vectorIN7testing12TestPropertyENS_9allocatorIS2_EEE21_ConstructTransactionD1Ev
FNDA:0,_ZNSt3__16vectorIN7testing12TestPropertyENS_9allocatorIS2_EEE21_ConstructTransactionD1Ev
FN:904,_ZNSt3__16vectorIN7testing12TestPropertyENS_9allocatorIS2_EEE21_ConstructTransactionD2Ev
FNDA:0,_ZNSt3__16vectorIN7testing12TestPropertyENS_9allocatorIS2_EEE21_ConstructTransactionD2Ev
FN:904,_ZNSt3__16vectorIPN7testing8TestInfoENS_9allocatorIS3_EEE21_ConstructTransactionD1Ev
FNDA:1,_ZNSt3__16vectorIPN7testing8TestInfoENS_9allocatorIS3_EEE21_ConstructTransactionD1Ev
FN:904,_ZNSt3__16vectorIPN7testing8TestInfoENS_9allocatorIS3_EEE21_ConstructTransactionD2Ev
FNDA:1,_ZNSt3__16vectorIPN7testing8TestInfoENS_9allocatorIS3_EEE21_ConstructTransactionD2Ev
FN:904,_ZNSt3__16vectorIiNS_9allocatorIiEEE21_ConstructTransactionD1Ev
FNDA:1,_ZNSt3__16vectorIiNS_9allocatorIiEEE21_ConstructTransactionD1Ev
FN:904,_ZNSt3__16vectorIiNS_9allocatorIiEEE21_ConstructTransactionD2Ev
FNDA:1,_ZNSt3__16vectorIiNS_9allocatorIiEEE21_ConstructTransactionD2Ev
FN:904,_ZNSt3__16vectorIPN7testing17TestEventListenerENS_9allocatorIS3_EEE21_ConstructTransactionD1Ev
FNDA:0,_ZNSt3__16vectorIPN7testing17TestEventListenerENS_9allocatorIS3_EEE21_ConstructTransactionD1Ev
FN:904,_ZNSt3__16vectorIPN7testing17TestEventListenerENS_9allocatorIS3_EEE21_ConstructTransactionD2Ev
FNDA:0,_ZNSt3__16vectorIPN7testing17TestEventListenerENS_9allocatorIS3_EEE21_ConstructTransactionD2Ev
FN:904,_ZNSt3__16vectorIPN7testing11EnvironmentENS_9allocatorIS3_EEE21_ConstructTransactionD1Ev
FNDA:0,_ZNSt3__16vectorIPN7testing11EnvironmentENS_9allocatorIS3_EEE21_ConstructTransactionD1Ev
FN:904,_ZNSt3__16vectorIPN7testing11EnvironmentENS_9allocatorIS3_EEE21_ConstructTransactionD2Ev
FNDA:0,_ZNSt3__16vectorIPN7testing11EnvironmentENS_9allocatorIS3_EEE21_ConstructTransactionD2Ev
FN:904,_ZNSt3__16vectorIN7testing8internal9TraceInfoENS_9allocatorIS3_EEE21_ConstructTransactionD1Ev
FNDA:0,_ZNSt3__16vectorIN7testing8internal9TraceInfoENS_9allocatorIS3_EEE21_ConstructTransactionD1Ev
FN:904,_ZNSt3__16vectorIN7testing8internal9TraceInfoENS_9allocatorIS3_EEE21_ConstructTransactionD2Ev
FNDA:0,_ZNSt3__16vectorIN7testing8internal9TraceInfoENS_9allocatorIS3_EEE21_ConstructTransactionD2Ev
FN:904,_ZNSt3__16vectorIPN7testing9TestSuiteENS_9allocatorIS3_EEE21_ConstructTransactionD1Ev
FNDA:0,_ZNSt3__16vectorIPN7testing9TestSuiteENS_9allocatorIS3_EEE21_ConstructTransactionD1Ev
FN:904,_ZNSt3__16vectorIPN7testing9TestSuiteENS_9allocatorIS3_EEE21_ConstructTransactionD2Ev
FNDA:0,_ZNSt3__16vectorIPN7testing9TestSuiteENS_9allocatorIS3_EEE21_ConstructTransactionD2Ev
FN:924,_ZNSt3__16vectorIPcNS_9allocatorIS1_EEE22__construct_one_at_endIJS1_EEEvDpOT_
FNDA:0,_ZNSt3__16vectorIPcNS_9allocatorIS1_EEE22__construct_one_at_endIJS1_EEEvDpOT_
FN:924,_ZNSt3__16vectorINS_12basic_stringIcNS_11char_traitsIcEENS_9allocatorIcEEEENS4_IS6_EEE22__construct_one_at_endIJS6_EEEvDpOT_
FNDA:0,_ZNSt3__16vectorINS_12basic_stringIcNS_11char_traitsIcEENS_9allocatorIcEEEENS4_IS6_EEE22__construct_one_at_endIJS6_EEEvDpOT_
FN:924,_ZNSt3__16vectorIN7testing8internal13edit_distance8EditTypeENS_9allocatorIS4_EEE22__construct_one_at_endIJRKS4_EEEvDpOT_
FNDA:0,_ZNSt3__16vectorIN7testing8internal13edit_distance8EditTypeENS_9allocatorIS4_EEE22__construct_one_at_endIJRKS4_EEEvDpOT_
FN:924,_ZNSt3__16vectorImNS_9allocatorImEEE22__construct_one_at_endIJmEEEvDpOT_
FNDA:0,_ZNSt3__16vectorImNS_9allocatorImEEE22__construct_one_at_endIJmEEEvDpOT_
FN:924,_ZNSt3__16vectorIN7testing14TestPartResultENS_9allocatorIS2_EEE22__construct_one_at_endIJRKS2_EEEvDpOT_
FNDA:0,_ZNSt3__16vectorIN7testing14TestPartResultENS_9allocatorIS2_EEE22__construct_one_at_endIJRKS2_EEEvDpOT_
FN:924,_ZNSt3__16vectorIN7testing12TestPropertyENS_9allocatorIS2_EEE22__construct_one_at_endIJRKS2_EEEvDpOT_
FNDA:0,_ZNSt3__16vectorIN7testing12TestPropertyENS_9allocatorIS2_EEE22__construct_one_at_endIJRKS2_EEEvDpOT_
FN:924,_ZNSt3__16vectorIPN7testing8TestInfoENS_9allocatorIS3_EEE22__construct_one_at_endIJRKS3_EEEvDpOT_
FNDA:1,_ZNSt3__16vectorIPN7testing8TestInfoENS_9allocatorIS3_EEE22__construct_one_at_endIJRKS3_EEEvDpOT_
FN:924,_ZNSt3__16vectorIiNS_9allocatorIiEEE22__construct_one_at_endIJiEEEvDpOT_
FNDA:1,_ZNSt3__16vectorIiNS_9allocatorIiEEE22__construct_one_at_endIJiEEEvDpOT_
FN:924,_ZNSt3__16vectorIPN7testing17TestEventListenerENS_9allocatorIS3_EEE22__construct_one_at_endIJRKS3_EEEvDpOT_
FNDA:0,_ZNSt3__16vectorIPN7testing17TestEventListenerENS_9allocatorIS3_EEE22__construct_one_at_endIJRKS3_EEEvDpOT_
FN:924,_ZNSt3__16vectorIPN7testing11EnvironmentENS_9allocatorIS3_EEE22__construct_one_at_endIJRKS3_EEEvDpOT_
FNDA:0,_ZNSt3__16vectorIPN7testing11EnvironmentENS_9allocatorIS3_EEE22__construct_one_at_endIJRKS3_EEEvDpOT_
FN:924,_ZNSt3__16vectorIN7testing8internal9TraceInfoENS_9allocatorIS3_EEE22__construct_one_at_endIJRKS3_EEEvDpOT_
FNDA:0,_ZNSt3__16vectorIN7testing8internal9TraceInfoENS_9allocatorIS3_EEE22__construct_one_at_endIJRKS3_EEEvDpOT_
FN:924,_ZNSt3__16vectorIPN7testing9TestSuiteENS_9allocatorIS3_EEE22__construct_one_at_endIJRKS3_EEEvDpOT_
FNDA:0,_ZNSt3__16vectorIPN7testing9TestSuiteENS_9allocatorIS3_EEE22__construct_one_at_endIJRKS3_EEEvDpOT_
FN:950,_ZNSt3__16vectorIPcNS_9allocatorIS1_EEE26__swap_out_circular_bufferERNS_14__split_bufferIS1_RS3_EE
FNDA:0,_ZNSt3__16vectorIPcNS_9allocatorIS1_EEE26__swap_out_circular_bufferERNS_14__split_bufferIS1_RS3_EE
FN:950,_ZNSt3__16vectorINS_12basic_stringIcNS_11char_traitsIcEENS_9allocatorIcEEEENS4_IS6_EEE26__swap_out_circular_bufferERNS_14__split_bufferIS6_RS7_EE
FNDA:2,_ZNSt3__16vectorINS_12basic_stringIcNS_11char_traitsIcEENS_9allocatorIcEEEENS4_IS6_EEE26__swap_out_circular_bufferERNS_14__split_bufferIS6_RS7_EE
FN:950,_ZNSt3__16vectorIN7testing8internal13edit_distance8EditTypeENS_9allocatorIS4_EEE26__swap_out_circular_bufferERNS_14__split_bufferIS4_RS6_EE
FNDA:0,_ZNSt3__16vectorIN7testing8internal13edit_distance8EditTypeENS_9allocatorIS4_EEE26__swap_out_circular_bufferERNS_14__split_bufferIS4_RS6_EE
FN:950,_ZNSt3__16vectorImNS_9allocatorImEEE26__swap_out_circular_bufferERNS_14__split_bufferImRS2_EE
FNDA:0,_ZNSt3__16vectorImNS_9allocatorImEEE26__swap_out_circular_bufferERNS_14__split_bufferImRS2_EE
FN:950,_ZNSt3__16vectorIN7testing14TestPartResultENS_9allocatorIS2_EEE26__swap_out_circular_bufferERNS_14__split_bufferIS2_RS4_EE
FNDA:0,_ZNSt3__16vectorIN7testing14TestPartResultENS_9allocatorIS2_EEE26__swap_out_circular_bufferERNS_14__split_bufferIS2_RS4_EE
FN:950,_ZNSt3__16vectorIN7testing12TestPropertyENS_9allocatorIS2_EEE26__swap_out_circular_bufferERNS_14__split_bufferIS2_RS4_EE
FNDA:0,_ZNSt3__16vectorIN7testing12TestPropertyENS_9allocatorIS2_EEE26__swap_out_circular_bufferERNS_14__split_bufferIS2_RS4_EE
FN:950,_ZNSt3__16vectorIPN7testing8TestInfoENS_9allocatorIS3_EEE26__swap_out_circular_bufferERNS_14__split_bufferIS3_RS5_EE
FNDA:3,_ZNSt3__16vectorIPN7testing8TestInfoENS_9allocatorIS3_EEE26__swap_out_circular_bufferERNS_14__split_bufferIS3_RS5_EE
FN:950,_ZNSt3__16vectorIiNS_9allocatorIiEEE26__swap_out_circular_bufferERNS_14__split_bufferIiRS2_EE
FNDA:4,_ZNSt3__16vectorIiNS_9allocatorIiEEE26__swap_out_circular_bufferERNS_14__split_bufferIiRS2_EE
FN:950,_ZNSt3__16vectorIPN7testing17TestEventListenerENS_9allocatorIS3_EEE26__swap_out_circular_bufferERNS_14__split_bufferIS3_RS5_EE
FNDA:1,_ZNSt3__16vectorIPN7testing17TestEventListenerENS_9allocatorIS3_EEE26__swap_out_circular_bufferERNS_14__split_bufferIS3_RS5_EE
FN:950,_ZNSt3__16vectorIPN7testing11EnvironmentENS_9allocatorIS3_EEE26__swap_out_circular_bufferERNS_14__split_bufferIS3_RS5_EE
FNDA:0,_ZNSt3__16vectorIPN7testing11EnvironmentENS_9allocatorIS3_EEE26__swap_out_circular_bufferERNS_14__split_bufferIS3_RS5_EE
FN:950,_ZNSt3__16vectorIN7testing8internal9TraceInfoENS_9allocatorIS3_EEE26__swap_out_circular_bufferERNS_14__split_bufferIS3_RS5_EE
FNDA:0,_ZNSt3__16vectorIN7testing8internal9TraceInfoENS_9allocatorIS3_EEE26__swap_out_circular_bufferERNS_14__split_bufferIS3_RS5_EE
FN:950,_ZNSt3__16vectorIPN7testing9TestSuiteENS_9allocatorIS3_EEE26__swap_out_circular_bufferERNS_14__split_bufferIS3_RS5_EE
FNDA:1,_ZNSt3__16vectorIPN7testing9TestSuiteENS_9allocatorIS3_EEE26__swap_out_circular_bufferERNS_14__split_bufferIS3_RS5_EE
FN:966,_ZNSt3__16vectorIPcNS_9allocatorIS1_EEE26__swap_out_circular_bufferERNS_14__split_bufferIS1_RS3_EEPS1_
FNDA:0,_ZNSt3__16vectorIPcNS_9allocatorIS1_EEE26__swap_out_circular_bufferERNS_14__split_bufferIS1_RS3_EEPS1_
FN:966,_ZNSt3__16vectorIPN7testing9TestSuiteENS_9allocatorIS3_EEE26__swap_out_circular_bufferERNS_14__split_bufferIS3_RS5_EEPS3_
FNDA:0,_ZNSt3__16vectorIPN7testing9TestSuiteENS_9allocatorIS3_EEE26__swap_out_circular_bufferERNS_14__split_bufferIS3_RS5_EEPS3_
FN:992,_ZNSt3__16vectorINS_12basic_stringIcNS_11char_traitsIcEENS_9allocatorIcEEEENS4_IS6_EEE11__vallocateEm
FNDA:1,_ZNSt3__16vectorINS_12basic_stringIcNS_11char_traitsIcEENS_9allocatorIcEEEENS4_IS6_EEE11__vallocateEm
FN:992,_ZNSt3__16vectorIdNS_9allocatorIdEEE11__vallocateEm
FNDA:0,_ZNSt3__16vectorIdNS_9allocatorIdEEE11__vallocateEm
FN:992,_ZNSt3__16vectorINS0_IdNS_9allocatorIdEEEENS1_IS3_EEE11__vallocateEm
FNDA:0,_ZNSt3__16vectorINS0_IdNS_9allocatorIdEEEENS1_IS3_EEE11__vallocateEm
FN:992,_ZNSt3__16vectorIN7testing8internal13edit_distance8EditTypeENS_9allocatorIS4_EEE11__vallocateEm
FNDA:0,_ZNSt3__16vectorIN7testing8internal13edit_distance8EditTypeENS_9allocatorIS4_EEE11__vallocateEm
FN:992,_ZNSt3__16vectorINS0_IN7testing8internal13edit_distance8EditTypeENS_9allocatorIS4_EEEENS5_IS7_EEE11__vallocateEm
FNDA:0,_ZNSt3__16vectorINS0_IN7testing8internal13edit_distance8EditTypeENS_9allocatorIS4_EEEENS5_IS7_EEE11__vallocateEm
FN:1015,_ZNKSt3__16vectorINS_12basic_stringIcNS_11char_traitsIcEENS_9allocatorIcEEEENS4_IS6_EEE8max_sizeEv
FNDA:3,_ZNKSt3__16vectorINS_12basic_stringIcNS_11char_traitsIcEENS_9allocatorIcEEEENS4_IS6_EEE8max_sizeEv
FN:1015,_ZNKSt3__16vectorIPcNS_9allocatorIS1_EEE8max_sizeEv
FNDA:0,_ZNKSt3__16vectorIPcNS_9allocatorIS1_EEE8max_sizeEv
FN:1015,_ZNKSt3__16vectorIdNS_9allocatorIdEEE8max_sizeEv
FNDA:0,_ZNKSt3__16vectorIdNS_9allocatorIdEEE8max_sizeEv
FN:1015,_ZNKSt3__16vectorINS0_IdNS_9allocatorIdEEEENS1_IS3_EEE8max_sizeEv
FNDA:0,_ZNKSt3__16vectorINS0_IdNS_9allocatorIdEEEENS1_IS3_EEE8max_sizeEv
FN:1015,_ZNKSt3__16vectorIN7testing8internal13edit_distance8EditTypeENS_9allocatorIS4_EEE8max_sizeEv
FNDA:0,_ZNKSt3__16vectorIN7testing8internal13edit_distance8EditTypeENS_9allocatorIS4_EEE8max_sizeEv
FN:1015,_ZNKSt3__16vectorINS0_IN7testing8internal13edit_distance8EditTypeENS_9allocatorIS4_EEEENS5_IS7_EEE8max_sizeEv
FNDA:0,_ZNKSt3__16vectorINS0_IN7testing8internal13edit_distance8EditTypeENS_9allocatorIS4_EEEENS5_IS7_EEE8max_sizeEv
FN:1015,_ZNKSt3__16vectorImNS_9allocatorImEEE8max_sizeEv
FNDA:0,_ZNKSt3__16vectorImNS_9allocatorImEEE8max_sizeEv
FN:1015,_ZNKSt3__16vectorIN7testing14TestPartResultENS_9allocatorIS2_EEE8max_sizeEv
FNDA:0,_ZNKSt3__16vectorIN7testing14TestPartResultENS_9allocatorIS2_EEE8max_sizeEv
FN:1015,_ZNKSt3__16vectorIN7testing12TestPropertyENS_9allocatorIS2_EEE8max_sizeEv
FNDA:0,_ZNKSt3__16vectorIN7testing12TestPropertyENS_9allocatorIS2_EEE8max_sizeEv
FN:1015,_ZNKSt3__16vectorIPN7testing8TestInfoENS_9allocatorIS3_EEE8max_sizeEv
FNDA:3,_ZNKSt3__16vectorIPN7testing8TestInfoENS_9allocatorIS3_EEE8max_sizeEv
FN:1015,_ZNKSt3__16vectorIiNS_9allocatorIiEEE8max_sizeEv
FNDA:4,_ZNKSt3__16vectorIiNS_9allocatorIiEEE8max_sizeEv
FN:1015,_ZNKSt3__16vectorIPN7testing17TestEventListenerENS_9allocatorIS3_EEE8max_sizeEv
FNDA:1,_ZNKSt3__16vectorIPN7testing17TestEventListenerENS_9allocatorIS3_EEE8max_sizeEv
FN:1015,_ZNKSt3__16vectorIPN7testing11EnvironmentENS_9allocatorIS3_EEE8max_sizeEv
FNDA:0,_ZNKSt3__16vectorIPN7testing11EnvironmentENS_9allocatorIS3_EEE8max_sizeEv
FN:1015,_ZNKSt3__16vectorIN7testing8internal9TraceInfoENS_9allocatorIS3_EEE8max_sizeEv
FNDA:0,_ZNKSt3__16vectorIN7testing8internal9TraceInfoENS_9allocatorIS3_EEE8max_sizeEv
FN:1015,_ZNKSt3__16vectorIPN7testing9TestSuiteENS_9allocatorIS3_EEE8max_sizeEv
FNDA:1,_ZNKSt3__16vectorIPN7testing9TestSuiteENS_9allocatorIS3_EEE8max_sizeEv
FN:1025,_ZNKSt3__16vectorIPcNS_9allocatorIS1_EEE11__recommendEm
FNDA:0,_ZNKSt3__16vectorIPcNS_9allocatorIS1_EEE11__recommendEm
FN:1025,_ZNKSt3__16vectorINS_12basic_stringIcNS_11char_traitsIcEENS_9allocatorIcEEEENS4_IS6_EEE11__recommendEm
FNDA:2,_ZNKSt3__16vectorINS_12basic_stringIcNS_11char_traitsIcEENS_9allocatorIcEEEENS4_IS6_EEE11__recommendEm
FN:1025,_ZNKSt3__16vectorIN7testing8internal13edit_distance8EditTypeENS_9allocatorIS4_EEE11__recommendEm
FNDA:0,_ZNKSt3__16vectorIN7testing8internal13edit_distance8EditTypeENS_9allocatorIS4_EEE11__recommendEm
FN:1025,_ZNKSt3__16vectorImNS_9allocatorImEEE11__recommendEm
FNDA:0,_ZNKSt3__16vectorImNS_9allocatorImEEE11__recommendEm
FN:1025,_ZNKSt3__16vectorIN7testing14TestPartResultENS_9allocatorIS2_EEE11__recommendEm
FNDA:0,_ZNKSt3__16vectorIN7testing14TestPartResultENS_9allocatorIS2_EEE11__recommendEm
FN:1025,_ZNKSt3__16vectorIN7testing12TestPropertyENS_9allocatorIS2_EEE11__recommendEm
FNDA:0,_ZNKSt3__16vectorIN7testing12TestPropertyENS_9allocatorIS2_EEE11__recommendEm
FN:1025,_ZNKSt3__16vectorIPN7testing8TestInfoENS_9allocatorIS3_EEE11__recommendEm
FNDA:3,_ZNKSt3__16vectorIPN7testing8TestInfoENS_9allocatorIS3_EEE11__recommendEm
FN:1025,_ZNKSt3__16vectorIiNS_9allocatorIiEEE11__recommendEm
FNDA:4,_ZNKSt3__16vectorIiNS_9allocatorIiEEE11__recommendEm
FN:1025,_ZNKSt3__16vectorIPN7testing17TestEventListenerENS_9allocatorIS3_EEE11__recommendEm
FNDA:1,_ZNKSt3__16vectorIPN7testing17TestEventListenerENS_9allocatorIS3_EEE11__recommendEm
FN:1025,_ZNKSt3__16vectorIPN7testing11EnvironmentENS_9allocatorIS3_EEE11__recommendEm
FNDA:0,_ZNKSt3__16vectorIPN7testing11EnvironmentENS_9allocatorIS3_EEE11__recommendEm
FN:1025,_ZNKSt3__16vectorIN7testing8internal9TraceInfoENS_9allocatorIS3_EEE11__recommendEm
FNDA:0,_ZNKSt3__16vectorIN7testing8internal9TraceInfoENS_9allocatorIS3_EEE11__recommendEm
FN:1025,_ZNKSt3__16vectorIPN7testing9TestSuiteENS_9allocatorIS3_EEE11__recommendEm
FNDA:1,_ZNKSt3__16vectorIPN7testing9TestSuiteENS_9allocatorIS3_EEE11__recommendEm
FN:1043,_ZNSt3__16vectorIdNS_9allocatorIdEEE18__construct_at_endEm
FNDA:0,_ZNSt3__16vectorIdNS_9allocatorIdEEE18__construct_at_endEm
FN:1043,_ZNSt3__16vectorIN7testing8internal13edit_distance8EditTypeENS_9allocatorIS4_EEE18__construct_at_endEm
FNDA:0,_ZNSt3__16vectorIN7testing8internal13edit_distance8EditTypeENS_9allocatorIS4_EEE18__construct_at_endEm
FN:1061,_ZNSt3__16vectorINS0_IdNS_9allocatorIdEEEENS1_IS3_EEE18__construct_at_endEmRKS3_
FNDA:0,_ZNSt3__16vectorINS0_IdNS_9allocatorIdEEEENS1_IS3_EEE18__construct_at_endEmRKS3_
FN:1061,_ZNSt3__16vectorINS0_IN7testing8internal13edit_distance8EditTypeENS_9allocatorIS4_EEEENS5_IS7_EEE18__construct_at_endEmRKS7_
FNDA:0,_ZNSt3__16vectorINS0_IN7testing8internal13edit_distance8EditTypeENS_9allocatorIS4_EEEENS5_IS7_EEE18__construct_at_endEmRKS7_
FN:1077,_ZNSt3__16vectorINS_12basic_stringIcNS_11char_traitsIcEENS_9allocatorIcEEEENS4_IS6_EEE18__construct_at_endIPKPKcEENS_9enable_ifIXsr27__is_cpp17_forward_iteratorIT_EE5valueEvE4typeESF_SF_m
FNDA:0,_ZNSt3__16vectorINS_12basic_stringIcNS_11char_traitsIcEENS_9allocatorIcEEEENS4_IS6_EEE18__construct_at_endIPKPKcEENS_9enable_ifIXsr27__is_cpp17_forward_iteratorIT_EE5valueEvE4typeESF_SF_m
FN:1077,_ZNSt3__16vectorINS_12basic_stringIcNS_11char_traitsIcEENS_9allocatorIcEEEENS4_IS6_EEE18__construct_at_endIPS6_EENS_9enable_ifIXsr27__is_cpp17_forward_iteratorIT_EE5valueEvE4typeESC_SC_m
FNDA:1,_ZNSt3__16vectorINS_12basic_stringIcNS_11char_traitsIcEENS_9allocatorIcEEEENS4_IS6_EEE18__construct_at_endIPS6_EENS_9enable_ifIXsr27__is_cpp17_forward_iteratorIT_EE5valueEvE4typeESC_SC_m
FN:1077,_ZNSt3__16vectorIdNS_9allocatorIdEEE18__construct_at_endIPdEENS_9enable_ifIXsr27__is_cpp17_forward_iteratorIT_EE5valueEvE4typeES7_S7_m
FNDA:0,_ZNSt3__16vectorIdNS_9allocatorIdEEE18__construct_at_endIPdEENS_9enable_ifIXsr27__is_cpp17_forward_iteratorIT_EE5valueEvE4typeES7_S7_m
FN:1077,_ZNSt3__16vectorIN7testing8internal13edit_distance8EditTypeENS_9allocatorIS4_EEE18__construct_at_endIPS4_EENS_9enable_ifIXsr27__is_cpp17_forward_iteratorIT_EE5valueEvE4typeESB_SB_m
FNDA:0,_ZNSt3__16vectorIN7testing8internal13edit_distance8EditTypeENS_9allocatorIS4_EEE18__construct_at_endIPS4_EENS_9enable_ifIXsr27__is_cpp17_forward_iteratorIT_EE5valueEvE4typeESB_SB_m
FN:1077,_ZNSt3__16vectorINS_12basic_stringIcNS_11char_traitsIcEENS_9allocatorIcEEEENS4_IS6_EEE18__construct_at_endINS_11__wrap_iterIPKS6_EEEENS_9enable_ifIXsr27__is_cpp17_forward_iteratorIT_EE5valueEvE4typeESF_SF_m
FNDA:0,_ZNSt3__16vectorINS_12basic_stringIcNS_11char_traitsIcEENS_9allocatorIcEEEENS4_IS6_EEE18__construct_at_endINS_11__wrap_iterIPKS6_EEEENS_9enable_ifIXsr27__is_cpp17_forward_iteratorIT_EE5valueEvE4typeESF_SF_m
FN:1122,_ZNSt3__16vectorIdNS_9allocatorIdEEEC1Em
FNDA:0,_ZNSt3__16vectorIdNS_9allocatorIdEEEC1Em
FN:1122,_ZNSt3__16vectorIN7testing8internal13edit_distance8EditTypeENS_9allocatorIS4_EEEC1Em
FNDA:0,_ZNSt3__16vectorIN7testing8internal13edit_distance8EditTypeENS_9allocatorIS4_EEEC1Em
FN:1122,_ZNSt3__16vectorIdNS_9allocatorIdEEEC2Em
FNDA:0,_ZNSt3__16vectorIdNS_9allocatorIdEEEC2Em
FN:1122,_ZNSt3__16vectorIN7testing8internal13edit_distance8EditTypeENS_9allocatorIS4_EEEC2Em
FNDA:0,_ZNSt3__16vectorIN7testing8internal13edit_distance8EditTypeENS_9allocatorIS4_EEEC2Em
FN:1151,_ZNSt3__16vectorINS0_IdNS_9allocatorIdEEEENS1_IS3_EEEC1EmRKS3_
FNDA:0,_ZNSt3__16vectorINS0_IdNS_9allocatorIdEEEENS1_IS3_EEEC1EmRKS3_
FN:1151,_ZNSt3__16vectorINS0_IN7testing8internal13edit_distance8EditTypeENS_9allocatorIS4_EEEENS5_IS7_EEEC1EmRKS7_
FNDA:0,_ZNSt3__16vectorINS0_IN7testing8internal13edit_distance8EditTypeENS_9allocatorIS4_EEEENS5_IS7_EEEC1EmRKS7_
FN:1151,_ZNSt3__16vectorINS0_IdNS_9allocatorIdEEEENS1_IS3_EEEC2EmRKS3_
FNDA:0,_ZNSt3__16vectorINS0_IdNS_9allocatorIdEEEENS1_IS3_EEEC2EmRKS3_
FN:1151,_ZNSt3__16vectorINS0_IN7testing8internal13edit_distance8EditTypeENS_9allocatorIS4_EEEENS5_IS7_EEEC2EmRKS7_
FNDA:0,_ZNSt3__16vectorINS0_IN7testing8internal13edit_distance8EditTypeENS_9allocatorIS4_EEEENS5_IS7_EEEC2EmRKS7_
FN:1213,_ZNSt3__16vectorINS_12basic_stringIcNS_11char_traitsIcEENS_9allocatorIcEEEENS4_IS6_EEEC1INS_11__wrap_iterIPKS6_EEEET_NS_9enable_ifIXaasr27__is_cpp17_forward_iteratorISE_EE5valuesr16is_constructibleIS6_NS_15iterator_traitsISE_E9referenceEEE5valueESE_E4typeE
FNDA:0,_ZNSt3__16vectorINS_12basic_stringIcNS_11char_traitsIcEENS_9allocatorIcEEEENS4_IS6_EEEC1INS_11__wrap_iterIPKS6_EEEET_NS_9enable_ifIXaasr27__is_cpp17_forward_iteratorISE_EE5valuesr16is_constructibleIS6_NS_15iterator_traitsISE_E9referenceEEE5valueESE_E4typeE
FN:1213,_ZNSt3__16vectorINS_12basic_stringIcNS_11char_traitsIcEENS_9allocatorIcEEEENS4_IS6_EEEC1IPKPKcEET_NS_9enable_ifIXaasr27__is_cpp17_forward_iteratorISE_EE5valuesr16is_constructibleIS6_NS_15iterator_traitsISE_E9referenceEEE5valueESE_E4typeE
FNDA:0,_ZNSt3__16vectorINS_12basic_stringIcNS_11char_traitsIcEENS_9allocatorIcEEEENS4_IS6_EEEC1IPKPKcEET_NS_9enable_ifIXaasr27__is_cpp17_forward_iteratorISE_EE5valuesr16is_constructibleIS6_NS_15iterator_traitsISE_E9referenceEEE5valueESE_E4typeE
FN:1213,_ZNSt3__16vectorINS_12basic_stringIcNS_11char_traitsIcEENS_9allocatorIcEEEENS4_IS6_EEEC2IPKPKcEET_NS_9enable_ifIXaasr27__is_cpp17_forward_iteratorISE_EE5valuesr16is_constructibleIS6_NS_15iterator_traitsISE_E9referenceEEE5valueESE_E4typeE
FNDA:0,_ZNSt3__16vectorINS_12basic_stringIcNS_11char_traitsIcEENS_9allocatorIcEEEENS4_IS6_EEEC2IPKPKcEET_NS_9enable_ifIXaasr27__is_cpp17_forward_iteratorISE_EE5valuesr16is_constructibleIS6_NS_15iterator_traitsISE_E9referenceEEE5valueESE_E4typeE
FN:1213,_ZNSt3__16vectorINS_12basic_stringIcNS_11char_traitsIcEENS_9allocatorIcEEEENS4_IS6_EEEC2INS_11__wrap_iterIPKS6_EEEET_NS_9enable_ifIXaasr27__is_cpp17_forward_iteratorISE_EE5valuesr16is_constructibleIS6_NS_15iterator_traitsISE_E9referenceEEE5valueESE_E4typeE
FNDA:0,_ZNSt3__16vectorINS_12basic_stringIcNS_11char_traitsIcEENS_9allocatorIcEEEENS4_IS6_EEEC2INS_11__wrap_iterIPKS6_EEEET_NS_9enable_ifIXaasr27__is_cpp17_forward_iteratorISE_EE5valuesr16is_constructibleIS6_NS_15iterator_traitsISE_E9referenceEEE5valueESE_E4typeE
FN:1252,_ZNSt3__16vectorINS_12basic_stringIcNS_11char_traitsIcEENS_9allocatorIcEEEENS4_IS6_EEEC1ERKS8_
FNDA:2,_ZNSt3__16vectorINS_12basic_stringIcNS_11char_traitsIcEENS_9allocatorIcEEEENS4_IS6_EEEC1ERKS8_
FN:1252,_ZNSt3__16vectorINS_12basic_stringIcNS_11char_traitsIcEENS_9allocatorIcEEEENS4_IS6_EEEC2ERKS8_
FNDA:2,_ZNSt3__16vectorINS_12basic_stringIcNS_11char_traitsIcEENS_9allocatorIcEEEENS4_IS6_EEEC2ERKS8_
FN:1252,_ZNSt3__16vectorIdNS_9allocatorIdEEEC1ERKS3_
FNDA:0,_ZNSt3__16vectorIdNS_9allocatorIdEEEC1ERKS3_
FN:1252,_ZNSt3__16vectorIdNS_9allocatorIdEEEC2ERKS3_
FNDA:0,_ZNSt3__16vectorIdNS_9allocatorIdEEEC2ERKS3_
FN:1252,_ZNSt3__16vectorIN7testing8internal13edit_distance8EditTypeENS_9allocatorIS4_EEEC1ERKS7_
FNDA:0,_ZNSt3__16vectorIN7testing8internal13edit_distance8EditTypeENS_9allocatorIS4_EEEC1ERKS7_
FN:1252,_ZNSt3__16vectorIN7testing8internal13edit_distance8EditTypeENS_9allocatorIS4_EEEC2ERKS7_
FNDA:0,_ZNSt3__16vectorIN7testing8internal13edit_distance8EditTypeENS_9allocatorIS4_EEEC2ERKS7_
FN:1494,_ZNSt3__16vectorIPN7testing8internal30ParameterizedTestSuiteInfoBaseENS_9allocatorIS4_EEE11__make_iterEPS4_
FNDA:4,_ZNSt3__16vectorIPN7testing8internal30ParameterizedTestSuiteInfoBaseENS_9allocatorIS4_EEE11__make_iterEPS4_
FN:1494,_ZNSt3__16vectorIPcNS_9allocatorIS1_EEE11__make_iterEPS1_
FNDA:0,_ZNSt3__16vectorIPcNS_9allocatorIS1_EEE11__make_iterEPS1_
FN:1494,_ZNSt3__16vectorIN7testing8internal13edit_distance8EditTypeENS_9allocatorIS4_EEE11__make_iterEPS4_
FNDA:0,_ZNSt3__16vectorIN7testing8internal13edit_distance8EditTypeENS_9allocatorIS4_EEE11__make_iterEPS4_
FN:1494,_ZNSt3__16vectorIN7testing12TestPropertyENS_9allocatorIS2_EEE11__make_iterEPS2_
FNDA:0,_ZNSt3__16vectorIN7testing12TestPropertyENS_9allocatorIS2_EEE11__make_iterEPS2_
FN:1494,_ZNSt3__16vectorIPN7testing17TestEventListenerENS_9allocatorIS3_EEE11__make_iterEPS3_
FNDA:0,_ZNSt3__16vectorIPN7testing17TestEventListenerENS_9allocatorIS3_EEE11__make_iterEPS3_
FN:1494,_ZNSt3__16vectorIPN7testing9TestSuiteENS_9allocatorIS3_EEE11__make_iterEPS3_
FNDA:16,_ZNSt3__16vectorIPN7testing9TestSuiteENS_9allocatorIS3_EEE11__make_iterEPS3_
FN:1494,_ZNSt3__16vectorIPN7testing11EnvironmentENS_9allocatorIS3_EEE11__make_iterEPS3_
FNDA:0,_ZNSt3__16vectorIPN7testing11EnvironmentENS_9allocatorIS3_EEE11__make_iterEPS3_
FN:1494,_ZNSt3__16vectorINS_12basic_stringIcNS_11char_traitsIcEENS_9allocatorIcEEEENS4_IS6_EEE11__make_iterEPS6_
FNDA:0,_ZNSt3__16vectorINS_12basic_stringIcNS_11char_traitsIcEENS_9allocatorIcEEEENS4_IS6_EEE11__make_iterEPS6_
FN:1506,_ZNKSt3__16vectorIN7testing8internal13edit_distance8EditTypeENS_9allocatorIS4_EEE11__make_iterEPKS4_
FNDA:0,_ZNKSt3__16vectorIN7testing8internal13edit_distance8EditTypeENS_9allocatorIS4_EEE11__make_iterEPKS4_
FN:1506,_ZNKSt3__16vectorINS_12basic_stringIcNS_11char_traitsIcEENS_9allocatorIcEEEENS4_IS6_EEE11__make_iterEPKS6_
FNDA:0,_ZNKSt3__16vectorINS_12basic_stringIcNS_11char_traitsIcEENS_9allocatorIcEEEENS4_IS6_EEE11__make_iterEPKS6_
FN:1506,_ZNKSt3__16vectorIN7testing14TestPartResultENS_9allocatorIS2_EEE11__make_iterEPKS2_
FNDA:0,_ZNKSt3__16vectorIN7testing14TestPartResultENS_9allocatorIS2_EEE11__make_iterEPKS2_
FN:1506,_ZNKSt3__16vectorIPN7testing8TestInfoENS_9allocatorIS3_EEE11__make_iterEPKS3_
FNDA:2,_ZNKSt3__16vectorIPN7testing8TestInfoENS_9allocatorIS3_EEE11__make_iterEPKS3_
FN:1506,_ZNKSt3__16vectorIPN7testing17TestEventListenerENS_9allocatorIS3_EEE11__make_iterEPKS3_
FNDA:2,_ZNKSt3__16vectorIPN7testing17TestEventListenerENS_9allocatorIS3_EEE11__make_iterEPKS3_
FN:1506,_ZNKSt3__16vectorIPN7testing9TestSuiteENS_9allocatorIS3_EEE11__make_iterEPKS3_
FNDA:2,_ZNKSt3__16vectorIPN7testing9TestSuiteENS_9allocatorIS3_EEE11__make_iterEPKS3_
FN:1506,_ZNKSt3__16vectorIPN7testing11EnvironmentENS_9allocatorIS3_EEE11__make_iterEPKS3_
FNDA:2,_ZNKSt3__16vectorIPN7testing11EnvironmentENS_9allocatorIS3_EEE11__make_iterEPKS3_
FN:1518,_ZNSt3__16vectorIN7testing8internal13edit_distance8EditTypeENS_9allocatorIS4_EEE5beginEv
FNDA:0,_ZNSt3__16vectorIN7testing8internal13edit_distance8EditTypeENS_9allocatorIS4_EEE5beginEv
FN:1518,_ZNSt3__16vectorIN7testing12TestPropertyENS_9allocatorIS2_EEE5beginEv
FNDA:0,_ZNSt3__16vectorIN7testing12TestPropertyENS_9allocatorIS2_EEE5beginEv
FN:1518,_ZNSt3__16vectorIPN7testing17TestEventListenerENS_9allocatorIS3_EEE5beginEv
FNDA:0,_ZNSt3__16vectorIPN7testing17TestEventListenerENS_9allocatorIS3_EEE5beginEv
FN:1518,_ZNSt3__16vectorIPN7testing9TestSuiteENS_9allocatorIS3_EEE5beginEv
FNDA:10,_ZNSt3__16vectorIPN7testing9TestSuiteENS_9allocatorIS3_EEE5beginEv
FN:1518,_ZNSt3__16vectorINS_12basic_stringIcNS_11char_traitsIcEENS_9allocatorIcEEEENS4_IS6_EEE5beginEv
FNDA:0,_ZNSt3__16vectorINS_12basic_stringIcNS_11char_traitsIcEENS_9allocatorIcEEEENS4_IS6_EEE5beginEv
FN:1518,_ZNSt3__16vectorIPN7testing8internal30ParameterizedTestSuiteInfoBaseENS_9allocatorIS4_EEE5beginEv
FNDA:2,_ZNSt3__16vectorIPN7testing8internal30ParameterizedTestSuiteInfoBaseENS_9allocatorIS4_EEE5beginEv
FN:1518,_ZNSt3__16vectorIPcNS_9allocatorIS1_EEE5beginEv
FNDA:0,_ZNSt3__16vectorIPcNS_9allocatorIS1_EEE5beginEv
FN:1518,_ZNSt3__16vectorIPN7testing11EnvironmentENS_9allocatorIS3_EEE5beginEv
FNDA:0,_ZNSt3__16vectorIPN7testing11EnvironmentENS_9allocatorIS3_EEE5beginEv
FN:1526,_ZNKSt3__16vectorIN7testing8internal13edit_distance8EditTypeENS_9allocatorIS4_EEE5beginEv
FNDA:0,_ZNKSt3__16vectorIN7testing8internal13edit_distance8EditTypeENS_9allocatorIS4_EEE5beginEv
FN:1526,_ZNKSt3__16vectorINS_12basic_stringIcNS_11char_traitsIcEENS_9allocatorIcEEEENS4_IS6_EEE5beginEv
FNDA:0,_ZNKSt3__16vectorINS_12basic_stringIcNS_11char_traitsIcEENS_9allocatorIcEEEENS4_IS6_EEE5beginEv
FN:1526,_ZNKSt3__16vectorIPN7testing9TestSuiteENS_9allocatorIS3_EEE5beginEv
FNDA:1,_ZNKSt3__16vectorIPN7testing9TestSuiteENS_9allocatorIS3_EEE5beginEv
FN:1526,_ZNKSt3__16vectorIN7testing14TestPartResultENS_9allocatorIS2_EEE5beginEv
FNDA:0,_ZNKSt3__16vectorIN7testing14TestPartResultENS_9allocatorIS2_EEE5beginEv
FN:1526,_ZNKSt3__16vectorIPN7testing8TestInfoENS_9allocatorIS3_EEE5beginEv
FNDA:1,_ZNKSt3__16vectorIPN7testing8TestInfoENS_9allocatorIS3_EEE5beginEv
FN:1526,_ZNKSt3__16vectorIPN7testing17TestEventListenerENS_9allocatorIS3_EEE5beginEv
FNDA:1,_ZNKSt3__16vectorIPN7testing17TestEventListenerENS_9allocatorIS3_EEE5beginEv
FN:1526,_ZNKSt3__16vectorIPN7testing11EnvironmentENS_9allocatorIS3_EEE5beginEv
FNDA:1,_ZNKSt3__16vectorIPN7testing11EnvironmentENS_9allocatorIS3_EEE5beginEv
FN:1534,_ZNSt3__16vectorIN7testing8internal13edit_distance8EditTypeENS_9allocatorIS4_EEE3endEv
FNDA:0,_ZNSt3__16vectorIN7testing8internal13edit_distance8EditTypeENS_9allocatorIS4_EEE3endEv
FN:1534,_ZNSt3__16vectorIN7testing12TestPropertyENS_9allocatorIS2_EEE3endEv
FNDA:0,_ZNSt3__16vectorIN7testing12TestPropertyENS_9allocatorIS2_EEE3endEv
FN:1534,_ZNSt3__16vectorIPN7testing9TestSuiteENS_9allocatorIS3_EEE3endEv
FNDA:6,_ZNSt3__16vectorIPN7testing9TestSuiteENS_9allocatorIS3_EEE3endEv
FN:1534,_ZNSt3__16vectorINS_12basic_stringIcNS_11char_traitsIcEENS_9allocatorIcEEEENS4_IS6_EEE3endEv
FNDA:0,_ZNSt3__16vectorINS_12basic_stringIcNS_11char_traitsIcEENS_9allocatorIcEEEENS4_IS6_EEE3endEv
FN:1534,_ZNSt3__16vectorIPN7testing8internal30ParameterizedTestSuiteInfoBaseENS_9allocatorIS4_EEE3endEv
FNDA:2,_ZNSt3__16vectorIPN7testing8internal30ParameterizedTestSuiteInfoBaseENS_9allocatorIS4_EEE3endEv
FN:1534,_ZNSt3__16vectorIPcNS_9allocatorIS1_EEE3endEv
FNDA:0,_ZNSt3__16vectorIPcNS_9allocatorIS1_EEE3endEv
FN:1534,_ZNSt3__16vectorIPN7testing11EnvironmentENS_9allocatorIS3_EEE3endEv
FNDA:0,_ZNSt3__16vectorIPN7testing11EnvironmentENS_9allocatorIS3_EEE3endEv
FN:1542,_ZNKSt3__16vectorIN7testing8internal13edit_distance8EditTypeENS_9allocatorIS4_EEE3endEv
FNDA:0,_ZNKSt3__16vectorIN7testing8internal13edit_distance8EditTypeENS_9allocatorIS4_EEE3endEv
FN:1542,_ZNKSt3__16vectorINS_12basic_stringIcNS_11char_traitsIcEENS_9allocatorIcEEEENS4_IS6_EEE3endEv
FNDA:0,_ZNKSt3__16vectorINS_12basic_stringIcNS_11char_traitsIcEENS_9allocatorIcEEEENS4_IS6_EEE3endEv
FN:1542,_ZNKSt3__16vectorIPN7testing9TestSuiteENS_9allocatorIS3_EEE3endEv
FNDA:1,_ZNKSt3__16vectorIPN7testing9TestSuiteENS_9allocatorIS3_EEE3endEv
FN:1542,_ZNKSt3__16vectorIN7testing14TestPartResultENS_9allocatorIS2_EEE3endEv
FNDA:0,_ZNKSt3__16vectorIN7testing14TestPartResultENS_9allocatorIS2_EEE3endEv
FN:1542,_ZNKSt3__16vectorIPN7testing8TestInfoENS_9allocatorIS3_EEE3endEv
FNDA:1,_ZNKSt3__16vectorIPN7testing8TestInfoENS_9allocatorIS3_EEE3endEv
FN:1542,_ZNKSt3__16vectorIPN7testing17TestEventListenerENS_9allocatorIS3_EEE3endEv
FNDA:1,_ZNKSt3__16vectorIPN7testing17TestEventListenerENS_9allocatorIS3_EEE3endEv
FN:1542,_ZNKSt3__16vectorIPN7testing11EnvironmentENS_9allocatorIS3_EEE3endEv
FNDA:1,_ZNKSt3__16vectorIPN7testing11EnvironmentENS_9allocatorIS3_EEE3endEv
FN:1550,_ZNSt3__16vectorINS_12basic_stringIcNS_11char_traitsIcEENS_9allocatorIcEEEENS4_IS6_EEEixEm
FNDA:0,_ZNSt3__16vectorINS_12basic_stringIcNS_11char_traitsIcEENS_9allocatorIcEEEENS4_IS6_EEEixEm
FN:1550,_ZNSt3__16vectorINS0_IdNS_9allocatorIdEEEENS1_IS3_EEEixEm
FNDA:0,_ZNSt3__16vectorINS0_IdNS_9allocatorIdEEEENS1_IS3_EEEixEm
FN:1550,_ZNSt3__16vectorIdNS_9allocatorIdEEEixEm
FNDA:0,_ZNSt3__16vectorIdNS_9allocatorIdEEEixEm
FN:1550,_ZNSt3__16vectorINS0_IN7testing8internal13edit_distance8EditTypeENS_9allocatorIS4_EEEENS5_IS7_EEEixEm
FNDA:0,_ZNSt3__16vectorINS0_IN7testing8internal13edit_distance8EditTypeENS_9allocatorIS4_EEEENS5_IS7_EEEixEm
FN:1550,_ZNSt3__16vectorIN7testing8internal13edit_distance8EditTypeENS_9allocatorIS4_EEEixEm
FNDA:0,_ZNSt3__16vectorIN7testing8internal13edit_distance8EditTypeENS_9allocatorIS4_EEEixEm
FN:1550,_ZNSt3__16vectorIPN7testing8TestInfoENS_9allocatorIS3_EEEixEm
FNDA:8,_ZNSt3__16vectorIPN7testing8TestInfoENS_9allocatorIS3_EEEixEm
FN:1550,_ZNSt3__16vectorIiNS_9allocatorIiEEEixEm
FNDA:0,_ZNSt3__16vectorIiNS_9allocatorIiEEEixEm
FN:1550,_ZNSt3__16vectorIPN7testing17TestEventListenerENS_9allocatorIS3_EEEixEm
FNDA:0,_ZNSt3__16vectorIPN7testing17TestEventListenerENS_9allocatorIS3_EEEixEm
FN:1550,_ZNSt3__16vectorIN7testing8internal9TraceInfoENS_9allocatorIS3_EEEixEm
FNDA:0,_ZNSt3__16vectorIN7testing8internal9TraceInfoENS_9allocatorIS3_EEEixEm
FN:1550,_ZNSt3__16vectorIPN7testing9TestSuiteENS_9allocatorIS3_EEEixEm
FNDA:0,_ZNSt3__16vectorIPN7testing9TestSuiteENS_9allocatorIS3_EEEixEm
FN:1550,_ZNSt3__16vectorIPcNS_9allocatorIS1_EEEixEm
FNDA:0,_ZNSt3__16vectorIPcNS_9allocatorIS1_EEEixEm
FN:1559,_ZNKSt3__16vectorImNS_9allocatorImEEEixEm
FNDA:0,_ZNKSt3__16vectorImNS_9allocatorImEEEixEm
FN:1559,_ZNKSt3__16vectorINS_12basic_stringIcNS_11char_traitsIcEENS_9allocatorIcEEEENS4_IS6_EEEixEm
FNDA:0,_ZNKSt3__16vectorINS_12basic_stringIcNS_11char_traitsIcEENS_9allocatorIcEEEENS4_IS6_EEEixEm
FN:1559,_ZNKSt3__16vectorIN7testing8internal13edit_distance8EditTypeENS_9allocatorIS4_EEEixEm
FNDA:0,_ZNKSt3__16vectorIN7testing8internal13edit_distance8EditTypeENS_9allocatorIS4_EEEixEm
FN:1559,_ZNKSt3__16vectorIPN7testing8TestInfoENS_9allocatorIS3_EEEixEm
FNDA:0,_ZNKSt3__16vectorIPN7testing8TestInfoENS_9allocatorIS3_EEEixEm
FN:1559,_ZNKSt3__16vectorIPN7testing9TestSuiteENS_9allocatorIS3_EEEixEm
FNDA:0,_ZNKSt3__16vectorIPN7testing9TestSuiteENS_9allocatorIS3_EEEixEm
FN:1559,_ZNKSt3__16vectorIN7testing14TestPartResultENS_9allocatorIS2_EEEixEm
FNDA:0,_ZNKSt3__16vectorIN7testing14TestPartResultENS_9allocatorIS2_EEEixEm
FN:1559,_ZNKSt3__16vectorIiNS_9allocatorIiEEEixEm
FNDA:0,_ZNKSt3__16vectorIiNS_9allocatorIiEEEixEm
FN:1576,_ZNKSt3__16vectorIN7testing14TestPartResultENS_9allocatorIS2_EEE2atEm
FNDA:0,_ZNKSt3__16vectorIN7testing14TestPartResultENS_9allocatorIS2_EEE2atEm
FN:1576,_ZNKSt3__16vectorIN7testing12TestPropertyENS_9allocatorIS2_EEE2atEm
FNDA:0,_ZNKSt3__16vectorIN7testing12TestPropertyENS_9allocatorIS2_EEE2atEm
FN:1621,_ZNSt3__16vectorIPcNS_9allocatorIS1_EEE21__push_back_slow_pathIS1_EEvOT_
FNDA:0,_ZNSt3__16vectorIPcNS_9allocatorIS1_EEE21__push_back_slow_pathIS1_EEvOT_
FN:1621,_ZNSt3__16vectorINS_12basic_stringIcNS_11char_traitsIcEENS_9allocatorIcEEEENS4_IS6_EEE21__push_back_slow_pathIS6_EEvOT_
FNDA:2,_ZNSt3__16vectorINS_12basic_stringIcNS_11char_traitsIcEENS_9allocatorIcEEEENS4_IS6_EEE21__push_back_slow_pathIS6_EEvOT_
FN:1621,_ZNSt3__16vectorIN7testing8internal13edit_distance8EditTypeENS_9allocatorIS4_EEE21__push_back_slow_pathIRKS4_EEvOT_
FNDA:0,_ZNSt3__16vectorIN7testing8internal13edit_distance8EditTypeENS_9allocatorIS4_EEE21__push_back_slow_pathIRKS4_EEvOT_
FN:1621,_ZNSt3__16vectorImNS_9allocatorImEEE21__push_back_slow_pathImEEvOT_
FNDA:0,_ZNSt3__16vectorImNS_9allocatorImEEE21__push_back_slow_pathImEEvOT_
FN:1621,_ZNSt3__16vectorIN7testing14TestPartResultENS_9allocatorIS2_EEE21__push_back_slow_pathIRKS2_EEvOT_
FNDA:0,_ZNSt3__16vectorIN7testing14TestPartResultENS_9allocatorIS2_EEE21__push_back_slow_pathIRKS2_EEvOT_
FN:1621,_ZNSt3__16vectorIN7testing12TestPropertyENS_9allocatorIS2_EEE21__push_back_slow_pathIRKS2_EEvOT_
FNDA:0,_ZNSt3__16vectorIN7testing12TestPropertyENS_9allocatorIS2_EEE21__push_back_slow_pathIRKS2_EEvOT_
FN:1621,_ZNSt3__16vectorIPN7testing8TestInfoENS_9allocatorIS3_EEE21__push_back_slow_pathIRKS3_EEvOT_
FNDA:3,_ZNSt3__16vectorIPN7testing8TestInfoENS_9allocatorIS3_EEE21__push_back_slow_pathIRKS3_EEvOT_
FN:1621,_ZNSt3__16vectorIiNS_9allocatorIiEEE21__push_back_slow_pathIiEEvOT_
FNDA:4,_ZNSt3__16vectorIiNS_9allocatorIiEEE21__push_back_slow_pathIiEEvOT_
FN:1621,_ZNSt3__16vectorIPN7testing17TestEventListenerENS_9allocatorIS3_EEE21__push_back_slow_pathIRKS3_EEvOT_
FNDA:1,_ZNSt3__16vectorIPN7testing17TestEventListenerENS_9allocatorIS3_EEE21__push_back_slow_pathIRKS3_EEvOT_
FN:1621,_ZNSt3__16vectorIPN7testing11EnvironmentENS_9allocatorIS3_EEE21__push_back_slow_pathIRKS3_EEvOT_
FNDA:0,_ZNSt3__16vectorIPN7testing11EnvironmentENS_9allocatorIS3_EEE21__push_back_slow_pathIRKS3_EEvOT_
FN:1621,_ZNSt3__16vectorIN7testing8internal9TraceInfoENS_9allocatorIS3_EEE21__push_back_slow_pathIRKS3_EEvOT_
FNDA:0,_ZNSt3__16vectorIN7testing8internal9TraceInfoENS_9allocatorIS3_EEE21__push_back_slow_pathIRKS3_EEvOT_
FN:1621,_ZNSt3__16vectorIPN7testing9TestSuiteENS_9allocatorIS3_EEE21__push_back_slow_pathIRKS3_EEvOT_
FNDA:1,_ZNSt3__16vectorIPN7testing9TestSuiteENS_9allocatorIS3_EEE21__push_back_slow_pathIRKS3_EEvOT_
FN:1637,_ZNSt3__16vectorIN7testing8internal13edit_distance8EditTypeENS_9allocatorIS4_EEE9push_backERKS4_
FNDA:0,_ZNSt3__16vectorIN7testing8internal13edit_distance8EditTypeENS_9allocatorIS4_EEE9push_backERKS4_
FN:1637,_ZNSt3__16vectorIN7testing14TestPartResultENS_9allocatorIS2_EEE9push_backERKS2_
FNDA:0,_ZNSt3__16vectorIN7testing14TestPartResultENS_9allocatorIS2_EEE9push_backERKS2_
FN:1637,_ZNSt3__16vectorIN7testing12TestPropertyENS_9allocatorIS2_EEE9push_backERKS2_
FNDA:0,_ZNSt3__16vectorIN7testing12TestPropertyENS_9allocatorIS2_EEE9push_backERKS2_
FN:1637,_ZNSt3__16vectorIPN7testing8TestInfoENS_9allocatorIS3_EEE9push_backERKS3_
FNDA:4,_ZNSt3__16vectorIPN7testing8TestInfoENS_9allocatorIS3_EEE9push_backERKS3_
FN:1637,_ZNSt3__16vectorIPN7testing17TestEventListenerENS_9allocatorIS3_EEE9push_backERKS3_
FNDA:1,_ZNSt3__16vectorIPN7testing17TestEventListenerENS_9allocatorIS3_EEE9push_backERKS3_
FN:1637,_ZNSt3__16vectorIPN7testing11EnvironmentENS_9allocatorIS3_EEE9push_backERKS3_
FNDA:0,_ZNSt3__16vectorIPN7testing11EnvironmentENS_9allocatorIS3_EEE9push_backERKS3_
FN:1637,_ZNSt3__16vectorIN7testing8internal9TraceInfoENS_9allocatorIS3_EEE9push_backERKS3_
FNDA:0,_ZNSt3__16vectorIN7testing8internal9TraceInfoENS_9allocatorIS3_EEE9push_backERKS3_
FN:1637,_ZNSt3__16vectorIPN7testing9TestSuiteENS_9allocatorIS3_EEE9push_backERKS3_
FNDA:1,_ZNSt3__16vectorIPN7testing9TestSuiteENS_9allocatorIS3_EEE9push_backERKS3_
FN:1652,_ZNSt3__16vectorINS_12basic_stringIcNS_11char_traitsIcEENS_9allocatorIcEEEENS4_IS6_EEE9push_backEOS6_
FNDA:2,_ZNSt3__16vectorINS_12basic_stringIcNS_11char_traitsIcEENS_9allocatorIcEEEENS4_IS6_EEE9push_backEOS6_
FN:1652,_ZNSt3__16vectorImNS_9allocatorImEEE9push_backEOm
FNDA:0,_ZNSt3__16vectorImNS_9allocatorImEEE9push_backEOm
FN:1652,_ZNSt3__16vectorIiNS_9allocatorIiEEE9push_backEOi
FNDA:5,_ZNSt3__16vectorIiNS_9allocatorIiEEE9push_backEOi
FN:1652,_ZNSt3__16vectorIPcNS_9allocatorIS1_EEE9push_backEOS1_
FNDA:0,_ZNSt3__16vectorIPcNS_9allocatorIS1_EEE9push_backEOS1_
FN:1701,_ZNSt3__16vectorIN7testing8internal9TraceInfoENS_9allocatorIS3_EEE8pop_backEv
FNDA:0,_ZNSt3__16vectorIN7testing8internal9TraceInfoENS_9allocatorIS3_EEE8pop_backEv
FN:1710,_ZNSt3__16vectorIPN7testing17TestEventListenerENS_9allocatorIS3_EEE5eraseENS_11__wrap_iterIPKS3_EE
FNDA:0,_ZNSt3__16vectorIPN7testing17TestEventListenerENS_9allocatorIS3_EEE5eraseENS_11__wrap_iterIPKS3_EE
FN:1751,_ZNSt3__16vectorIPcNS_9allocatorIS1_EEE12__move_rangeEPS1_S5_S5_
FNDA:0,_ZNSt3__16vectorIPcNS_9allocatorIS1_EEE12__move_rangeEPS1_S5_S5_
FN:1751,_ZNSt3__16vectorIPN7testing9TestSuiteENS_9allocatorIS3_EEE12__move_rangeEPS3_S7_S7_
FNDA:0,_ZNSt3__16vectorIPN7testing9TestSuiteENS_9allocatorIS3_EEE12__move_rangeEPS3_S7_S7_
FN:1770,_ZNSt3__16vectorIPN7testing9TestSuiteENS_9allocatorIS3_EEE6insertENS_11__wrap_iterIPKS3_EERS8_
FNDA:0,_ZNSt3__16vectorIPN7testing9TestSuiteENS_9allocatorIS3_EEE6insertENS_11__wrap_iterIPKS3_EERS8_
FN:1807,_ZNSt3__16vectorIPcNS_9allocatorIS1_EEE6insertENS_11__wrap_iterIPKS1_EEOS1_
FNDA:0,_ZNSt3__16vectorIPcNS_9allocatorIS1_EEE6insertENS_11__wrap_iterIPKS1_EEOS1_
FN:2045,_ZNSt3__16vectorINS_12basic_stringIcNS_11char_traitsIcEENS_9allocatorIcEEEENS4_IS6_EEE4swapERS8_
FNDA:0,_ZNSt3__16vectorINS_12basic_stringIcNS_11char_traitsIcEENS_9allocatorIcEEEENS4_IS6_EEE4swapERS8_
FN:2125,_ZNSt3__16vectorIPcNS_9allocatorIS1_EEE26__invalidate_all_iteratorsEv
FNDA:0,_ZNSt3__16vectorIPcNS_9allocatorIS1_EEE26__invalidate_all_iteratorsEv
FN:2125,_ZNSt3__16vectorINS_12basic_stringIcNS_11char_traitsIcEENS_9allocatorIcEEEENS4_IS6_EEE26__invalidate_all_iteratorsEv
FNDA:3,_ZNSt3__16vectorINS_12basic_stringIcNS_11char_traitsIcEENS_9allocatorIcEEEENS4_IS6_EEE26__invalidate_all_iteratorsEv
FN:2125,_ZNSt3__16vectorIN7testing8internal13edit_distance8EditTypeENS_9allocatorIS4_EEE26__invalidate_all_iteratorsEv
FNDA:0,_ZNSt3__16vectorIN7testing8internal13edit_distance8EditTypeENS_9allocatorIS4_EEE26__invalidate_all_iteratorsEv
FN:2125,_ZNSt3__16vectorImNS_9allocatorImEEE26__invalidate_all_iteratorsEv
FNDA:0,_ZNSt3__16vectorImNS_9allocatorImEEE26__invalidate_all_iteratorsEv
FN:2125,_ZNSt3__16vectorIN7testing14TestPartResultENS_9allocatorIS2_EEE26__invalidate_all_iteratorsEv
FNDA:0,_ZNSt3__16vectorIN7testing14TestPartResultENS_9allocatorIS2_EEE26__invalidate_all_iteratorsEv
FN:2125,_ZNSt3__16vectorIN7testing12TestPropertyENS_9allocatorIS2_EEE26__invalidate_all_iteratorsEv
FNDA:0,_ZNSt3__16vectorIN7testing12TestPropertyENS_9allocatorIS2_EEE26__invalidate_all_iteratorsEv
FN:2125,_ZNSt3__16vectorIPN7testing8TestInfoENS_9allocatorIS3_EEE26__invalidate_all_iteratorsEv
FNDA:3,_ZNSt3__16vectorIPN7testing8TestInfoENS_9allocatorIS3_EEE26__invalidate_all_iteratorsEv
FN:2125,_ZNSt3__16vectorIiNS_9allocatorIiEEE26__invalidate_all_iteratorsEv
FNDA:4,_ZNSt3__16vectorIiNS_9allocatorIiEEE26__invalidate_all_iteratorsEv
FN:2125,_ZNSt3__16vectorIPN7testing17TestEventListenerENS_9allocatorIS3_EEE26__invalidate_all_iteratorsEv
FNDA:1,_ZNSt3__16vectorIPN7testing17TestEventListenerENS_9allocatorIS3_EEE26__invalidate_all_iteratorsEv
FN:2125,_ZNSt3__16vectorIPN7testing11EnvironmentENS_9allocatorIS3_EEE26__invalidate_all_iteratorsEv
FNDA:0,_ZNSt3__16vectorIPN7testing11EnvironmentENS_9allocatorIS3_EEE26__invalidate_all_iteratorsEv
FN:2125,_ZNSt3__16vectorIN7testing8internal9TraceInfoENS_9allocatorIS3_EEE26__invalidate_all_iteratorsEv
FNDA:0,_ZNSt3__16vectorIN7testing8internal9TraceInfoENS_9allocatorIS3_EEE26__invalidate_all_iteratorsEv
FN:2125,_ZNSt3__16vectorIPN7testing9TestSuiteENS_9allocatorIS3_EEE26__invalidate_all_iteratorsEv
FNDA:1,_ZNSt3__16vectorIPN7testing9TestSuiteENS_9allocatorIS3_EEE26__invalidate_all_iteratorsEv
FN:2136,_ZNSt3__16vectorIPN7testing17TestEventListenerENS_9allocatorIS3_EEE27__invalidate_iterators_pastEPS3_
FNDA:0,_ZNSt3__16vectorIPN7testing17TestEventListenerENS_9allocatorIS3_EEE27__invalidate_iterators_pastEPS3_
FN:2136,_ZNSt3__16vectorIN7testing8internal9TraceInfoENS_9allocatorIS3_EEE27__invalidate_iterators_pastEPS3_
FNDA:0,_ZNSt3__16vectorIN7testing8internal9TraceInfoENS_9allocatorIS3_EEE27__invalidate_iterators_pastEPS3_
DA:305,22
DA:349,48
DA:350,48
DA:352,14
DA:353,14
DA:355,25
DA:356,25
DA:358,109
DA:359,109
DA:362,20
DA:366,2
DA:371,8
DA:373,109
DA:374,109
DA:424,8
DA:426,8
DA:427,23
DA:428,15
DA:429,8
DA:430,8
DA:434,20
DA:436,20
DA:437,20
DA:438,20
DA:439,20
DA:440,20
DA:454,2
DA:455,2
DA:456,2
DA:457,4
DA:461,22
DA:463,22
DA:465,7
DA:466,7
DA:467,7
DA:468,22
DA:497,60
DA:498,40
DA:502,40
DA:515,0
DA:519,0
DA:537,0
DA:551,44
DA:552,22
DA:553,22
DA:557,44
DA:631,4
DA:632,4
DA:637,8
DA:638,8
DA:644,0
DA:645,0
DA:657,88
DA:658,88
DA:660,102
DA:661,102
DA:699,184
DA:700,184
DA:771,1
DA:773,1
DA:774,1
DA:775,1
DA:776,1
DA:777,1
DA:831,0
DA:833,0
DA:834,0
DA:835,0
DA:836,0
DA:837,0
DA:868,46
DA:869,46
DA:872,12
DA:873,24
DA:874,12
DA:875,12
DA:878,33
DA:879,66
DA:880,33
DA:881,33
DA:891,1
DA:893,2
DA:894,1
DA:895,1
DA:898,6
DA:899,6
DA:903,6
DA:904,6
DA:905,3
DA:911,6
DA:924,2
DA:925,2
DA:926,4
DA:927,2
DA:928,2
DA:929,2
DA:950,11
DA:953,11
DA:954,11
DA:955,11
DA:956,11
DA:957,11
DA:958,11
DA:959,11
DA:960,11
DA:961,11
DA:962,11
DA:966,0
DA:968,0
DA:969,0
DA:970,0
DA:971,0
DA:972,0
DA:973,0
DA:974,0
DA:975,0
DA:976,0
DA:977,0
DA:978,0
DA:979,0
DA:980,0
DA:992,1
DA:994,1
DA:995,0
DA:996,1
DA:997,1
DA:998,1
DA:999,1
DA:1015,12
DA:1017,24
DA:1018,12
DA:1025,11
DA:1027,11
DA:1028,11
DA:1029,0
DA:1030,11
DA:1031,11
DA:1032,0
DA:1033,11
DA:1034,11
DA:1043,0
DA:1045,0
DA:1046,0
DA:1047,0
DA:1048,0
DA:1049,0
DA:1050,0
DA:1061,0
DA:1063,0
DA:1064,0
DA:1065,0
DA:1066,0
DA:1067,0
DA:1068,0
DA:1077,1
DA:1079,1
DA:1080,1
DA:1081,1
DA:1122,0
DA:1123,0
DA:1127,0
DA:1129,0
DA:1130,0
DA:1131,0
DA:1132,0
DA:1151,0
DA:1152,0
DA:1156,0
DA:1158,0
DA:1159,0
DA:1160,0
DA:1161,0
DA:1213,0
DA:1219,0
DA:1223,0
DA:1224,0
DA:1226,0
DA:1227,0
DA:1228,0
DA:1229,0
DA:1252,4
DA:1253,2
DA:1254,4
DA:1258,2
DA:1259,2
DA:1261,1
DA:1262,1
DA:1263,1
DA:1264,4
DA:1494,20
DA:1499,20
DA:1506,8
DA:1511,8
DA:1518,12
DA:1520,12
DA:1526,4
DA:1528,4
DA:1534,8
DA:1536,8
DA:1542,4
DA:1544,4
DA:1550,8
DA:1553,8
DA:1559,0
DA:1562,0
DA:1576,0
DA:1578,0
DA:1579,0
DA:1580,0
DA:1621,11
DA:1626,11
DA:1627,11
DA:1629,11
DA:1630,11
DA:1631,11
DA:1632,11
DA:1637,6
DA:1639,6
DA:1641,1
DA:1642,1
DA:1644,5
DA:1645,6
DA:1652,7
DA:1654,7
DA:1656,1
DA:1657,1
DA:1659,6
DA:1660,7
DA:1701,0
DA:1704,0
DA:1705,0
DA:1710,0
DA:1719,0
DA:1720,0
DA:1721,0
DA:1722,0
DA:1723,0
DA:1724,0
DA:1751,0
DA:1753,0
DA:1754,0
DA:1756,0
DA:1757,0
DA:1758,0
DA:1759,0
DA:1760,0
DA:1761,0
DA:1762,0
DA:1763,0
DA:1764,0
DA:1765,0
DA:1766,0
DA:1770,0
DA:1777,0
DA:1778,0
DA:1780,0
DA:1782,0
DA:1783,0
DA:1786,0
DA:1787,0
DA:1788,0
DA:1789,0
DA:1790,0
DA:1792,0
DA:1795,0
DA:1796,0
DA:1797,0
DA:1798,0
DA:1799,0
DA:1800,0
DA:1801,0
DA:1807,0
DA:1814,0
DA:1815,0
DA:1817,0
DA:1819,0
DA:1820,0
DA:1823,0
DA:1824,0
DA:1826,0
DA:1829,0
DA:1830,0
DA:1831,0
DA:1832,0
DA:1833,0
DA:1834,0
DA:1835,0
DA:2045,0
DA:2057,0
DA:2058,0
DA:2059,0
DA:2060,0
DA:2065,0
DA:2125,12
DA:2130,12
DA:2136,0
DA:2152,0
FNF:568
FNH:220
LF:297
LH:160
end_of_record
SF:/Library/Developer/CommandLineTools/SDKs/MacOSX11.3.sdk/usr/include/c++/v1/chrono
FN:902,_ZNKSt3__16chrono15__duration_castINS0_8durationIxNS_5ratioILl1ELl1000000EEEEENS2_IxNS3_ILl1ELl1000EEEEES6_Lb1ELb0EEclERKS5_
FNDA:0,_ZNKSt3__16chrono15__duration_castINS0_8durationIxNS_5ratioILl1ELl1000000EEEEENS2_IxNS3_ILl1ELl1000EEEEES6_Lb1ELb0EEclERKS5_
FN:902,_ZNKSt3__16chrono15__duration_castINS0_8durationIxNS_5ratioILl1ELl1000000000EEEEENS2_IxNS3_ILl1ELl1000EEEEENS3_ILl1ELl1000000EEELb1ELb0EEclERKS5_
FNDA:0,_ZNKSt3__16chrono15__duration_castINS0_8durationIxNS_5ratioILl1ELl1000000000EEEEENS2_IxNS3_ILl1ELl1000EEEEENS3_ILl1ELl1000000EEELb1ELb0EEclERKS5_
FN:943,_ZNSt3__16chronoL13duration_castINS0_8durationIxNS_5ratioILl1ELl1000EEEEExNS3_ILl1ELl1000000EEEEENS_9enable_ifIXsr13__is_durationIT_EE5valueES8_E4typeERKNS2_IT0_T1_EE
FNDA:0,_ZNSt3__16chronoL13duration_castINS0_8durationIxNS_5ratioILl1ELl1000EEEEExNS3_ILl1ELl1000000EEEEENS_9enable_ifIXsr13__is_durationIT_EE5valueES8_E4typeERKNS2_IT0_T1_EE
FN:943,_ZNSt3__16chronoL13duration_castINS0_8durationIxNS_5ratioILl1ELl1000EEEEExNS3_ILl1ELl1000000000EEEEENS_9enable_ifIXsr13__is_durationIT_EE5valueES8_E4typeERKNS2_IT0_T1_EE
FNDA:0,_ZNSt3__16chronoL13duration_castINS0_8durationIxNS_5ratioILl1ELl1000EEEEExNS3_ILl1ELl1000000000EEEEENS_9enable_ifIXsr13__is_durationIT_EE5valueES8_E4typeERKNS2_IT0_T1_EE
FN:1073,_ZNSt3__16chrono8durationIxNS_5ratioILl1ELl1000EEEEC1IxEERKT_PNS_9enable_ifIXaasr14is_convertibleIS6_xEE5valueooL_ZNS_17integral_constantIbLb0EE5valueEEntsr23treat_as_floating_pointIS6_EE5valueEvE4typeE
FNDA:0,_ZNSt3__16chrono8durationIxNS_5ratioILl1ELl1000EEEEC1IxEERKT_PNS_9enable_ifIXaasr14is_convertibleIS6_xEE5valueooL_ZNS_17integral_constantIbLb0EE5valueEEntsr23treat_as_floating_pointIS6_EE5valueEvE4typeE
FN:1073,_ZNSt3__16chrono8durationIxNS_5ratioILl1ELl1000EEEEC2IxEERKT_PNS_9enable_ifIXaasr14is_convertibleIS6_xEE5valueooL_ZNS_17integral_constantIbLb0EE5valueEEntsr23treat_as_floating_pointIS6_EE5valueEvE4typeE
FNDA:0,_ZNSt3__16chrono8durationIxNS_5ratioILl1ELl1000EEEEC2IxEERKT_PNS_9enable_ifIXaasr14is_convertibleIS6_xEE5valueooL_ZNS_17integral_constantIbLb0EE5valueEEntsr23treat_as_floating_pointIS6_EE5valueEvE4typeE
FN:1073,_ZNSt3__16chrono8durationIxNS_5ratioILl1ELl1000000EEEEC1IxEERKT_PNS_9enable_ifIXaasr14is_convertibleIS6_xEE5valueooL_ZNS_17integral_constantIbLb0EE5valueEEntsr23treat_as_floating_pointIS6_EE5valueEvE4typeE
FNDA:0,_ZNSt3__16chrono8durationIxNS_5ratioILl1ELl1000000EEEEC1IxEERKT_PNS_9enable_ifIXaasr14is_convertibleIS6_xEE5valueooL_ZNS_17integral_constantIbLb0EE5valueEEntsr23treat_as_floating_pointIS6_EE5valueEvE4typeE
FN:1073,_ZNSt3__16chrono8durationIxNS_5ratioILl1ELl1000000EEEEC2IxEERKT_PNS_9enable_ifIXaasr14is_convertibleIS6_xEE5valueooL_ZNS_17integral_constantIbLb0EE5valueEEntsr23treat_as_floating_pointIS6_EE5valueEvE4typeE
FNDA:0,_ZNSt3__16chrono8durationIxNS_5ratioILl1ELl1000000EEEEC2IxEERKT_PNS_9enable_ifIXaasr14is_convertibleIS6_xEE5valueooL_ZNS_17integral_constantIbLb0EE5valueEEntsr23treat_as_floating_pointIS6_EE5valueEvE4typeE
FN:1073,_ZNSt3__16chrono8durationIxNS_5ratioILl1ELl1000000000EEEEC1IxEERKT_PNS_9enable_ifIXaasr14is_convertibleIS6_xEE5valueooL_ZNS_17integral_constantIbLb0EE5valueEEntsr23treat_as_floating_pointIS6_EE5valueEvE4typeE
FNDA:0,_ZNSt3__16chrono8durationIxNS_5ratioILl1ELl1000000000EEEEC1IxEERKT_PNS_9enable_ifIXaasr14is_convertibleIS6_xEE5valueooL_ZNS_17integral_constantIbLb0EE5valueEEntsr23treat_as_floating_pointIS6_EE5valueEvE4typeE
FN:1073,_ZNSt3__16chrono8durationIxNS_5ratioILl1ELl1000000000EEEEC2IxEERKT_PNS_9enable_ifIXaasr14is_convertibleIS6_xEE5valueooL_ZNS_17integral_constantIbLb0EE5valueEEntsr23treat_as_floating_pointIS6_EE5valueEvE4typeE
FNDA:0,_ZNSt3__16chrono8durationIxNS_5ratioILl1ELl1000000000EEEEC2IxEERKT_PNS_9enable_ifIXaasr14is_convertibleIS6_xEE5valueooL_ZNS_17integral_constantIbLb0EE5valueEEntsr23treat_as_floating_pointIS6_EE5valueEvE4typeE
FN:1097,_ZNKSt3__16chrono8durationIxNS_5ratioILl1ELl1000EEEE5countEv
FNDA:0,_ZNKSt3__16chrono8durationIxNS_5ratioILl1ELl1000EEEE5countEv
FN:1097,_ZNKSt3__16chrono8durationIxNS_5ratioILl1ELl1000000EEEE5countEv
FNDA:0,_ZNKSt3__16chrono8durationIxNS_5ratioILl1ELl1000000EEEE5countEv
FN:1097,_ZNKSt3__16chrono8durationIxNS_5ratioILl1ELl1000000000EEEE5countEv
FNDA:0,_ZNKSt3__16chrono8durationIxNS_5ratioILl1ELl1000000000EEEE5countEv
FN:1257,_ZNSt3__16chronomiIxNS_5ratioILl1ELl1000000EEExS3_EENS_11common_typeIJNS0_8durationIT_T0_EENS5_IT1_T2_EEEE4typeERKS8_RKSB_
FNDA:0,_ZNSt3__16chronomiIxNS_5ratioILl1ELl1000000EEExS3_EENS_11common_typeIJNS0_8durationIT_T0_EENS5_IT1_T2_EEEE4typeERKS8_RKSB_
FN:1257,_ZNSt3__16chronomiIxNS_5ratioILl1ELl1000000000EEExS3_EENS_11common_typeIJNS0_8durationIT_T0_EENS5_IT1_T2_EEEE4typeERKS8_RKSB_
FNDA:0,_ZNSt3__16chronomiIxNS_5ratioILl1ELl1000000000EEExS3_EENS_11common_typeIJNS0_8durationIT_T0_EENS5_IT1_T2_EEEE4typeERKS8_RKSB_
FN:1383,_ZNKSt3__16chrono10time_pointINS0_12system_clockENS0_8durationIxNS_5ratioILl1ELl1000000EEEEEE16time_since_epochEv
FNDA:0,_ZNKSt3__16chrono10time_pointINS0_12system_clockENS0_8durationIxNS_5ratioILl1ELl1000000EEEEEE16time_since_epochEv
FN:1383,_ZNKSt3__16chrono10time_pointINS0_12steady_clockENS0_8durationIxNS_5ratioILl1ELl1000000000EEEEEE16time_since_epochEv
FNDA:0,_ZNKSt3__16chrono10time_pointINS0_12steady_clockENS0_8durationIxNS_5ratioILl1ELl1000000000EEEEEE16time_since_epochEv
FN:1562,_ZNSt3__16chronomiINS0_12system_clockENS0_8durationIxNS_5ratioILl1ELl1000000EEEEES6_EENS_11common_typeIJT0_T1_EE4typeERKNS0_10time_pointIT_S8_EERKNSC_ISD_S9_EE
FNDA:0,_ZNSt3__16chronomiINS0_12system_clockENS0_8durationIxNS_5ratioILl1ELl1000000EEEEES6_EENS_11common_typeIJT0_T1_EE4typeERKNS0_10time_pointIT_S8_EERKNSC_ISD_S9_EE
FN:1562,_ZNSt3__16chronomiINS0_12steady_clockENS0_8durationIxNS_5ratioILl1ELl1000000000EEEEES6_EENS_11common_typeIJT0_T1_EE4typeERKNS0_10time_pointIT_S8_EERKNSC_ISD_S9_EE
FNDA:0,_ZNSt3__16chronomiINS0_12steady_clockENS0_8durationIxNS_5ratioILl1ELl1000000000EEEEES6_EENS_11common_typeIJT0_T1_EE4typeERKNS0_10time_pointIT_S8_EERKNSC_ISD_S9_EE
DA:902,0
DA:905,0
DA:906,0
DA:943,0
DA:945,0
DA:1073,0
DA:1080,0
DA:1097,0
DA:1257,0
DA:1260,0
DA:1383,0
DA:1562,0
DA:1564,0
FNF:19
FNH:0
LF:13
LH:0
end_of_record
SF:/Library/Developer/CommandLineTools/SDKs/MacOSX11.3.sdk/usr/include/c++/v1/math.h
FN:509,_ZL14__libcpp_isnanIdEbT_
FNDA:0,_ZL14__libcpp_isnanIdEbT_
FN:541,_ZL5isnanUa9enable_ifIXLb1EEEd
FNDA:0,_ZL5isnanUa9enable_ifIXLb1EEEd
DA:509,0
DA:512,0
DA:541,0
FNF:2
FNH:0
LF:3
LH:0
end_of_record
SF:/Library/Developer/CommandLineTools/SDKs/MacOSX11.3.sdk/usr/include/c++/v1/__tree
FN:79,_ZNSt3__1L20__tree_is_left_childIPNS_16__tree_node_baseIPvEEEEbT_
FNDA:0,_ZNSt3__1L20__tree_is_left_childIPNS_16__tree_node_baseIPvEEEEbT_
FN:145,_ZNSt3__1L10__tree_minIPNS_16__tree_node_baseIPvEEEET_S5_
FNDA:0,_ZNSt3__1L10__tree_minIPNS_16__tree_node_baseIPvEEEET_S5_
FN:180,_ZNSt3__1L16__tree_next_iterIPNS_15__tree_end_nodeIPNS_16__tree_node_baseIPvEEEES5_EET_T0_
FNDA:0,_ZNSt3__1L16__tree_next_iterIPNS_15__tree_end_nodeIPNS_16__tree_node_baseIPvEEEES5_EET_T0_
FN:233,_ZNSt3__118__tree_left_rotateIPNS_16__tree_node_baseIPvEEEEvT_
FNDA:0,_ZNSt3__118__tree_left_rotateIPNS_16__tree_node_baseIPvEEEEvT_
FN:253,_ZNSt3__119__tree_right_rotateIPNS_16__tree_node_baseIPvEEEEvT_
FNDA:0,_ZNSt3__119__tree_right_rotateIPNS_16__tree_node_baseIPvEEEEvT_
FN:278,_ZNSt3__127__tree_balance_after_insertIPNS_16__tree_node_baseIPvEEEEvT_S5_
FNDA:0,_ZNSt3__127__tree_balance_after_insertIPNS_16__tree_node_baseIPvEEEEvT_S5_
FN:558,_ZNSt3__122__tree_key_value_typesINS_12basic_stringIcNS_11char_traitsIcEENS_9allocatorIcEEEEE9__get_keyERKS6_
FNDA:0,_ZNSt3__122__tree_key_value_typesINS_12basic_stringIcNS_11char_traitsIcEENS_9allocatorIcEEEEE9__get_keyERKS6_
FN:566,_ZNSt3__122__tree_key_value_typesINS_12basic_stringIcNS_11char_traitsIcEENS_9allocatorIcEEEEE9__get_ptrERS6_
FNDA:0,_ZNSt3__122__tree_key_value_typesINS_12basic_stringIcNS_11char_traitsIcEENS_9allocatorIcEEEEE9__get_ptrERS6_
FN:615,_ZNSt3__122__tree_key_value_typesINS_12__value_typeINS_12basic_stringIcNS_11char_traitsIcEENS_9allocatorIcEEEEmEEE9__get_ptrERS8_
FNDA:0,_ZNSt3__122__tree_key_value_typesINS_12__value_typeINS_12basic_stringIcNS_11char_traitsIcEENS_9allocatorIcEEEEmEEE9__get_ptrERS8_
FN:615,_ZNSt3__122__tree_key_value_typesINS_12__value_typeINS_12basic_stringIcNS_11char_traitsIcEENS_9allocatorIcEEEEN7testing8internal34TypeParameterizedTestSuiteRegistry30TypeParameterizedTestSuiteInfoEEEE9__get_ptrERSC_
FNDA:0,_ZNSt3__122__tree_key_value_typesINS_12__value_typeINS_12basic_stringIcNS_11char_traitsIcEENS_9allocatorIcEEEEN7testing8internal34TypeParameterizedTestSuiteRegistry30TypeParameterizedTestSuiteInfoEEEE9__get_ptrERSC_
FN:719,_ZNSt3__115__tree_end_nodeIPNS_16__tree_node_baseIPvEEEC1Ev
FNDA:2,_ZNSt3__115__tree_end_nodeIPNS_16__tree_node_baseIPvEEEC1Ev
FN:719,_ZNSt3__115__tree_end_nodeIPNS_16__tree_node_baseIPvEEEC2Ev
FNDA:2,_ZNSt3__115__tree_end_nodeIPNS_16__tree_node_baseIPvEEEC2Ev
FN:737,_ZNKSt3__116__tree_node_baseIPvE15__parent_unsafeEv
FNDA:0,_ZNKSt3__116__tree_node_baseIPvE15__parent_unsafeEv
FN:740,_ZNSt3__116__tree_node_baseIPvE12__set_parentEPS2_
FNDA:0,_ZNSt3__116__tree_node_baseIPvE12__set_parentEPS2_
FN:787,_ZNSt3__122__tree_node_destructorINS_9allocatorINS_11__tree_nodeINS_12__value_typeINS_12basic_stringIcNS_11char_traitsIcEENS1_IcEEEEmEEPvEEEEEC1ERSC_b
FNDA:0,_ZNSt3__122__tree_node_destructorINS_9allocatorINS_11__tree_nodeINS_12__value_typeINS_12basic_stringIcNS_11char_traitsIcEENS1_IcEEEEmEEPvEEEEEC1ERSC_b
FN:787,_ZNSt3__122__tree_node_destructorINS_9allocatorINS_11__tree_nodeINS_12__value_typeINS_12basic_stringIcNS_11char_traitsIcEENS1_IcEEEEmEEPvEEEEEC2ERSC_b
FNDA:0,_ZNSt3__122__tree_node_destructorINS_9allocatorINS_11__tree_nodeINS_12__value_typeINS_12basic_stringIcNS_11char_traitsIcEENS1_IcEEEEmEEPvEEEEEC2ERSC_b
FN:787,_ZNSt3__122__tree_node_destructorINS_9allocatorINS_11__tree_nodeINS_12basic_stringIcNS_11char_traitsIcEENS1_IcEEEEPvEEEEEC1ERSA_b
FNDA:0,_ZNSt3__122__tree_node_destructorINS_9allocatorINS_11__tree_nodeINS_12basic_stringIcNS_11char_traitsIcEENS1_IcEEEEPvEEEEEC1ERSA_b
FN:787,_ZNSt3__122__tree_node_destructorINS_9allocatorINS_11__tree_nodeINS_12basic_stringIcNS_11char_traitsIcEENS1_IcEEEEPvEEEEEC2ERSA_b
FNDA:0,_ZNSt3__122__tree_node_destructorINS_9allocatorINS_11__tree_nodeINS_12basic_stringIcNS_11char_traitsIcEENS1_IcEEEEPvEEEEEC2ERSA_b
FN:787,_ZNSt3__122__tree_node_destructorINS_9allocatorINS_11__tree_nodeINS_12__value_typeINS_12basic_stringIcNS_11char_traitsIcEENS1_IcEEEEN7testing8internal34TypeParameterizedTestSuiteRegistry30TypeParameterizedTestSuiteInfoEEEPvEEEEEC1ERSG_b
FNDA:0,_ZNSt3__122__tree_node_destructorINS_9allocatorINS_11__tree_nodeINS_12__value_typeINS_12basic_stringIcNS_11char_traitsIcEENS1_IcEEEEN7testing8internal34TypeParameterizedTestSuiteRegistry30TypeParameterizedTestSuiteInfoEEEPvEEEEEC1ERSG_b
FN:787,_ZNSt3__122__tree_node_destructorINS_9allocatorINS_11__tree_nodeINS_12__value_typeINS_12basic_stringIcNS_11char_traitsIcEENS1_IcEEEEN7testing8internal34TypeParameterizedTestSuiteRegistry30TypeParameterizedTestSuiteInfoEEEPvEEEEEC2ERSG_b
FNDA:0,_ZNSt3__122__tree_node_destructorINS_9allocatorINS_11__tree_nodeINS_12__value_typeINS_12basic_stringIcNS_11char_traitsIcEENS1_IcEEEEN7testing8internal34TypeParameterizedTestSuiteRegistry30TypeParameterizedTestSuiteInfoEEEPvEEEEEC2ERSG_b
FN:793,_ZNSt3__122__tree_node_destructorINS_9allocatorINS_11__tree_nodeINS_12__value_typeINS_12basic_stringIcNS_11char_traitsIcEENS1_IcEEEEmEEPvEEEEEclEPSB_
FNDA:0,_ZNSt3__122__tree_node_destructorINS_9allocatorINS_11__tree_nodeINS_12__value_typeINS_12basic_stringIcNS_11char_traitsIcEENS1_IcEEEEmEEPvEEEEEclEPSB_
FN:793,_ZNSt3__122__tree_node_destructorINS_9allocatorINS_11__tree_nodeINS_12basic_stringIcNS_11char_traitsIcEENS1_IcEEEEPvEEEEEclEPS9_
FNDA:0,_ZNSt3__122__tree_node_destructorINS_9allocatorINS_11__tree_nodeINS_12basic_stringIcNS_11char_traitsIcEENS1_IcEEEEPvEEEEEclEPS9_
FN:793,_ZNSt3__122__tree_node_destructorINS_9allocatorINS_11__tree_nodeINS_12__value_typeINS_12basic_stringIcNS_11char_traitsIcEENS1_IcEEEEN7testing8internal34TypeParameterizedTestSuiteRegistry30TypeParameterizedTestSuiteInfoEEEPvEEEEEclEPSF_
FNDA:0,_ZNSt3__122__tree_node_destructorINS_9allocatorINS_11__tree_nodeINS_12__value_typeINS_12basic_stringIcNS_11char_traitsIcEENS1_IcEEEEN7testing8internal34TypeParameterizedTestSuiteRegistry30TypeParameterizedTestSuiteInfoEEEPvEEEEEclEPSF_
FN:840,_ZNKSt3__115__tree_iteratorINS_12__value_typeINS_12basic_stringIcNS_11char_traitsIcEENS_9allocatorIcEEEEmEEPNS_11__tree_nodeIS8_PvEElEdeEv
FNDA:0,_ZNKSt3__115__tree_iteratorINS_12__value_typeINS_12basic_stringIcNS_11char_traitsIcEENS_9allocatorIcEEEEmEEPNS_11__tree_nodeIS8_PvEElEdeEv
FN:840,_ZNKSt3__115__tree_iteratorINS_12__value_typeINS_12basic_stringIcNS_11char_traitsIcEENS_9allocatorIcEEEEN7testing8internal34TypeParameterizedTestSuiteRegistry30TypeParameterizedTestSuiteInfoEEEPNS_11__tree_nodeISC_PvEElEdeEv
FNDA:0,_ZNKSt3__115__tree_iteratorINS_12__value_typeINS_12basic_stringIcNS_11char_traitsIcEENS_9allocatorIcEEEEN7testing8internal34TypeParameterizedTestSuiteRegistry30TypeParameterizedTestSuiteInfoEEEPNS_11__tree_nodeISC_PvEElEdeEv
FN:842,_ZNKSt3__115__tree_iteratorINS_12__value_typeINS_12basic_stringIcNS_11char_traitsIcEENS_9allocatorIcEEEEmEEPNS_11__tree_nodeIS8_PvEElEptEv
FNDA:0,_ZNKSt3__115__tree_iteratorINS_12__value_typeINS_12basic_stringIcNS_11char_traitsIcEENS_9allocatorIcEEEEmEEPNS_11__tree_nodeIS8_PvEElEptEv
FN:842,_ZNKSt3__115__tree_iteratorINS_12__value_typeINS_12basic_stringIcNS_11char_traitsIcEENS_9allocatorIcEEEEN7testing8internal34TypeParameterizedTestSuiteRegistry30TypeParameterizedTestSuiteInfoEEEPNS_11__tree_nodeISC_PvEElEptEv
FNDA:0,_ZNKSt3__115__tree_iteratorINS_12__value_typeINS_12basic_stringIcNS_11char_traitsIcEENS_9allocatorIcEEEEN7testing8internal34TypeParameterizedTestSuiteRegistry30TypeParameterizedTestSuiteInfoEEEPNS_11__tree_nodeISC_PvEElEptEv
FN:846,_ZNSt3__115__tree_iteratorINS_12__value_typeINS_12basic_stringIcNS_11char_traitsIcEENS_9allocatorIcEEEEN7testing8internal34TypeParameterizedTestSuiteRegistry30TypeParameterizedTestSuiteInfoEEEPNS_11__tree_nodeISC_PvEElEppEv
FNDA:0,_ZNSt3__115__tree_iteratorINS_12__value_typeINS_12basic_stringIcNS_11char_traitsIcEENS_9allocatorIcEEEEN7testing8internal34TypeParameterizedTestSuiteRegistry30TypeParameterizedTestSuiteInfoEEEPNS_11__tree_nodeISC_PvEElEppEv
FN:866,_ZNSt3__1eqERKNS_15__tree_iteratorINS_12__value_typeINS_12basic_stringIcNS_11char_traitsIcEENS_9allocatorIcEEEEmEEPNS_11__tree_nodeIS8_PvEElEESF_
FNDA:0,_ZNSt3__1eqERKNS_15__tree_iteratorINS_12__value_typeINS_12basic_stringIcNS_11char_traitsIcEENS_9allocatorIcEEEEmEEPNS_11__tree_nodeIS8_PvEElEESF_
FN:866,_ZNSt3__1eqERKNS_15__tree_iteratorINS_12__value_typeINS_12basic_stringIcNS_11char_traitsIcEENS_9allocatorIcEEEEN7testing8internal34TypeParameterizedTestSuiteRegistry30TypeParameterizedTestSuiteInfoEEEPNS_11__tree_nodeISC_PvEElEESJ_
FNDA:1,_ZNSt3__1eqERKNS_15__tree_iteratorINS_12__value_typeINS_12basic_stringIcNS_11char_traitsIcEENS_9allocatorIcEEEEN7testing8internal34TypeParameterizedTestSuiteRegistry30TypeParameterizedTestSuiteInfoEEEPNS_11__tree_nodeISC_PvEElEESJ_
FN:869,_ZNSt3__1neERKNS_15__tree_iteratorINS_12__value_typeINS_12basic_stringIcNS_11char_traitsIcEENS_9allocatorIcEEEEmEEPNS_11__tree_nodeIS8_PvEElEESF_
FNDA:0,_ZNSt3__1neERKNS_15__tree_iteratorINS_12__value_typeINS_12basic_stringIcNS_11char_traitsIcEENS_9allocatorIcEEEEmEEPNS_11__tree_nodeIS8_PvEElEESF_
FN:869,_ZNSt3__1neERKNS_15__tree_iteratorINS_12__value_typeINS_12basic_stringIcNS_11char_traitsIcEENS_9allocatorIcEEEEN7testing8internal34TypeParameterizedTestSuiteRegistry30TypeParameterizedTestSuiteInfoEEEPNS_11__tree_nodeISC_PvEElEESJ_
FNDA:1,_ZNSt3__1neERKNS_15__tree_iteratorINS_12__value_typeINS_12basic_stringIcNS_11char_traitsIcEENS_9allocatorIcEEEEN7testing8internal34TypeParameterizedTestSuiteRegistry30TypeParameterizedTestSuiteInfoEEEPNS_11__tree_nodeISC_PvEElEESJ_
FN:874,_ZNSt3__115__tree_iteratorINS_12__value_typeINS_12basic_stringIcNS_11char_traitsIcEENS_9allocatorIcEEEEmEEPNS_11__tree_nodeIS8_PvEElEC1ESC_
FNDA:0,_ZNSt3__115__tree_iteratorINS_12__value_typeINS_12basic_stringIcNS_11char_traitsIcEENS_9allocatorIcEEEEmEEPNS_11__tree_nodeIS8_PvEElEC1ESC_
FN:874,_ZNSt3__115__tree_iteratorINS_12__value_typeINS_12basic_stringIcNS_11char_traitsIcEENS_9allocatorIcEEEEmEEPNS_11__tree_nodeIS8_PvEElEC2ESC_
FNDA:0,_ZNSt3__115__tree_iteratorINS_12__value_typeINS_12basic_stringIcNS_11char_traitsIcEENS_9allocatorIcEEEEmEEPNS_11__tree_nodeIS8_PvEElEC2ESC_
FN:874,_ZNSt3__115__tree_iteratorINS_12basic_stringIcNS_11char_traitsIcEENS_9allocatorIcEEEEPNS_11__tree_nodeIS6_PvEElEC1ESA_
FNDA:0,_ZNSt3__115__tree_iteratorINS_12basic_stringIcNS_11char_traitsIcEENS_9allocatorIcEEEEPNS_11__tree_nodeIS6_PvEElEC1ESA_
FN:874,_ZNSt3__115__tree_iteratorINS_12basic_stringIcNS_11char_traitsIcEENS_9allocatorIcEEEEPNS_11__tree_nodeIS6_PvEElEC2ESA_
FNDA:0,_ZNSt3__115__tree_iteratorINS_12basic_stringIcNS_11char_traitsIcEENS_9allocatorIcEEEEPNS_11__tree_nodeIS6_PvEElEC2ESA_
FN:874,_ZNSt3__115__tree_iteratorINS_12__value_typeINS_12basic_stringIcNS_11char_traitsIcEENS_9allocatorIcEEEEN7testing8internal34TypeParameterizedTestSuiteRegistry30TypeParameterizedTestSuiteInfoEEEPNS_11__tree_nodeISC_PvEElEC1ESG_
FNDA:0,_ZNSt3__115__tree_iteratorINS_12__value_typeINS_12basic_stringIcNS_11char_traitsIcEENS_9allocatorIcEEEEN7testing8internal34TypeParameterizedTestSuiteRegistry30TypeParameterizedTestSuiteInfoEEEPNS_11__tree_nodeISC_PvEElEC1ESG_
FN:874,_ZNSt3__115__tree_iteratorINS_12__value_typeINS_12basic_stringIcNS_11char_traitsIcEENS_9allocatorIcEEEEN7testing8internal34TypeParameterizedTestSuiteRegistry30TypeParameterizedTestSuiteInfoEEEPNS_11__tree_nodeISC_PvEElEC2ESG_
FNDA:0,_ZNSt3__115__tree_iteratorINS_12__value_typeINS_12basic_stringIcNS_11char_traitsIcEENS_9allocatorIcEEEEN7testing8internal34TypeParameterizedTestSuiteRegistry30TypeParameterizedTestSuiteInfoEEEPNS_11__tree_nodeISC_PvEElEC2ESG_
FN:876,_ZNSt3__115__tree_iteratorINS_12__value_typeINS_12basic_stringIcNS_11char_traitsIcEENS_9allocatorIcEEEEmEEPNS_11__tree_nodeIS8_PvEElEC1EPNS_15__tree_end_nodeIPNS_16__tree_node_baseISA_EEEE
FNDA:0,_ZNSt3__115__tree_iteratorINS_12__value_typeINS_12basic_stringIcNS_11char_traitsIcEENS_9allocatorIcEEEEmEEPNS_11__tree_nodeIS8_PvEElEC1EPNS_15__tree_end_nodeIPNS_16__tree_node_baseISA_EEEE
FN:876,_ZNSt3__115__tree_iteratorINS_12__value_typeINS_12basic_stringIcNS_11char_traitsIcEENS_9allocatorIcEEEEmEEPNS_11__tree_nodeIS8_PvEElEC2EPNS_15__tree_end_nodeIPNS_16__tree_node_baseISA_EEEE
FNDA:0,_ZNSt3__115__tree_iteratorINS_12__value_typeINS_12basic_stringIcNS_11char_traitsIcEENS_9allocatorIcEEEEmEEPNS_11__tree_nodeIS8_PvEElEC2EPNS_15__tree_end_nodeIPNS_16__tree_node_baseISA_EEEE
FN:876,_ZNSt3__115__tree_iteratorINS_12__value_typeINS_12basic_stringIcNS_11char_traitsIcEENS_9allocatorIcEEEEN7testing8internal34TypeParameterizedTestSuiteRegistry30TypeParameterizedTestSuiteInfoEEEPNS_11__tree_nodeISC_PvEElEC1EPNS_15__tree_end_nodeIPNS_16__tree_node_baseISE_EEEE
FNDA:2,_ZNSt3__115__tree_iteratorINS_12__value_typeINS_12basic_stringIcNS_11char_traitsIcEENS_9allocatorIcEEEEN7testing8internal34TypeParameterizedTestSuiteRegistry30TypeParameterizedTestSuiteInfoEEEPNS_11__tree_nodeISC_PvEElEC1EPNS_15__tree_end_nodeIPNS_16__tree_node_baseISE_EEEE
FN:876,_ZNSt3__115__tree_iteratorINS_12__value_typeINS_12basic_stringIcNS_11char_traitsIcEENS_9allocatorIcEEEEN7testing8internal34TypeParameterizedTestSuiteRegistry30TypeParameterizedTestSuiteInfoEEEPNS_11__tree_nodeISC_PvEElEC2EPNS_15__tree_end_nodeIPNS_16__tree_node_baseISE_EEEE
FNDA:2,_ZNSt3__115__tree_iteratorINS_12__value_typeINS_12basic_stringIcNS_11char_traitsIcEENS_9allocatorIcEEEEN7testing8internal34TypeParameterizedTestSuiteRegistry30TypeParameterizedTestSuiteInfoEEEPNS_11__tree_nodeISC_PvEElEC2EPNS_15__tree_end_nodeIPNS_16__tree_node_baseISE_EEEE
FN:876,_ZNSt3__115__tree_iteratorINS_12__value_typeINS_12basic_stringIcNS_11char_traitsIcEENS_9allocatorIcEEEEN7testing8internal12CodeLocationEEEPNS_11__tree_nodeISB_PvEElEC1EPNS_15__tree_end_nodeIPNS_16__tree_node_baseISD_EEEE
FNDA:0,_ZNSt3__115__tree_iteratorINS_12__value_typeINS_12basic_stringIcNS_11char_traitsIcEENS_9allocatorIcEEEEN7testing8internal12CodeLocationEEEPNS_11__tree_nodeISB_PvEElEC1EPNS_15__tree_end_nodeIPNS_16__tree_node_baseISD_EEEE
FN:876,_ZNSt3__115__tree_iteratorINS_12__value_typeINS_12basic_stringIcNS_11char_traitsIcEENS_9allocatorIcEEEEN7testing8internal12CodeLocationEEEPNS_11__tree_nodeISB_PvEElEC2EPNS_15__tree_end_nodeIPNS_16__tree_node_baseISD_EEEE
FNDA:0,_ZNSt3__115__tree_iteratorINS_12__value_typeINS_12basic_stringIcNS_11char_traitsIcEENS_9allocatorIcEEEEN7testing8internal12CodeLocationEEEPNS_11__tree_nodeISB_PvEElEC2EPNS_15__tree_end_nodeIPNS_16__tree_node_baseISD_EEEE
FN:878,_ZNKSt3__115__tree_iteratorINS_12__value_typeINS_12basic_stringIcNS_11char_traitsIcEENS_9allocatorIcEEEEmEEPNS_11__tree_nodeIS8_PvEElE8__get_npEv
FNDA:0,_ZNKSt3__115__tree_iteratorINS_12__value_typeINS_12basic_stringIcNS_11char_traitsIcEENS_9allocatorIcEEEEmEEPNS_11__tree_nodeIS8_PvEElE8__get_npEv
FN:878,_ZNKSt3__115__tree_iteratorINS_12__value_typeINS_12basic_stringIcNS_11char_traitsIcEENS_9allocatorIcEEEEN7testing8internal34TypeParameterizedTestSuiteRegistry30TypeParameterizedTestSuiteInfoEEEPNS_11__tree_nodeISC_PvEElE8__get_npEv
FNDA:0,_ZNKSt3__115__tree_iteratorINS_12__value_typeINS_12basic_stringIcNS_11char_traitsIcEENS_9allocatorIcEEEEN7testing8internal34TypeParameterizedTestSuiteRegistry30TypeParameterizedTestSuiteInfoEEEPNS_11__tree_nodeISC_PvEElE8__get_npEv
FN:918,_ZNSt3__121__tree_const_iteratorINS_12basic_stringIcNS_11char_traitsIcEENS_9allocatorIcEEEEPNS_11__tree_nodeIS6_PvEElEC1ENS_15__tree_iteratorIS6_SA_lEE
FNDA:0,_ZNSt3__121__tree_const_iteratorINS_12basic_stringIcNS_11char_traitsIcEENS_9allocatorIcEEEEPNS_11__tree_nodeIS6_PvEElEC1ENS_15__tree_iteratorIS6_SA_lEE
FN:918,_ZNSt3__121__tree_const_iteratorINS_12basic_stringIcNS_11char_traitsIcEENS_9allocatorIcEEEEPNS_11__tree_nodeIS6_PvEElEC2ENS_15__tree_iteratorIS6_SA_lEE
FNDA:0,_ZNSt3__121__tree_const_iteratorINS_12basic_stringIcNS_11char_traitsIcEENS_9allocatorIcEEEEPNS_11__tree_nodeIS6_PvEElEC2ENS_15__tree_iteratorIS6_SA_lEE
FN:918,_ZNSt3__121__tree_const_iteratorINS_12__value_typeINS_12basic_stringIcNS_11char_traitsIcEENS_9allocatorIcEEEEN7testing8internal12CodeLocationEEEPNS_11__tree_nodeISB_PvEElEC1ENS_15__tree_iteratorISB_SF_lEE
FNDA:0,_ZNSt3__121__tree_const_iteratorINS_12__value_typeINS_12basic_stringIcNS_11char_traitsIcEENS_9allocatorIcEEEEN7testing8internal12CodeLocationEEEPNS_11__tree_nodeISB_PvEElEC1ENS_15__tree_iteratorISB_SF_lEE
FN:918,_ZNSt3__121__tree_const_iteratorINS_12__value_typeINS_12basic_stringIcNS_11char_traitsIcEENS_9allocatorIcEEEEN7testing8internal12CodeLocationEEEPNS_11__tree_nodeISB_PvEElEC2ENS_15__tree_iteratorISB_SF_lEE
FNDA:0,_ZNSt3__121__tree_const_iteratorINS_12__value_typeINS_12basic_stringIcNS_11char_traitsIcEENS_9allocatorIcEEEEN7testing8internal12CodeLocationEEEPNS_11__tree_nodeISB_PvEElEC2ENS_15__tree_iteratorISB_SF_lEE
FN:921,_ZNKSt3__121__tree_const_iteratorINS_12basic_stringIcNS_11char_traitsIcEENS_9allocatorIcEEEEPNS_11__tree_nodeIS6_PvEElEdeEv
FNDA:0,_ZNKSt3__121__tree_const_iteratorINS_12basic_stringIcNS_11char_traitsIcEENS_9allocatorIcEEEEPNS_11__tree_nodeIS6_PvEElEdeEv
FN:923,_ZNKSt3__121__tree_const_iteratorINS_12__value_typeINS_12basic_stringIcNS_11char_traitsIcEENS_9allocatorIcEEEEN7testing8internal12CodeLocationEEEPNS_11__tree_nodeISB_PvEElEptEv
FNDA:0,_ZNKSt3__121__tree_const_iteratorINS_12__value_typeINS_12basic_stringIcNS_11char_traitsIcEENS_9allocatorIcEEEEN7testing8internal12CodeLocationEEEPNS_11__tree_nodeISB_PvEElEptEv
FN:927,_ZNSt3__121__tree_const_iteratorINS_12__value_typeINS_12basic_stringIcNS_11char_traitsIcEENS_9allocatorIcEEEEN7testing8internal12CodeLocationEEEPNS_11__tree_nodeISB_PvEElEppEv
FNDA:0,_ZNSt3__121__tree_const_iteratorINS_12__value_typeINS_12basic_stringIcNS_11char_traitsIcEENS_9allocatorIcEEEEN7testing8internal12CodeLocationEEEPNS_11__tree_nodeISB_PvEElEppEv
FN:949,_ZNSt3__1eqERKNS_21__tree_const_iteratorINS_12__value_typeINS_12basic_stringIcNS_11char_traitsIcEENS_9allocatorIcEEEEN7testing8internal12CodeLocationEEEPNS_11__tree_nodeISB_PvEElEESI_
FNDA:0,_ZNSt3__1eqERKNS_21__tree_const_iteratorINS_12__value_typeINS_12basic_stringIcNS_11char_traitsIcEENS_9allocatorIcEEEEN7testing8internal12CodeLocationEEEPNS_11__tree_nodeISB_PvEElEESI_
FN:949,_ZNSt3__1eqERKNS_21__tree_const_iteratorINS_12basic_stringIcNS_11char_traitsIcEENS_9allocatorIcEEEEPNS_11__tree_nodeIS6_PvEElEESD_
FNDA:0,_ZNSt3__1eqERKNS_21__tree_const_iteratorINS_12basic_stringIcNS_11char_traitsIcEENS_9allocatorIcEEEEPNS_11__tree_nodeIS6_PvEElEESD_
FN:952,_ZNSt3__1neERKNS_21__tree_const_iteratorINS_12basic_stringIcNS_11char_traitsIcEENS_9allocatorIcEEEEPNS_11__tree_nodeIS6_PvEElEESD_
FNDA:0,_ZNSt3__1neERKNS_21__tree_const_iteratorINS_12basic_stringIcNS_11char_traitsIcEENS_9allocatorIcEEEEPNS_11__tree_nodeIS6_PvEElEESD_
FN:952,_ZNSt3__1neERKNS_21__tree_const_iteratorINS_12__value_typeINS_12basic_stringIcNS_11char_traitsIcEENS_9allocatorIcEEEEN7testing8internal12CodeLocationEEEPNS_11__tree_nodeISB_PvEElEESI_
FNDA:0,_ZNSt3__1neERKNS_21__tree_const_iteratorINS_12__value_typeINS_12basic_stringIcNS_11char_traitsIcEENS_9allocatorIcEEEEN7testing8internal12CodeLocationEEEPNS_11__tree_nodeISB_PvEElEESI_
FN:960,_ZNSt3__121__tree_const_iteratorINS_12basic_stringIcNS_11char_traitsIcEENS_9allocatorIcEEEEPNS_11__tree_nodeIS6_PvEElEC1EPNS_15__tree_end_nodeIPNS_16__tree_node_baseIS8_EEEE
FNDA:0,_ZNSt3__121__tree_const_iteratorINS_12basic_stringIcNS_11char_traitsIcEENS_9allocatorIcEEEEPNS_11__tree_nodeIS6_PvEElEC1EPNS_15__tree_end_nodeIPNS_16__tree_node_baseIS8_EEEE
FN:960,_ZNSt3__121__tree_const_iteratorINS_12basic_stringIcNS_11char_traitsIcEENS_9allocatorIcEEEEPNS_11__tree_nodeIS6_PvEElEC2EPNS_15__tree_end_nodeIPNS_16__tree_node_baseIS8_EEEE
FNDA:0,_ZNSt3__121__tree_const_iteratorINS_12basic_stringIcNS_11char_traitsIcEENS_9allocatorIcEEEEPNS_11__tree_nodeIS6_PvEElEC2EPNS_15__tree_end_nodeIPNS_16__tree_node_baseIS8_EEEE
FN:963,_ZNKSt3__121__tree_const_iteratorINS_12__value_typeINS_12basic_stringIcNS_11char_traitsIcEENS_9allocatorIcEEEEN7testing8internal12CodeLocationEEEPNS_11__tree_nodeISB_PvEElE8__get_npEv
FNDA:0,_ZNKSt3__121__tree_const_iteratorINS_12__value_typeINS_12basic_stringIcNS_11char_traitsIcEENS_9allocatorIcEEEEN7testing8internal12CodeLocationEEEPNS_11__tree_nodeISB_PvEElE8__get_npEv
FN:963,_ZNKSt3__121__tree_const_iteratorINS_12basic_stringIcNS_11char_traitsIcEENS_9allocatorIcEEEEPNS_11__tree_nodeIS6_PvEElE8__get_npEv
FNDA:0,_ZNKSt3__121__tree_const_iteratorINS_12basic_stringIcNS_11char_traitsIcEENS_9allocatorIcEEEEPNS_11__tree_nodeIS6_PvEElE8__get_npEv
FN:1041,_ZNSt3__16__treeINS_12__value_typeINS_12basic_stringIcNS_11char_traitsIcEENS_9allocatorIcEEEEmEENS_19__map_value_compareIS7_S8_NS_4lessIS7_EELb1EEENS5_IS8_EEE10__end_nodeEv
FNDA:0,_ZNSt3__16__treeINS_12__value_typeINS_12basic_stringIcNS_11char_traitsIcEENS_9allocatorIcEEEEmEENS_19__map_value_compareIS7_S8_NS_4lessIS7_EELb1EEENS5_IS8_EEE10__end_nodeEv
FN:1041,_ZNSt3__16__treeINS_12__value_typeINS_12basic_stringIcNS_11char_traitsIcEENS_9allocatorIcEEEEN7testing8internal34TypeParameterizedTestSuiteRegistry30TypeParameterizedTestSuiteInfoEEENS_19__map_value_compareIS7_SC_NS_4lessIS7_EELb1EEENS5_ISC_EEE10__end_nodeEv
FNDA:2,_ZNSt3__16__treeINS_12__value_typeINS_12basic_stringIcNS_11char_traitsIcEENS_9allocatorIcEEEEN7testing8internal34TypeParameterizedTestSuiteRegistry30TypeParameterizedTestSuiteInfoEEENS_19__map_value_compareIS7_SC_NS_4lessIS7_EELb1EEENS5_ISC_EEE10__end_nodeEv
FN:1041,_ZNSt3__16__treeINS_12basic_stringIcNS_11char_traitsIcEENS_9allocatorIcEEEENS_4lessIS6_EENS4_IS6_EEE10__end_nodeEv
FNDA:1,_ZNSt3__16__treeINS_12basic_stringIcNS_11char_traitsIcEENS_9allocatorIcEEEENS_4lessIS6_EENS4_IS6_EEE10__end_nodeEv
FN:1041,_ZNSt3__16__treeINS_12__value_typeINS_12basic_stringIcNS_11char_traitsIcEENS_9allocatorIcEEEEN7testing8internal12CodeLocationEEENS_19__map_value_compareIS7_SB_NS_4lessIS7_EELb1EEENS5_ISB_EEE10__end_nodeEv
FNDA:0,_ZNSt3__16__treeINS_12__value_typeINS_12basic_stringIcNS_11char_traitsIcEENS_9allocatorIcEEEEN7testing8internal12CodeLocationEEENS_19__map_value_compareIS7_SB_NS_4lessIS7_EELb1EEENS5_ISB_EEE10__end_nodeEv
FN:1048,_ZNKSt3__16__treeINS_12__value_typeINS_12basic_stringIcNS_11char_traitsIcEENS_9allocatorIcEEEEmEENS_19__map_value_compareIS7_S8_NS_4lessIS7_EELb1EEENS5_IS8_EEE10__end_nodeEv
FNDA:0,_ZNKSt3__16__treeINS_12__value_typeINS_12basic_stringIcNS_11char_traitsIcEENS_9allocatorIcEEEEmEENS_19__map_value_compareIS7_S8_NS_4lessIS7_EELb1EEENS5_IS8_EEE10__end_nodeEv
FN:1048,_ZNKSt3__16__treeINS_12__value_typeINS_12basic_stringIcNS_11char_traitsIcEENS_9allocatorIcEEEEN7testing8internal34TypeParameterizedTestSuiteRegistry30TypeParameterizedTestSuiteInfoEEENS_19__map_value_compareIS7_SC_NS_4lessIS7_EELb1EEENS5_ISC_EEE10__end_nodeEv
FNDA:1,_ZNKSt3__16__treeINS_12__value_typeINS_12basic_stringIcNS_11char_traitsIcEENS_9allocatorIcEEEEN7testing8internal34TypeParameterizedTestSuiteRegistry30TypeParameterizedTestSuiteInfoEEENS_19__map_value_compareIS7_SC_NS_4lessIS7_EELb1EEENS5_ISC_EEE10__end_nodeEv
FN:1048,_ZNKSt3__16__treeINS_12__value_typeINS_12basic_stringIcNS_11char_traitsIcEENS_9allocatorIcEEEEN7testing8internal12CodeLocationEEENS_19__map_value_compareIS7_SB_NS_4lessIS7_EELb1EEENS5_ISB_EEE10__end_nodeEv
FNDA:0,_ZNKSt3__16__treeINS_12__value_typeINS_12basic_stringIcNS_11char_traitsIcEENS_9allocatorIcEEEEN7testing8internal12CodeLocationEEENS_19__map_value_compareIS7_SB_NS_4lessIS7_EELb1EEENS5_ISB_EEE10__end_nodeEv
FN:1048,_ZNKSt3__16__treeINS_12basic_stringIcNS_11char_traitsIcEENS_9allocatorIcEEEENS_4lessIS6_EENS4_IS6_EEE10__end_nodeEv
FNDA:1,_ZNKSt3__16__treeINS_12basic_stringIcNS_11char_traitsIcEENS_9allocatorIcEEEENS_4lessIS6_EENS4_IS6_EEE10__end_nodeEv
FN:1057,_ZNSt3__16__treeINS_12__value_typeINS_12basic_stringIcNS_11char_traitsIcEENS_9allocatorIcEEEEmEENS_19__map_value_compareIS7_S8_NS_4lessIS7_EELb1EEENS5_IS8_EEE12__node_allocEv
FNDA:0,_ZNSt3__16__treeINS_12__value_typeINS_12basic_stringIcNS_11char_traitsIcEENS_9allocatorIcEEEEmEENS_19__map_value_compareIS7_S8_NS_4lessIS7_EELb1EEENS5_IS8_EEE12__node_allocEv
FN:1057,_ZNSt3__16__treeINS_12__value_typeINS_12basic_stringIcNS_11char_traitsIcEENS_9allocatorIcEEEEN7testing8internal34TypeParameterizedTestSuiteRegistry30TypeParameterizedTestSuiteInfoEEENS_19__map_value_compareIS7_SC_NS_4lessIS7_EELb1EEENS5_ISC_EEE12__node_allocEv
FNDA:0,_ZNSt3__16__treeINS_12__value_typeINS_12basic_stringIcNS_11char_traitsIcEENS_9allocatorIcEEEEN7testing8internal34TypeParameterizedTestSuiteRegistry30TypeParameterizedTestSuiteInfoEEENS_19__map_value_compareIS7_SC_NS_4lessIS7_EELb1EEENS5_ISC_EEE12__node_allocEv
FN:1057,_ZNSt3__16__treeINS_12basic_stringIcNS_11char_traitsIcEENS_9allocatorIcEEEENS_4lessIS6_EENS4_IS6_EEE12__node_allocEv
FNDA:0,_ZNSt3__16__treeINS_12basic_stringIcNS_11char_traitsIcEENS_9allocatorIcEEEENS_4lessIS6_EENS4_IS6_EEE12__node_allocEv
FN:1063,_ZNSt3__16__treeINS_12__value_typeINS_12basic_stringIcNS_11char_traitsIcEENS_9allocatorIcEEEEmEENS_19__map_value_compareIS7_S8_NS_4lessIS7_EELb1EEENS5_IS8_EEE12__begin_nodeEv
FNDA:0,_ZNSt3__16__treeINS_12__value_typeINS_12basic_stringIcNS_11char_traitsIcEENS_9allocatorIcEEEEmEENS_19__map_value_compareIS7_S8_NS_4lessIS7_EELb1EEENS5_IS8_EEE12__begin_nodeEv
FN:1063,_ZNSt3__16__treeINS_12__value_typeINS_12basic_stringIcNS_11char_traitsIcEENS_9allocatorIcEEEEN7testing8internal34TypeParameterizedTestSuiteRegistry30TypeParameterizedTestSuiteInfoEEENS_19__map_value_compareIS7_SC_NS_4lessIS7_EELb1EEENS5_ISC_EEE12__begin_nodeEv
FNDA:2,_ZNSt3__16__treeINS_12__value_typeINS_12basic_stringIcNS_11char_traitsIcEENS_9allocatorIcEEEEN7testing8internal34TypeParameterizedTestSuiteRegistry30TypeParameterizedTestSuiteInfoEEENS_19__map_value_compareIS7_SC_NS_4lessIS7_EELb1EEENS5_ISC_EEE12__begin_nodeEv
FN:1063,_ZNSt3__16__treeINS_12basic_stringIcNS_11char_traitsIcEENS_9allocatorIcEEEENS_4lessIS6_EENS4_IS6_EEE12__begin_nodeEv
FNDA:1,_ZNSt3__16__treeINS_12basic_stringIcNS_11char_traitsIcEENS_9allocatorIcEEEENS_4lessIS6_EENS4_IS6_EEE12__begin_nodeEv
FN:1063,_ZNSt3__16__treeINS_12__value_typeINS_12basic_stringIcNS_11char_traitsIcEENS_9allocatorIcEEEEN7testing8internal12CodeLocationEEENS_19__map_value_compareIS7_SB_NS_4lessIS7_EELb1EEENS5_ISB_EEE12__begin_nodeEv
FNDA:0,_ZNSt3__16__treeINS_12__value_typeINS_12basic_stringIcNS_11char_traitsIcEENS_9allocatorIcEEEEN7testing8internal12CodeLocationEEENS_19__map_value_compareIS7_SB_NS_4lessIS7_EELb1EEENS5_ISB_EEE12__begin_nodeEv
FN:1072,_ZNSt3__16__treeINS_12__value_typeINS_12basic_stringIcNS_11char_traitsIcEENS_9allocatorIcEEEEmEENS_19__map_value_compareIS7_S8_NS_4lessIS7_EELb1EEENS5_IS8_EEE4sizeEv
FNDA:0,_ZNSt3__16__treeINS_12__value_typeINS_12basic_stringIcNS_11char_traitsIcEENS_9allocatorIcEEEEmEENS_19__map_value_compareIS7_S8_NS_4lessIS7_EELb1EEENS5_IS8_EEE4sizeEv
FN:1072,_ZNSt3__16__treeINS_12basic_stringIcNS_11char_traitsIcEENS_9allocatorIcEEEENS_4lessIS6_EENS4_IS6_EEE4sizeEv
FNDA:0,_ZNSt3__16__treeINS_12basic_stringIcNS_11char_traitsIcEENS_9allocatorIcEEEENS_4lessIS6_EENS4_IS6_EEE4sizeEv
FN:1072,_ZNSt3__16__treeINS_12__value_typeINS_12basic_stringIcNS_11char_traitsIcEENS_9allocatorIcEEEEN7testing8internal34TypeParameterizedTestSuiteRegistry30TypeParameterizedTestSuiteInfoEEENS_19__map_value_compareIS7_SC_NS_4lessIS7_EELb1EEENS5_ISC_EEE4sizeEv
FNDA:0,_ZNSt3__16__treeINS_12__value_typeINS_12basic_stringIcNS_11char_traitsIcEENS_9allocatorIcEEEEN7testing8internal34TypeParameterizedTestSuiteRegistry30TypeParameterizedTestSuiteInfoEEENS_19__map_value_compareIS7_SC_NS_4lessIS7_EELb1EEENS5_ISC_EEE4sizeEv
FN:1075,_ZNKSt3__16__treeINS_12__value_typeINS_12basic_stringIcNS_11char_traitsIcEENS_9allocatorIcEEEEmEENS_19__map_value_compareIS7_S8_NS_4lessIS7_EELb1EEENS5_IS8_EEE4sizeEv
FNDA:0,_ZNKSt3__16__treeINS_12__value_typeINS_12basic_stringIcNS_11char_traitsIcEENS_9allocatorIcEEEEmEENS_19__map_value_compareIS7_S8_NS_4lessIS7_EELb1EEENS5_IS8_EEE4sizeEv
FN:1077,_ZNSt3__16__treeINS_12__value_typeINS_12basic_stringIcNS_11char_traitsIcEENS_9allocatorIcEEEEmEENS_19__map_value_compareIS7_S8_NS_4lessIS7_EELb1EEENS5_IS8_EEE10value_compEv
FNDA:0,_ZNSt3__16__treeINS_12__value_typeINS_12basic_stringIcNS_11char_traitsIcEENS_9allocatorIcEEEEmEENS_19__map_value_compareIS7_S8_NS_4lessIS7_EELb1EEENS5_IS8_EEE10value_compEv
FN:1077,_ZNSt3__16__treeINS_12basic_stringIcNS_11char_traitsIcEENS_9allocatorIcEEEENS_4lessIS6_EENS4_IS6_EEE10value_compEv
FNDA:0,_ZNSt3__16__treeINS_12basic_stringIcNS_11char_traitsIcEENS_9allocatorIcEEEENS_4lessIS6_EENS4_IS6_EEE10value_compEv
FN:1077,_ZNSt3__16__treeINS_12__value_typeINS_12basic_stringIcNS_11char_traitsIcEENS_9allocatorIcEEEEN7testing8internal34TypeParameterizedTestSuiteRegistry30TypeParameterizedTestSuiteInfoEEENS_19__map_value_compareIS7_SC_NS_4lessIS7_EELb1EEENS5_ISC_EEE10value_compEv
FNDA:0,_ZNSt3__16__treeINS_12__value_typeINS_12basic_stringIcNS_11char_traitsIcEENS_9allocatorIcEEEEN7testing8internal34TypeParameterizedTestSuiteRegistry30TypeParameterizedTestSuiteInfoEEENS_19__map_value_compareIS7_SC_NS_4lessIS7_EELb1EEENS5_ISC_EEE10value_compEv
FN:1079,_ZNKSt3__16__treeINS_12__value_typeINS_12basic_stringIcNS_11char_traitsIcEENS_9allocatorIcEEEEN7testing8internal12CodeLocationEEENS_19__map_value_compareIS7_SB_NS_4lessIS7_EELb1EEENS5_ISB_EEE10value_compEv
FNDA:0,_ZNKSt3__16__treeINS_12__value_typeINS_12basic_stringIcNS_11char_traitsIcEENS_9allocatorIcEEEEN7testing8internal12CodeLocationEEENS_19__map_value_compareIS7_SB_NS_4lessIS7_EELb1EEENS5_ISB_EEE10value_compEv
FN:1079,_ZNKSt3__16__treeINS_12basic_stringIcNS_11char_traitsIcEENS_9allocatorIcEEEENS_4lessIS6_EENS4_IS6_EEE10value_compEv
FNDA:0,_ZNKSt3__16__treeINS_12basic_stringIcNS_11char_traitsIcEENS_9allocatorIcEEEENS_4lessIS6_EENS4_IS6_EEE10value_compEv
FN:1084,_ZNKSt3__16__treeINS_12__value_typeINS_12basic_stringIcNS_11char_traitsIcEENS_9allocatorIcEEEEmEENS_19__map_value_compareIS7_S8_NS_4lessIS7_EELb1EEENS5_IS8_EEE6__rootEv
FNDA:0,_ZNKSt3__16__treeINS_12__value_typeINS_12basic_stringIcNS_11char_traitsIcEENS_9allocatorIcEEEEmEENS_19__map_value_compareIS7_S8_NS_4lessIS7_EELb1EEENS5_IS8_EEE6__rootEv
FN:1084,_ZNKSt3__16__treeINS_12__value_typeINS_12basic_stringIcNS_11char_traitsIcEENS_9allocatorIcEEEEN7testing8internal34TypeParameterizedTestSuiteRegistry30TypeParameterizedTestSuiteInfoEEENS_19__map_value_compareIS7_SC_NS_4lessIS7_EELb1EEENS5_ISC_EEE6__rootEv
FNDA:1,_ZNKSt3__16__treeINS_12__value_typeINS_12basic_stringIcNS_11char_traitsIcEENS_9allocatorIcEEEEN7testing8internal34TypeParameterizedTestSuiteRegistry30TypeParameterizedTestSuiteInfoEEENS_19__map_value_compareIS7_SC_NS_4lessIS7_EELb1EEENS5_ISC_EEE6__rootEv
FN:1084,_ZNKSt3__16__treeINS_12__value_typeINS_12basic_stringIcNS_11char_traitsIcEENS_9allocatorIcEEEEN7testing8internal12CodeLocationEEENS_19__map_value_compareIS7_SB_NS_4lessIS7_EELb1EEENS5_ISB_EEE6__rootEv
FNDA:0,_ZNKSt3__16__treeINS_12__value_typeINS_12basic_stringIcNS_11char_traitsIcEENS_9allocatorIcEEEEN7testing8internal12CodeLocationEEENS_19__map_value_compareIS7_SB_NS_4lessIS7_EELb1EEENS5_ISB_EEE6__rootEv
FN:1084,_ZNKSt3__16__treeINS_12basic_stringIcNS_11char_traitsIcEENS_9allocatorIcEEEENS_4lessIS6_EENS4_IS6_EEE6__rootEv
FNDA:1,_ZNKSt3__16__treeINS_12basic_stringIcNS_11char_traitsIcEENS_9allocatorIcEEEENS_4lessIS6_EENS4_IS6_EEE6__rootEv
FN:1087,_ZNKSt3__16__treeINS_12__value_typeINS_12basic_stringIcNS_11char_traitsIcEENS_9allocatorIcEEEEmEENS_19__map_value_compareIS7_S8_NS_4lessIS7_EELb1EEENS5_IS8_EEE10__root_ptrEv
FNDA:0,_ZNKSt3__16__treeINS_12__value_typeINS_12basic_stringIcNS_11char_traitsIcEENS_9allocatorIcEEEEmEENS_19__map_value_compareIS7_S8_NS_4lessIS7_EELb1EEENS5_IS8_EEE10__root_ptrEv
FN:1087,_ZNKSt3__16__treeINS_12basic_stringIcNS_11char_traitsIcEENS_9allocatorIcEEEENS_4lessIS6_EENS4_IS6_EEE10__root_ptrEv
FNDA:0,_ZNKSt3__16__treeINS_12basic_stringIcNS_11char_traitsIcEENS_9allocatorIcEEEENS_4lessIS6_EENS4_IS6_EEE10__root_ptrEv
FN:1087,_ZNKSt3__16__treeINS_12__value_typeINS_12basic_stringIcNS_11char_traitsIcEENS_9allocatorIcEEEEN7testing8internal34TypeParameterizedTestSuiteRegistry30TypeParameterizedTestSuiteInfoEEENS_19__map_value_compareIS7_SC_NS_4lessIS7_EELb1EEENS5_ISC_EEE10__root_ptrEv
FNDA:0,_ZNKSt3__16__treeINS_12__value_typeINS_12basic_stringIcNS_11char_traitsIcEENS_9allocatorIcEEEEN7testing8internal34TypeParameterizedTestSuiteRegistry30TypeParameterizedTestSuiteInfoEEENS_19__map_value_compareIS7_SC_NS_4lessIS7_EELb1EEENS5_ISC_EEE10__root_ptrEv
FN:1122,_ZNSt3__16__treeINS_12__value_typeINS_12basic_stringIcNS_11char_traitsIcEENS_9allocatorIcEEEEN7testing8internal34TypeParameterizedTestSuiteRegistry30TypeParameterizedTestSuiteInfoEEENS_19__map_value_compareIS7_SC_NS_4lessIS7_EELb1EEENS5_ISC_EEE5beginEv
FNDA:1,_ZNSt3__16__treeINS_12__value_typeINS_12basic_stringIcNS_11char_traitsIcEENS_9allocatorIcEEEEN7testing8internal34TypeParameterizedTestSuiteRegistry30TypeParameterizedTestSuiteInfoEEENS_19__map_value_compareIS7_SC_NS_4lessIS7_EELb1EEENS5_ISC_EEE5beginEv
FN:1122,_ZNSt3__16__treeINS_12__value_typeINS_12basic_stringIcNS_11char_traitsIcEENS_9allocatorIcEEEEN7testing8internal12CodeLocationEEENS_19__map_value_compareIS7_SB_NS_4lessIS7_EELb1EEENS5_ISB_EEE5beginEv
FNDA:0,_ZNSt3__16__treeINS_12__value_typeINS_12basic_stringIcNS_11char_traitsIcEENS_9allocatorIcEEEEN7testing8internal12CodeLocationEEENS_19__map_value_compareIS7_SB_NS_4lessIS7_EELb1EEENS5_ISB_EEE5beginEv
FN:1126,_ZNSt3__16__treeINS_12__value_typeINS_12basic_stringIcNS_11char_traitsIcEENS_9allocatorIcEEEEmEENS_19__map_value_compareIS7_S8_NS_4lessIS7_EELb1EEENS5_IS8_EEE3endEv
FNDA:0,_ZNSt3__16__treeINS_12__value_typeINS_12basic_stringIcNS_11char_traitsIcEENS_9allocatorIcEEEEmEENS_19__map_value_compareIS7_S8_NS_4lessIS7_EELb1EEENS5_IS8_EEE3endEv
FN:1126,_ZNSt3__16__treeINS_12__value_typeINS_12basic_stringIcNS_11char_traitsIcEENS_9allocatorIcEEEEN7testing8internal34TypeParameterizedTestSuiteRegistry30TypeParameterizedTestSuiteInfoEEENS_19__map_value_compareIS7_SC_NS_4lessIS7_EELb1EEENS5_ISC_EEE3endEv
FNDA:1,_ZNSt3__16__treeINS_12__value_typeINS_12basic_stringIcNS_11char_traitsIcEENS_9allocatorIcEEEEN7testing8internal34TypeParameterizedTestSuiteRegistry30TypeParameterizedTestSuiteInfoEEENS_19__map_value_compareIS7_SC_NS_4lessIS7_EELb1EEENS5_ISC_EEE3endEv
FN:1126,_ZNSt3__16__treeINS_12__value_typeINS_12basic_stringIcNS_11char_traitsIcEENS_9allocatorIcEEEEN7testing8internal12CodeLocationEEENS_19__map_value_compareIS7_SB_NS_4lessIS7_EELb1EEENS5_ISB_EEE3endEv
FNDA:0,_ZNSt3__16__treeINS_12__value_typeINS_12basic_stringIcNS_11char_traitsIcEENS_9allocatorIcEEEEN7testing8internal12CodeLocationEEENS_19__map_value_compareIS7_SB_NS_4lessIS7_EELb1EEENS5_ISB_EEE3endEv
FN:1128,_ZNKSt3__16__treeINS_12basic_stringIcNS_11char_traitsIcEENS_9allocatorIcEEEENS_4lessIS6_EENS4_IS6_EEE3endEv
FNDA:0,_ZNKSt3__16__treeINS_12basic_stringIcNS_11char_traitsIcEENS_9allocatorIcEEEENS_4lessIS6_EENS4_IS6_EEE3endEv
FN:1181,_ZNSt3__16__treeINS_12__value_typeINS_12basic_stringIcNS_11char_traitsIcEENS_9allocatorIcEEEEN7testing8internal34TypeParameterizedTestSuiteRegistry30TypeParameterizedTestSuiteInfoEEENS_19__map_value_compareIS7_SC_NS_4lessIS7_EELb1EEENS5_ISC_EEE16__emplace_uniqueIS7_SB_EENS_9enable_ifIXsr21__can_extract_map_keyIT_S7_NS_4pairIKS7_SB_EEEE5valueENSM_INS_15__tree_iteratorISC_PNS_11__tree_nodeISC_PvEElEEbEEE4typeEOSL_OT0_
FNDA:0,_ZNSt3__16__treeINS_12__value_typeINS_12basic_stringIcNS_11char_traitsIcEENS_9allocatorIcEEEEN7testing8internal34TypeParameterizedTestSuiteRegistry30TypeParameterizedTestSuiteInfoEEENS_19__map_value_compareIS7_SC_NS_4lessIS7_EELb1EEENS5_ISC_EEE16__emplace_uniqueIS7_SB_EENS_9enable_ifIXsr21__can_extract_map_keyIT_S7_NS_4pairIKS7_SB_EEEE5valueENSM_INS_15__tree_iteratorISC_PNS_11__tree_nodeISC_PvEElEEbEEE4typeEOSL_OT0_
FN:1268,_ZNSt3__16__treeINS_12basic_stringIcNS_11char_traitsIcEENS_9allocatorIcEEEENS_4lessIS6_EENS4_IS6_EEE15__insert_uniqueERKS6_
FNDA:0,_ZNSt3__16__treeINS_12basic_stringIcNS_11char_traitsIcEENS_9allocatorIcEEEENS_4lessIS6_EENS4_IS6_EEE15__insert_uniqueERKS6_
FN:1284,_ZNSt3__16__treeINS_12basic_stringIcNS_11char_traitsIcEENS_9allocatorIcEEEENS_4lessIS6_EENS4_IS6_EEE15__insert_uniqueEOS6_
FNDA:0,_ZNSt3__16__treeINS_12basic_stringIcNS_11char_traitsIcEENS_9allocatorIcEEEENS_4lessIS6_EENS4_IS6_EEE15__insert_uniqueEOS6_
FN:1568,_ZNSt3__16__treeINS_12__value_typeINS_12basic_stringIcNS_11char_traitsIcEENS_9allocatorIcEEEEmEENS_19__map_value_compareIS7_S8_NS_4lessIS7_EELb1EEENS5_IS8_EEEC1ERKSC_
FNDA:0,_ZNSt3__16__treeINS_12__value_typeINS_12basic_stringIcNS_11char_traitsIcEENS_9allocatorIcEEEEmEENS_19__map_value_compareIS7_S8_NS_4lessIS7_EELb1EEENS5_IS8_EEEC1ERKSC_
FN:1568,_ZNSt3__16__treeINS_12__value_typeINS_12basic_stringIcNS_11char_traitsIcEENS_9allocatorIcEEEEmEENS_19__map_value_compareIS7_S8_NS_4lessIS7_EELb1EEENS5_IS8_EEEC2ERKSC_
FNDA:0,_ZNSt3__16__treeINS_12__value_typeINS_12basic_stringIcNS_11char_traitsIcEENS_9allocatorIcEEEEmEENS_19__map_value_compareIS7_S8_NS_4lessIS7_EELb1EEENS5_IS8_EEEC2ERKSC_
FN:1568,_ZNSt3__16__treeINS_12__value_typeINS_12basic_stringIcNS_11char_traitsIcEENS_9allocatorIcEEEEN7testing8internal34TypeParameterizedTestSuiteRegistry30TypeParameterizedTestSuiteInfoEEENS_19__map_value_compareIS7_SC_NS_4lessIS7_EELb1EEENS5_ISC_EEEC1ERKSG_
FNDA:1,_ZNSt3__16__treeINS_12__value_typeINS_12basic_stringIcNS_11char_traitsIcEENS_9allocatorIcEEEEN7testing8internal34TypeParameterizedTestSuiteRegistry30TypeParameterizedTestSuiteInfoEEENS_19__map_value_compareIS7_SC_NS_4lessIS7_EELb1EEENS5_ISC_EEEC1ERKSG_
FN:1568,_ZNSt3__16__treeINS_12__value_typeINS_12basic_stringIcNS_11char_traitsIcEENS_9allocatorIcEEEEN7testing8internal34TypeParameterizedTestSuiteRegistry30TypeParameterizedTestSuiteInfoEEENS_19__map_value_compareIS7_SC_NS_4lessIS7_EELb1EEENS5_ISC_EEEC2ERKSG_
FNDA:1,_ZNSt3__16__treeINS_12__value_typeINS_12basic_stringIcNS_11char_traitsIcEENS_9allocatorIcEEEEN7testing8internal34TypeParameterizedTestSuiteRegistry30TypeParameterizedTestSuiteInfoEEENS_19__map_value_compareIS7_SC_NS_4lessIS7_EELb1EEENS5_ISC_EEEC2ERKSG_
FN:1568,_ZNSt3__16__treeINS_12basic_stringIcNS_11char_traitsIcEENS_9allocatorIcEEEENS_4lessIS6_EENS4_IS6_EEEC1ERKS8_
FNDA:1,_ZNSt3__16__treeINS_12basic_stringIcNS_11char_traitsIcEENS_9allocatorIcEEEENS_4lessIS6_EENS4_IS6_EEEC1ERKS8_
FN:1568,_ZNSt3__16__treeINS_12basic_stringIcNS_11char_traitsIcEENS_9allocatorIcEEEENS_4lessIS6_EENS4_IS6_EEEC2ERKS8_
FNDA:1,_ZNSt3__16__treeINS_12basic_stringIcNS_11char_traitsIcEENS_9allocatorIcEEEENS_4lessIS6_EENS4_IS6_EEEC2ERKS8_
FN:1820,_ZNSt3__16__treeINS_12__value_typeINS_12basic_stringIcNS_11char_traitsIcEENS_9allocatorIcEEEEmEENS_19__map_value_compareIS7_S8_NS_4lessIS7_EELb1EEENS5_IS8_EEED1Ev
FNDA:0,_ZNSt3__16__treeINS_12__value_typeINS_12basic_stringIcNS_11char_traitsIcEENS_9allocatorIcEEEEmEENS_19__map_value_compareIS7_S8_NS_4lessIS7_EELb1EEENS5_IS8_EEED1Ev
FN:1820,_ZNSt3__16__treeINS_12__value_typeINS_12basic_stringIcNS_11char_traitsIcEENS_9allocatorIcEEEEmEENS_19__map_value_compareIS7_S8_NS_4lessIS7_EELb1EEENS5_IS8_EEED2Ev
FNDA:0,_ZNSt3__16__treeINS_12__value_typeINS_12basic_stringIcNS_11char_traitsIcEENS_9allocatorIcEEEEmEENS_19__map_value_compareIS7_S8_NS_4lessIS7_EELb1EEENS5_IS8_EEED2Ev
FN:1820,_ZNSt3__16__treeINS_12__value_typeINS_12basic_stringIcNS_11char_traitsIcEENS_9allocatorIcEEEEN7testing8internal34TypeParameterizedTestSuiteRegistry30TypeParameterizedTestSuiteInfoEEENS_19__map_value_compareIS7_SC_NS_4lessIS7_EELb1EEENS5_ISC_EEED1Ev
FNDA:1,_ZNSt3__16__treeINS_12__value_typeINS_12basic_stringIcNS_11char_traitsIcEENS_9allocatorIcEEEEN7testing8internal34TypeParameterizedTestSuiteRegistry30TypeParameterizedTestSuiteInfoEEENS_19__map_value_compareIS7_SC_NS_4lessIS7_EELb1EEENS5_ISC_EEED1Ev
FN:1820,_ZNSt3__16__treeINS_12__value_typeINS_12basic_stringIcNS_11char_traitsIcEENS_9allocatorIcEEEEN7testing8internal34TypeParameterizedTestSuiteRegistry30TypeParameterizedTestSuiteInfoEEENS_19__map_value_compareIS7_SC_NS_4lessIS7_EELb1EEENS5_ISC_EEED2Ev
FNDA:1,_ZNSt3__16__treeINS_12__value_typeINS_12basic_stringIcNS_11char_traitsIcEENS_9allocatorIcEEEEN7testing8internal34TypeParameterizedTestSuiteRegistry30TypeParameterizedTestSuiteInfoEEENS_19__map_value_compareIS7_SC_NS_4lessIS7_EELb1EEENS5_ISC_EEED2Ev
FN:1820,_ZNSt3__16__treeINS_12basic_stringIcNS_11char_traitsIcEENS_9allocatorIcEEEENS_4lessIS6_EENS4_IS6_EEED1Ev
FNDA:1,_ZNSt3__16__treeINS_12basic_stringIcNS_11char_traitsIcEENS_9allocatorIcEEEENS_4lessIS6_EENS4_IS6_EEED1Ev
FN:1820,_ZNSt3__16__treeINS_12basic_stringIcNS_11char_traitsIcEENS_9allocatorIcEEEENS_4lessIS6_EENS4_IS6_EEED2Ev
FNDA:1,_ZNSt3__16__treeINS_12basic_stringIcNS_11char_traitsIcEENS_9allocatorIcEEEENS_4lessIS6_EENS4_IS6_EEED2Ev
FN:1829,_ZNSt3__16__treeINS_12__value_typeINS_12basic_stringIcNS_11char_traitsIcEENS_9allocatorIcEEEEmEENS_19__map_value_compareIS7_S8_NS_4lessIS7_EELb1EEENS5_IS8_EEE7destroyEPNS_11__tree_nodeIS8_PvEE
FNDA:0,_ZNSt3__16__treeINS_12__value_typeINS_12basic_stringIcNS_11char_traitsIcEENS_9allocatorIcEEEEmEENS_19__map_value_compareIS7_S8_NS_4lessIS7_EELb1EEENS5_IS8_EEE7destroyEPNS_11__tree_nodeIS8_PvEE
FN:1829,_ZNSt3__16__treeINS_12__value_typeINS_12basic_stringIcNS_11char_traitsIcEENS_9allocatorIcEEEEN7testing8internal34TypeParameterizedTestSuiteRegistry30TypeParameterizedTestSuiteInfoEEENS_19__map_value_compareIS7_SC_NS_4lessIS7_EELb1EEENS5_ISC_EEE7destroyEPNS_11__tree_nodeISC_PvEE
FNDA:1,_ZNSt3__16__treeINS_12__value_typeINS_12basic_stringIcNS_11char_traitsIcEENS_9allocatorIcEEEEN7testing8internal34TypeParameterizedTestSuiteRegistry30TypeParameterizedTestSuiteInfoEEENS_19__map_value_compareIS7_SC_NS_4lessIS7_EELb1EEENS5_ISC_EEE7destroyEPNS_11__tree_nodeISC_PvEE
FN:1829,_ZNSt3__16__treeINS_12basic_stringIcNS_11char_traitsIcEENS_9allocatorIcEEEENS_4lessIS6_EENS4_IS6_EEE7destroyEPNS_11__tree_nodeIS6_PvEE
FNDA:1,_ZNSt3__16__treeINS_12basic_stringIcNS_11char_traitsIcEENS_9allocatorIcEEEENS_4lessIS6_EENS4_IS6_EEE7destroyEPNS_11__tree_nodeIS6_PvEE
FN:2001,_ZNSt3__16__treeINS_12__value_typeINS_12basic_stringIcNS_11char_traitsIcEENS_9allocatorIcEEEEmEENS_19__map_value_compareIS7_S8_NS_4lessIS7_EELb1EEENS5_IS8_EEE12__find_equalIS7_EERPNS_16__tree_node_baseIPvEERPNS_15__tree_end_nodeISJ_EERKT_
FNDA:0,_ZNSt3__16__treeINS_12__value_typeINS_12basic_stringIcNS_11char_traitsIcEENS_9allocatorIcEEEEmEENS_19__map_value_compareIS7_S8_NS_4lessIS7_EELb1EEENS5_IS8_EEE12__find_equalIS7_EERPNS_16__tree_node_baseIPvEERPNS_15__tree_end_nodeISJ_EERKT_
FN:2001,_ZNSt3__16__treeINS_12basic_stringIcNS_11char_traitsIcEENS_9allocatorIcEEEENS_4lessIS6_EENS4_IS6_EEE12__find_equalIS6_EERPNS_16__tree_node_baseIPvEERPNS_15__tree_end_nodeISF_EERKT_
FNDA:0,_ZNSt3__16__treeINS_12basic_stringIcNS_11char_traitsIcEENS_9allocatorIcEEEENS_4lessIS6_EENS4_IS6_EEE12__find_equalIS6_EERPNS_16__tree_node_baseIPvEERPNS_15__tree_end_nodeISF_EERKT_
FN:2001,_ZNSt3__16__treeINS_12__value_typeINS_12basic_stringIcNS_11char_traitsIcEENS_9allocatorIcEEEEN7testing8internal34TypeParameterizedTestSuiteRegistry30TypeParameterizedTestSuiteInfoEEENS_19__map_value_compareIS7_SC_NS_4lessIS7_EELb1EEENS5_ISC_EEE12__find_equalIS7_EERPNS_16__tree_node_baseIPvEERPNS_15__tree_end_nodeISN_EERKT_
FNDA:0,_ZNSt3__16__treeINS_12__value_typeINS_12basic_stringIcNS_11char_traitsIcEENS_9allocatorIcEEEEN7testing8internal34TypeParameterizedTestSuiteRegistry30TypeParameterizedTestSuiteInfoEEENS_19__map_value_compareIS7_SC_NS_4lessIS7_EELb1EEENS5_ISC_EEE12__find_equalIS7_EERPNS_16__tree_node_baseIPvEERPNS_15__tree_end_nodeISN_EERKT_
FN:2105,_ZNSt3__16__treeINS_12__value_typeINS_12basic_stringIcNS_11char_traitsIcEENS_9allocatorIcEEEEmEENS_19__map_value_compareIS7_S8_NS_4lessIS7_EELb1EEENS5_IS8_EEE16__insert_node_atEPNS_15__tree_end_nodeIPNS_16__tree_node_baseIPvEEEERSJ_SJ_
FNDA:0,_ZNSt3__16__treeINS_12__value_typeINS_12basic_stringIcNS_11char_traitsIcEENS_9allocatorIcEEEEmEENS_19__map_value_compareIS7_S8_NS_4lessIS7_EELb1EEENS5_IS8_EEE16__insert_node_atEPNS_15__tree_end_nodeIPNS_16__tree_node_baseIPvEEEERSJ_SJ_
FN:2105,_ZNSt3__16__treeINS_12basic_stringIcNS_11char_traitsIcEENS_9allocatorIcEEEENS_4lessIS6_EENS4_IS6_EEE16__insert_node_atEPNS_15__tree_end_nodeIPNS_16__tree_node_baseIPvEEEERSF_SF_
FNDA:0,_ZNSt3__16__treeINS_12basic_stringIcNS_11char_traitsIcEENS_9allocatorIcEEEENS_4lessIS6_EENS4_IS6_EEE16__insert_node_atEPNS_15__tree_end_nodeIPNS_16__tree_node_baseIPvEEEERSF_SF_
FN:2105,_ZNSt3__16__treeINS_12__value_typeINS_12basic_stringIcNS_11char_traitsIcEENS_9allocatorIcEEEEN7testing8internal34TypeParameterizedTestSuiteRegistry30TypeParameterizedTestSuiteInfoEEENS_19__map_value_compareIS7_SC_NS_4lessIS7_EELb1EEENS5_ISC_EEE16__insert_node_atEPNS_15__tree_end_nodeIPNS_16__tree_node_baseIPvEEEERSN_SN_
FNDA:0,_ZNSt3__16__treeINS_12__value_typeINS_12basic_stringIcNS_11char_traitsIcEENS_9allocatorIcEEEEN7testing8internal34TypeParameterizedTestSuiteRegistry30TypeParameterizedTestSuiteInfoEEENS_19__map_value_compareIS7_SC_NS_4lessIS7_EELb1EEENS5_ISC_EEE16__insert_node_atEPNS_15__tree_end_nodeIPNS_16__tree_node_baseIPvEEEERSN_SN_
FN:2124,_ZNSt3__16__treeINS_12__value_typeINS_12basic_stringIcNS_11char_traitsIcEENS_9allocatorIcEEEEmEENS_19__map_value_compareIS7_S8_NS_4lessIS7_EELb1EEENS5_IS8_EEE25__emplace_unique_key_argsIS7_JRKNS_21piecewise_construct_tENS_5tupleIJRKS7_EEENSJ_IJEEEEEENS_4pairINS_15__tree_iteratorIS8_PNS_11__tree_nodeIS8_PvEElEEbEERKT_DpOT0_
FNDA:0,_ZNSt3__16__treeINS_12__value_typeINS_12basic_stringIcNS_11char_traitsIcEENS_9allocatorIcEEEEmEENS_19__map_value_compareIS7_S8_NS_4lessIS7_EELb1EEENS5_IS8_EEE25__emplace_unique_key_argsIS7_JRKNS_21piecewise_construct_tENS_5tupleIJRKS7_EEENSJ_IJEEEEEENS_4pairINS_15__tree_iteratorIS8_PNS_11__tree_nodeIS8_PvEElEEbEERKT_DpOT0_
FN:2124,_ZNSt3__16__treeINS_12basic_stringIcNS_11char_traitsIcEENS_9allocatorIcEEEENS_4lessIS6_EENS4_IS6_EEE25__emplace_unique_key_argsIS6_JS6_EEENS_4pairINS_15__tree_iteratorIS6_PNS_11__tree_nodeIS6_PvEElEEbEERKT_DpOT0_
FNDA:0,_ZNSt3__16__treeINS_12basic_stringIcNS_11char_traitsIcEENS_9allocatorIcEEEENS_4lessIS6_EENS4_IS6_EEE25__emplace_unique_key_argsIS6_JS6_EEENS_4pairINS_15__tree_iteratorIS6_PNS_11__tree_nodeIS6_PvEElEEbEERKT_DpOT0_
FN:2124,_ZNSt3__16__treeINS_12__value_typeINS_12basic_stringIcNS_11char_traitsIcEENS_9allocatorIcEEEEN7testing8internal34TypeParameterizedTestSuiteRegistry30TypeParameterizedTestSuiteInfoEEENS_19__map_value_compareIS7_SC_NS_4lessIS7_EELb1EEENS5_ISC_EEE25__emplace_unique_key_argsIS7_JS7_SB_EEENS_4pairINS_15__tree_iteratorISC_PNS_11__tree_nodeISC_PvEElEEbEERKT_DpOT0_
FNDA:0,_ZNSt3__16__treeINS_12__value_typeINS_12basic_stringIcNS_11char_traitsIcEENS_9allocatorIcEEEEN7testing8internal34TypeParameterizedTestSuiteRegistry30TypeParameterizedTestSuiteInfoEEENS_19__map_value_compareIS7_SC_NS_4lessIS7_EELb1EEENS5_ISC_EEE25__emplace_unique_key_argsIS7_JS7_SB_EEENS_4pairINS_15__tree_iteratorISC_PNS_11__tree_nodeISC_PvEElEEbEERKT_DpOT0_
FN:2124,_ZNSt3__16__treeINS_12basic_stringIcNS_11char_traitsIcEENS_9allocatorIcEEEENS_4lessIS6_EENS4_IS6_EEE25__emplace_unique_key_argsIS6_JRKS6_EEENS_4pairINS_15__tree_iteratorIS6_PNS_11__tree_nodeIS6_PvEElEEbEERKT_DpOT0_
FNDA:0,_ZNSt3__16__treeINS_12basic_stringIcNS_11char_traitsIcEENS_9allocatorIcEEEENS_4lessIS6_EENS4_IS6_EEE25__emplace_unique_key_argsIS6_JRKS6_EEENS_4pairINS_15__tree_iteratorIS6_PNS_11__tree_nodeIS6_PvEElEEbEERKT_DpOT0_
FN:2188,_ZNSt3__16__treeINS_12__value_typeINS_12basic_stringIcNS_11char_traitsIcEENS_9allocatorIcEEEEmEENS_19__map_value_compareIS7_S8_NS_4lessIS7_EELb1EEENS5_IS8_EEE16__construct_nodeIJRKNS_21piecewise_construct_tENS_5tupleIJRKS7_EEENSJ_IJEEEEEENS_10unique_ptrINS_11__tree_nodeIS8_PvEENS_22__tree_node_destructorINS5_ISR_EEEEEEDpOT_
FNDA:0,_ZNSt3__16__treeINS_12__value_typeINS_12basic_stringIcNS_11char_traitsIcEENS_9allocatorIcEEEEmEENS_19__map_value_compareIS7_S8_NS_4lessIS7_EELb1EEENS5_IS8_EEE16__construct_nodeIJRKNS_21piecewise_construct_tENS_5tupleIJRKS7_EEENSJ_IJEEEEEENS_10unique_ptrINS_11__tree_nodeIS8_PvEENS_22__tree_node_destructorINS5_ISR_EEEEEEDpOT_
FN:2188,_ZNSt3__16__treeINS_12basic_stringIcNS_11char_traitsIcEENS_9allocatorIcEEEENS_4lessIS6_EENS4_IS6_EEE16__construct_nodeIJS6_EEENS_10unique_ptrINS_11__tree_nodeIS6_PvEENS_22__tree_node_destructorINS4_ISF_EEEEEEDpOT_
FNDA:0,_ZNSt3__16__treeINS_12basic_stringIcNS_11char_traitsIcEENS_9allocatorIcEEEENS_4lessIS6_EENS4_IS6_EEE16__construct_nodeIJS6_EEENS_10unique_ptrINS_11__tree_nodeIS6_PvEENS_22__tree_node_destructorINS4_ISF_EEEEEEDpOT_
FN:2188,_ZNSt3__16__treeINS_12__value_typeINS_12basic_stringIcNS_11char_traitsIcEENS_9allocatorIcEEEEN7testing8internal34TypeParameterizedTestSuiteRegistry30TypeParameterizedTestSuiteInfoEEENS_19__map_value_compareIS7_SC_NS_4lessIS7_EELb1EEENS5_ISC_EEE16__construct_nodeIJS7_SB_EEENS_10unique_ptrINS_11__tree_nodeISC_PvEENS_22__tree_node_destructorINS5_ISN_EEEEEEDpOT_
FNDA:0,_ZNSt3__16__treeINS_12__value_typeINS_12basic_stringIcNS_11char_traitsIcEENS_9allocatorIcEEEEN7testing8internal34TypeParameterizedTestSuiteRegistry30TypeParameterizedTestSuiteInfoEEENS_19__map_value_compareIS7_SC_NS_4lessIS7_EELb1EEENS5_ISC_EEE16__construct_nodeIJS7_SB_EEENS_10unique_ptrINS_11__tree_nodeISC_PvEENS_22__tree_node_destructorINS5_ISN_EEEEEEDpOT_
FN:2188,_ZNSt3__16__treeINS_12basic_stringIcNS_11char_traitsIcEENS_9allocatorIcEEEENS_4lessIS6_EENS4_IS6_EEE16__construct_nodeIJRKS6_EEENS_10unique_ptrINS_11__tree_nodeIS6_PvEENS_22__tree_node_destructorINS4_ISH_EEEEEEDpOT_
FNDA:0,_ZNSt3__16__treeINS_12basic_stringIcNS_11char_traitsIcEENS_9allocatorIcEEEENS_4lessIS6_EENS4_IS6_EEE16__construct_nodeIJRKS6_EEENS_10unique_ptrINS_11__tree_nodeIS6_PvEENS_22__tree_node_destructorINS4_ISH_EEEEEEDpOT_
FN:2564,_ZNSt3__16__treeINS_12__value_typeINS_12basic_stringIcNS_11char_traitsIcEENS_9allocatorIcEEEEmEENS_19__map_value_compareIS7_S8_NS_4lessIS7_EELb1EEENS5_IS8_EEE4findIS7_EENS_15__tree_iteratorIS8_PNS_11__tree_nodeIS8_PvEElEERKT_
FNDA:0,_ZNSt3__16__treeINS_12__value_typeINS_12basic_stringIcNS_11char_traitsIcEENS_9allocatorIcEEEEmEENS_19__map_value_compareIS7_S8_NS_4lessIS7_EELb1EEENS5_IS8_EEE4findIS7_EENS_15__tree_iteratorIS8_PNS_11__tree_nodeIS8_PvEElEERKT_
FN:2564,_ZNSt3__16__treeINS_12__value_typeINS_12basic_stringIcNS_11char_traitsIcEENS_9allocatorIcEEEEN7testing8internal34TypeParameterizedTestSuiteRegistry30TypeParameterizedTestSuiteInfoEEENS_19__map_value_compareIS7_SC_NS_4lessIS7_EELb1EEENS5_ISC_EEE4findIS7_EENS_15__tree_iteratorISC_PNS_11__tree_nodeISC_PvEElEERKT_
FNDA:0,_ZNSt3__16__treeINS_12__value_typeINS_12basic_stringIcNS_11char_traitsIcEENS_9allocatorIcEEEEN7testing8internal34TypeParameterizedTestSuiteRegistry30TypeParameterizedTestSuiteInfoEEENS_19__map_value_compareIS7_SC_NS_4lessIS7_EELb1EEENS5_ISC_EEE4findIS7_EENS_15__tree_iteratorISC_PNS_11__tree_nodeISC_PvEElEERKT_
FN:2575,_ZNKSt3__16__treeINS_12basic_stringIcNS_11char_traitsIcEENS_9allocatorIcEEEENS_4lessIS6_EENS4_IS6_EEE4findIS6_EENS_21__tree_const_iteratorIS6_PNS_11__tree_nodeIS6_PvEElEERKT_
FNDA:0,_ZNKSt3__16__treeINS_12basic_stringIcNS_11char_traitsIcEENS_9allocatorIcEEEENS_4lessIS6_EENS4_IS6_EEE4findIS6_EENS_21__tree_const_iteratorIS6_PNS_11__tree_nodeIS6_PvEElEERKT_
FN:2586,_ZNKSt3__16__treeINS_12__value_typeINS_12basic_stringIcNS_11char_traitsIcEENS_9allocatorIcEEEEN7testing8internal12CodeLocationEEENS_19__map_value_compareIS7_SB_NS_4lessIS7_EELb1EEENS5_ISB_EEE14__count_uniqueIS7_EEmRKT_
FNDA:0,_ZNKSt3__16__treeINS_12__value_typeINS_12basic_stringIcNS_11char_traitsIcEENS_9allocatorIcEEEEN7testing8internal12CodeLocationEEENS_19__map_value_compareIS7_SB_NS_4lessIS7_EELb1EEENS5_ISB_EEE14__count_uniqueIS7_EEmRKT_
FN:2586,_ZNKSt3__16__treeINS_12basic_stringIcNS_11char_traitsIcEENS_9allocatorIcEEEENS_4lessIS6_EENS4_IS6_EEE14__count_uniqueIS6_EEmRKT_
FNDA:0,_ZNKSt3__16__treeINS_12basic_stringIcNS_11char_traitsIcEENS_9allocatorIcEEEENS_4lessIS6_EENS4_IS6_EEE14__count_uniqueIS6_EEmRKT_
FN:2631,_ZNSt3__16__treeINS_12__value_typeINS_12basic_stringIcNS_11char_traitsIcEENS_9allocatorIcEEEEmEENS_19__map_value_compareIS7_S8_NS_4lessIS7_EELb1EEENS5_IS8_EEE13__lower_boundIS7_EENS_15__tree_iteratorIS8_PNS_11__tree_nodeIS8_PvEElEERKT_SK_PNS_15__tree_end_nodeIPNS_16__tree_node_baseISI_EEEE
FNDA:0,_ZNSt3__16__treeINS_12__value_typeINS_12basic_stringIcNS_11char_traitsIcEENS_9allocatorIcEEEEmEENS_19__map_value_compareIS7_S8_NS_4lessIS7_EELb1EEENS5_IS8_EEE13__lower_boundIS7_EENS_15__tree_iteratorIS8_PNS_11__tree_nodeIS8_PvEElEERKT_SK_PNS_15__tree_end_nodeIPNS_16__tree_node_baseISI_EEEE
FN:2631,_ZNSt3__16__treeINS_12__value_typeINS_12basic_stringIcNS_11char_traitsIcEENS_9allocatorIcEEEEN7testing8internal34TypeParameterizedTestSuiteRegistry30TypeParameterizedTestSuiteInfoEEENS_19__map_value_compareIS7_SC_NS_4lessIS7_EELb1EEENS5_ISC_EEE13__lower_boundIS7_EENS_15__tree_iteratorISC_PNS_11__tree_nodeISC_PvEElEERKT_SO_PNS_15__tree_end_nodeIPNS_16__tree_node_baseISM_EEEE
FNDA:0,_ZNSt3__16__treeINS_12__value_typeINS_12basic_stringIcNS_11char_traitsIcEENS_9allocatorIcEEEEN7testing8internal34TypeParameterizedTestSuiteRegistry30TypeParameterizedTestSuiteInfoEEENS_19__map_value_compareIS7_SC_NS_4lessIS7_EELb1EEENS5_ISC_EEE13__lower_boundIS7_EENS_15__tree_iteratorISC_PNS_11__tree_nodeISC_PvEElEERKT_SO_PNS_15__tree_end_nodeIPNS_16__tree_node_baseISM_EEEE
FN:2651,_ZNKSt3__16__treeINS_12basic_stringIcNS_11char_traitsIcEENS_9allocatorIcEEEENS_4lessIS6_EENS4_IS6_EEE13__lower_boundIS6_EENS_21__tree_const_iteratorIS6_PNS_11__tree_nodeIS6_PvEElEERKT_SG_PNS_15__tree_end_nodeIPNS_16__tree_node_baseISE_EEEE
FNDA:0,_ZNKSt3__16__treeINS_12basic_stringIcNS_11char_traitsIcEENS_9allocatorIcEEEENS_4lessIS6_EENS4_IS6_EEE13__lower_boundIS6_EENS_21__tree_const_iteratorIS6_PNS_11__tree_nodeIS6_PvEElEERKT_SG_PNS_15__tree_end_nodeIPNS_16__tree_node_baseISE_EEEE
DA:79,0
DA:81,0
DA:145,0
DA:147,0
DA:148,0
DA:149,0
DA:180,0
DA:182,0
DA:183,0
DA:184,0
DA:185,0
DA:186,0
DA:187,0
DA:233,0
DA:235,0
DA:236,0
DA:237,0
DA:238,0
DA:239,0
DA:240,0
DA:241,0
DA:243,0
DA:244,0
DA:245,0
DA:246,0
DA:253,0
DA:255,0
DA:256,0
DA:257,0
DA:258,0
DA:259,0
DA:260,0
DA:261,0
DA:263,0
DA:264,0
DA:265,0
DA:266,0
DA:278,0
DA:280,0
DA:281,0
DA:284,0
DA:286,0
DA:287,0
DA:289,0
DA:290,0
DA:291,0
DA:292,0
DA:293,0
DA:294,0
DA:297,0
DA:299,0
DA:300,0
DA:301,0
DA:302,0
DA:303,0
DA:304,0
DA:305,0
DA:306,0
DA:307,0
DA:309,0
DA:312,0
DA:313,0
DA:315,0
DA:316,0
DA:317,0
DA:318,0
DA:319,0
DA:320,0
DA:323,0
DA:325,0
DA:326,0
DA:327,0
DA:328,0
DA:329,0
DA:330,0
DA:331,0
DA:332,0
DA:333,0
DA:337,0
DA:558,0
DA:559,0
DA:566,0
DA:567,0
DA:615,0
DA:616,0
DA:719,4
DA:737,0
DA:740,0
DA:741,0
DA:742,0
DA:787,0
DA:788,0
DA:789,0
DA:790,0
DA:793,0
DA:795,0
DA:796,0
DA:797,0
DA:798,0
DA:799,0
DA:840,0
DA:841,0
DA:842,0
DA:843,0
DA:846,0
DA:847,0
DA:848,0
DA:849,0
DA:866,1
DA:867,1
DA:869,1
DA:870,1
DA:874,0
DA:876,4
DA:878,0
DA:918,0
DA:919,0
DA:921,0
DA:922,0
DA:923,0
DA:924,0
DA:927,0
DA:928,0
DA:929,0
DA:930,0
DA:949,0
DA:950,0
DA:952,0
DA:953,0
DA:960,0
DA:961,0
DA:963,0
DA:1041,3
DA:1043,3
DA:1044,3
DA:1048,2
DA:1050,2
DA:1051,2
DA:1052,2
DA:1057,0
DA:1063,3
DA:1072,0
DA:1075,0
DA:1077,0
DA:1079,0
DA:1080,0
DA:1084,2
DA:1085,2
DA:1087,0
DA:1088,0
DA:1094,2
DA:1122,1
DA:1126,1
DA:1128,0
DA:1181,0
DA:1182,0
DA:1183,0
DA:1268,0
DA:1269,0
DA:1284,0
DA:1285,0
DA:1568,4
DA:1572,2
DA:1573,2
DA:1574,2
DA:1575,4
DA:1820,4
DA:1821,2
DA:1824,2
DA:1825,4
DA:1829,2
DA:1831,2
DA:1833,0
DA:1834,0
DA:1835,0
DA:1836,0
DA:1837,0
DA:1838,0
DA:1839,2
DA:2001,0
DA:2004,0
DA:2005,0
DA:2006,0
DA:2008,0
DA:2010,0
DA:2012,0
DA:2013,0
DA:2014,0
DA:2015,0
DA:2016,0
DA:2017,0
DA:2019,0
DA:2020,0
DA:2022,0
DA:2023,0
DA:2024,0
DA:2025,0
DA:2026,0
DA:2027,0
DA:2029,0
DA:2032,0
DA:2033,0
DA:2037,0
DA:2038,0
DA:2039,0
DA:2105,0
DA:2109,0
DA:2110,0
DA:2111,0
DA:2113,0
DA:2114,0
DA:2115,0
DA:2116,0
DA:2117,0
DA:2118,0
DA:2124,0
DA:2133,0
DA:2134,0
DA:2135,0
DA:2136,0
DA:2139,0
DA:2143,0
DA:2144,0
DA:2145,0
DA:2146,0
DA:2147,0
DA:2188,0
DA:2192,0
DA:2193,0
DA:2194,0
DA:2195,0
DA:2196,0
DA:2197,0
DA:2564,0
DA:2566,0
DA:2567,0
DA:2568,0
DA:2569,0
DA:2570,0
DA:2575,0
DA:2577,0
DA:2578,0
DA:2579,0
DA:2580,0
DA:2581,0
DA:2586,0
DA:2588,0
DA:2589,0
DA:2591,0
DA:2593,0
DA:2594,0
DA:2595,0
DA:2596,0
DA:2598,0
DA:2600,0
DA:2601,0
DA:2631,0
DA:2635,0
DA:2637,0
DA:2639,0
DA:2640,0
DA:2641,0
DA:2643,0
DA:2645,0
DA:2651,0
DA:2655,0
DA:2657,0
DA:2659,0
DA:2660,0
DA:2661,0
DA:2663,0
DA:2665,0
FNF:138
FNH:26
LF:272
LH:31
end_of_record
SF:/Library/Developer/CommandLineTools/SDKs/MacOSX11.3.sdk/usr/include/c++/v1/limits
FN:214,_ZNSt3__123__libcpp_numeric_limitsIlLb1EE3maxEv
FNDA:12,_ZNSt3__123__libcpp_numeric_limitsIlLb1EE3maxEv
FN:378,_ZNSt3__123__libcpp_numeric_limitsIdLb1EE8infinityEv
FNDA:0,_ZNSt3__123__libcpp_numeric_limitsIdLb1EE8infinityEv
FN:451,_ZNSt3__114numeric_limitsIlE3maxEv
FNDA:12,_ZNSt3__114numeric_limitsIlE3maxEv
FN:474,_ZNSt3__114numeric_limitsIdE8infinityEv
FNDA:0,_ZNSt3__114numeric_limitsIdE8infinityEv
DA:214,12
DA:378,0
DA:451,12
DA:474,0
FNF:4
FNH:2
LF:4
LH:2
end_of_record
SF:/Library/Developer/CommandLineTools/SDKs/MacOSX11.3.sdk/usr/include/c++/v1/__locale
FN:248,_ZNSt3__1L9use_facetINS_5ctypeIcEEEERKT_RKNS_6localeE
FNDA:0,_ZNSt3__1L9use_facetINS_5ctypeIcEEEERKT_RKNS_6localeE
FN:685,_ZNKSt3__15ctypeIcE5widenEc
FNDA:0,_ZNKSt3__15ctypeIcE5widenEc
DA:248,0
DA:250,0
DA:685,0
DA:687,0
FNF:2
FNH:0
LF:4
LH:0
end_of_record
SF:/Library/Developer/CommandLineTools/SDKs/MacOSX11.3.sdk/usr/include/c++/v1/set
FN:488,_ZNSt3__13setINS_12basic_stringIcNS_11char_traitsIcEENS_9allocatorIcEEEENS_4lessIS6_EENS4_IS6_EEEC1Ev
FNDA:1,_ZNSt3__13setINS_12basic_stringIcNS_11char_traitsIcEENS_9allocatorIcEEEENS_4lessIS6_EENS4_IS6_EEEC1Ev
FN:488,_ZNSt3__13setINS_12basic_stringIcNS_11char_traitsIcEENS_9allocatorIcEEEENS_4lessIS6_EENS4_IS6_EEEC2Ev
FNDA:1,_ZNSt3__13setINS_12basic_stringIcNS_11char_traitsIcEENS_9allocatorIcEEEENS_4lessIS6_EENS4_IS6_EEEC2Ev
FN:603,_ZNSt3__13setINS_12basic_stringIcNS_11char_traitsIcEENS_9allocatorIcEEEENS_4lessIS6_EENS4_IS6_EEED1Ev
FNDA:1,_ZNSt3__13setINS_12basic_stringIcNS_11char_traitsIcEENS_9allocatorIcEEEENS_4lessIS6_EENS4_IS6_EEED1Ev
FN:603,_ZNSt3__13setINS_12basic_stringIcNS_11char_traitsIcEENS_9allocatorIcEEEENS_4lessIS6_EENS4_IS6_EEED2Ev
FNDA:1,_ZNSt3__13setINS_12basic_stringIcNS_11char_traitsIcEENS_9allocatorIcEEEENS_4lessIS6_EENS4_IS6_EEED2Ev
FN:614,_ZNKSt3__13setINS_12basic_stringIcNS_11char_traitsIcEENS_9allocatorIcEEEENS_4lessIS6_EENS4_IS6_EEE3endEv
FNDA:0,_ZNKSt3__13setINS_12basic_stringIcNS_11char_traitsIcEENS_9allocatorIcEEEENS_4lessIS6_EENS4_IS6_EEE3endEv
FN:658,_ZNSt3__13setINS_12basic_stringIcNS_11char_traitsIcEENS_9allocatorIcEEEENS_4lessIS6_EENS4_IS6_EEE6insertERKS6_
FNDA:0,_ZNSt3__13setINS_12basic_stringIcNS_11char_traitsIcEENS_9allocatorIcEEEENS_4lessIS6_EENS4_IS6_EEE6insertERKS6_
FN:674,_ZNSt3__13setINS_12basic_stringIcNS_11char_traitsIcEENS_9allocatorIcEEEENS_4lessIS6_EENS4_IS6_EEE6insertEOS6_
FNDA:0,_ZNSt3__13setINS_12basic_stringIcNS_11char_traitsIcEENS_9allocatorIcEEEENS_4lessIS6_EENS4_IS6_EEE6insertEOS6_
FN:773,_ZNKSt3__13setINS_12basic_stringIcNS_11char_traitsIcEENS_9allocatorIcEEEENS_4lessIS6_EENS4_IS6_EEE4findERKS6_
FNDA:0,_ZNKSt3__13setINS_12basic_stringIcNS_11char_traitsIcEENS_9allocatorIcEEEENS_4lessIS6_EENS4_IS6_EEE4findERKS6_
FN:786,_ZNKSt3__13setINS_12basic_stringIcNS_11char_traitsIcEENS_9allocatorIcEEEENS_4lessIS6_EENS4_IS6_EEE5countERKS6_
FNDA:0,_ZNKSt3__13setINS_12basic_stringIcNS_11char_traitsIcEENS_9allocatorIcEEEENS_4lessIS6_EENS4_IS6_EEE5countERKS6_
DA:488,2
DA:493,2
DA:603,2
DA:605,2
DA:614,0
DA:658,0
DA:659,0
DA:674,0
DA:675,0
DA:773,0
DA:786,0
DA:787,0
FNF:9
FNH:4
LF:12
LH:4
end_of_record
SF:/Library/Developer/CommandLineTools/SDKs/MacOSX11.3.sdk/usr/include/c++/v1/iomanip
FN:181,_ZNSt3__18__iom_t4IcEC1Ec
FNDA:0,_ZNSt3__18__iom_t4IcEC1Ec
FN:181,_ZNSt3__18__iom_t4IcEC2Ec
FNDA:0,_ZNSt3__18__iom_t4IcEC2Ec
FN:187,_ZNSt3__1lsINS_11char_traitsIcEEEERNS_13basic_ostreamIcT_EES6_RKNS_8__iom_t4IcEE
FNDA:0,_ZNSt3__1lsINS_11char_traitsIcEEEERNS_13basic_ostreamIcT_EES6_RKNS_8__iom_t4IcEE
FN:197,_ZNSt3__1L7setfillIcEENS_8__iom_t4IT_EES2_
FNDA:0,_ZNSt3__1L7setfillIcEENS_8__iom_t4IT_EES2_
FN:209,_ZNSt3__18__iom_t5C1Ei
FNDA:45,_ZNSt3__18__iom_t5C1Ei
FN:209,_ZNSt3__18__iom_t5C2Ei
FNDA:45,_ZNSt3__18__iom_t5C2Ei
FN:225,_ZNSt3__1lsIcNS_11char_traitsIcEEEERNS_13basic_ostreamIT_T0_EES7_RKNS_8__iom_t5E
FNDA:45,_ZNSt3__1lsIcNS_11char_traitsIcEEEERNS_13basic_ostreamIT_T0_EES7_RKNS_8__iom_t5E
FN:234,_ZNSt3__1L12setprecisionEi
FNDA:45,_ZNSt3__1L12setprecisionEi
FN:246,_ZNSt3__18__iom_t6C1Ei
FNDA:0,_ZNSt3__18__iom_t6C1Ei
FN:246,_ZNSt3__18__iom_t6C2Ei
FNDA:0,_ZNSt3__18__iom_t6C2Ei
FN:262,_ZNSt3__1lsIcNS_11char_traitsIcEEEERNS_13basic_ostreamIT_T0_EES7_RKNS_8__iom_t6E
FNDA:0,_ZNSt3__1lsIcNS_11char_traitsIcEEEERNS_13basic_ostreamIT_T0_EES7_RKNS_8__iom_t6E
FN:271,_ZNSt3__1L4setwEi
FNDA:0,_ZNSt3__1L4setwEi
DA:181,0
DA:187,0
DA:189,0
DA:190,0
DA:197,0
DA:199,0
DA:209,90
DA:225,45
DA:227,45
DA:228,45
DA:234,45
DA:236,45
DA:246,0
DA:262,0
DA:264,0
DA:265,0
DA:271,0
DA:273,0
FNF:12
FNH:4
LF:18
LH:6
end_of_record
SF:/Library/Developer/CommandLineTools/SDKs/MacOSX11.3.sdk/usr/include/c++/v1/string
FN:545,_ZNSt3__14fposI11__mbstate_tEC1Ex
FNDA:0,_ZNSt3__14fposI11__mbstate_tEC1Ex
FN:545,_ZNSt3__14fposI11__mbstate_tEC2Ex
FNDA:0,_ZNSt3__14fposI11__mbstate_tEC2Ex
FN:547,_ZNKSt3__14fposI11__mbstate_tEcvxEv
FNDA:0,_ZNKSt3__14fposI11__mbstate_tEcvxEv
FN:816,_ZNSt3__112basic_stringIcNS_11char_traitsIcEENS_9allocatorIcEEEC1IDnEEPKc
FNDA:42,_ZNSt3__112basic_stringIcNS_11char_traitsIcEENS_9allocatorIcEEEC1IDnEEPKc
FN:816,_ZNSt3__112basic_stringIcNS_11char_traitsIcEENS_9allocatorIcEEEC2IDnEEPKc
FNDA:42,_ZNSt3__112basic_stringIcNS_11char_traitsIcEENS_9allocatorIcEEEC2IDnEEPKc
FN:816,_ZNSt3__112basic_stringIwNS_11char_traitsIwEENS_9allocatorIwEEEC1IDnEEPKw
FNDA:0,_ZNSt3__112basic_stringIwNS_11char_traitsIwEENS_9allocatorIwEEEC1IDnEEPKw
FN:816,_ZNSt3__112basic_stringIwNS_11char_traitsIwEENS_9allocatorIwEEEC2IDnEEPKw
FNDA:0,_ZNSt3__112basic_stringIwNS_11char_traitsIwEENS_9allocatorIwEEEC2IDnEEPKw
FN:875,_ZNKSt3__112basic_stringIcNS_11char_traitsIcEENS_9allocatorIcEEEcvNS_17basic_string_viewIcS2_EEEv
FNDA:0,_ZNKSt3__112basic_stringIcNS_11char_traitsIcEENS_9allocatorIcEEEcvNS_17basic_string_viewIcS2_EEEv
FN:890,_ZNSt3__112basic_stringIcNS_11char_traitsIcEENS_9allocatorIcEEEaSEPKc
FNDA:8,_ZNSt3__112basic_stringIcNS_11char_traitsIcEENS_9allocatorIcEEEaSEPKc
FN:908,_ZNSt3__112basic_stringIcNS_11char_traitsIcEENS_9allocatorIcEEE5beginEv
FNDA:10,_ZNSt3__112basic_stringIcNS_11char_traitsIcEENS_9allocatorIcEEE5beginEv
FN:911,_ZNKSt3__112basic_stringIcNS_11char_traitsIcEENS_9allocatorIcEEE5beginEv
FNDA:0,_ZNKSt3__112basic_stringIcNS_11char_traitsIcEENS_9allocatorIcEEE5beginEv
FN:914,_ZNSt3__112basic_stringIcNS_11char_traitsIcEENS_9allocatorIcEEE3endEv
FNDA:2,_ZNSt3__112basic_stringIcNS_11char_traitsIcEENS_9allocatorIcEEE3endEv
FN:917,_ZNKSt3__112basic_stringIcNS_11char_traitsIcEENS_9allocatorIcEEE3endEv
FNDA:0,_ZNKSt3__112basic_stringIcNS_11char_traitsIcEENS_9allocatorIcEEE3endEv
FN:946,_ZNKSt3__112basic_stringIcNS_11char_traitsIcEENS_9allocatorIcEEE4sizeEv
FNDA:536,_ZNKSt3__112basic_stringIcNS_11char_traitsIcEENS_9allocatorIcEEE4sizeEv
FN:946,_ZNKSt3__112basic_stringIDsNS_11char_traitsIDsEENS_9allocatorIDsEEE4sizeEv
FNDA:0,_ZNKSt3__112basic_stringIDsNS_11char_traitsIDsEENS_9allocatorIDsEEE4sizeEv
FN:946,_ZNKSt3__112basic_stringIDiNS_11char_traitsIDiEENS_9allocatorIDiEEE4sizeEv
FNDA:0,_ZNKSt3__112basic_stringIDiNS_11char_traitsIDiEENS_9allocatorIDiEEE4sizeEv
FN:946,_ZNKSt3__112basic_stringIwNS_11char_traitsIwEENS_9allocatorIwEEE4sizeEv
FNDA:0,_ZNKSt3__112basic_stringIwNS_11char_traitsIwEENS_9allocatorIwEEE4sizeEv
FN:948,_ZNKSt3__112basic_stringIwNS_11char_traitsIwEENS_9allocatorIwEEE6lengthEv
FNDA:0,_ZNKSt3__112basic_stringIwNS_11char_traitsIwEENS_9allocatorIwEEE6lengthEv
FN:948,_ZNKSt3__112basic_stringIcNS_11char_traitsIcEENS_9allocatorIcEEE6lengthEv
FNDA:491,_ZNKSt3__112basic_stringIcNS_11char_traitsIcEENS_9allocatorIcEEE6lengthEv
FN:950,_ZNKSt3__112basic_stringIcNS_11char_traitsIcEENS_9allocatorIcEEE8capacityEv
FNDA:0,_ZNKSt3__112basic_stringIcNS_11char_traitsIcEENS_9allocatorIcEEE8capacityEv
FN:955,_ZNSt3__112basic_stringIcNS_11char_traitsIcEENS_9allocatorIcEEE6resizeEm
FNDA:0,_ZNSt3__112basic_stringIcNS_11char_traitsIcEENS_9allocatorIcEEE6resizeEm
FN:967,_ZNKSt3__112basic_stringIcNS_11char_traitsIcEENS_9allocatorIcEEE5emptyEv
FNDA:7,_ZNKSt3__112basic_stringIcNS_11char_traitsIcEENS_9allocatorIcEEE5emptyEv
FN:975,_ZNSt3__112basic_stringIcNS_11char_traitsIcEENS_9allocatorIcEEEpLERKS5_
FNDA:0,_ZNSt3__112basic_stringIcNS_11char_traitsIcEENS_9allocatorIcEEEpLERKS5_
FN:986,_ZNSt3__112basic_stringIcNS_11char_traitsIcEENS_9allocatorIcEEEpLEPKc
FNDA:0,_ZNSt3__112basic_stringIcNS_11char_traitsIcEENS_9allocatorIcEEEpLEPKc
FN:987,_ZNSt3__112basic_stringIcNS_11char_traitsIcEENS_9allocatorIcEEEpLEc
FNDA:931,_ZNSt3__112basic_stringIcNS_11char_traitsIcEENS_9allocatorIcEEEpLEc
FN:1243,_ZNKSt3__112basic_stringIcNS_11char_traitsIcEENS_9allocatorIcEEE5c_strEv
FNDA:560,_ZNKSt3__112basic_stringIcNS_11char_traitsIcEENS_9allocatorIcEEE5c_strEv
FN:1243,_ZNKSt3__112basic_stringIwNS_11char_traitsIwEENS_9allocatorIwEEE5c_strEv
FNDA:0,_ZNKSt3__112basic_stringIwNS_11char_traitsIwEENS_9allocatorIwEEE5c_strEv
FN:1245,_ZNKSt3__112basic_stringIcNS_11char_traitsIcEENS_9allocatorIcEEE4dataEv
FNDA:564,_ZNKSt3__112basic_stringIcNS_11char_traitsIcEENS_9allocatorIcEEE4dataEv
FN:1245,_ZNKSt3__112basic_stringIDsNS_11char_traitsIDsEENS_9allocatorIDsEEE4dataEv
FNDA:0,_ZNKSt3__112basic_stringIDsNS_11char_traitsIDsEENS_9allocatorIDsEEE4dataEv
FN:1245,_ZNKSt3__112basic_stringIDiNS_11char_traitsIDiEENS_9allocatorIDiEEE4dataEv
FNDA:0,_ZNKSt3__112basic_stringIDiNS_11char_traitsIDiEENS_9allocatorIDiEEE4dataEv
FN:1245,_ZNKSt3__112basic_stringIwNS_11char_traitsIwEENS_9allocatorIwEEE4dataEv
FNDA:0,_ZNKSt3__112basic_stringIwNS_11char_traitsIwEENS_9allocatorIwEEE4dataEv
FN:1252,_ZNKSt3__112basic_stringIcNS_11char_traitsIcEENS_9allocatorIcEEE13get_allocatorEv
FNDA:4,_ZNKSt3__112basic_stringIcNS_11char_traitsIcEENS_9allocatorIcEEE13get_allocatorEv
FN:1422,_ZNKSt3__112basic_stringIcNS_11char_traitsIcEENS_9allocatorIcEEE9__is_longEv
FNDA:1112,_ZNKSt3__112basic_stringIcNS_11char_traitsIcEENS_9allocatorIcEEE9__is_longEv
FN:1422,_ZNKSt3__112basic_stringIDsNS_11char_traitsIDsEENS_9allocatorIDsEEE9__is_longEv
FNDA:0,_ZNKSt3__112basic_stringIDsNS_11char_traitsIDsEENS_9allocatorIDsEEE9__is_longEv
FN:1422,_ZNKSt3__112basic_stringIDiNS_11char_traitsIDiEENS_9allocatorIDiEEE9__is_longEv
FNDA:0,_ZNKSt3__112basic_stringIDiNS_11char_traitsIDiEENS_9allocatorIDiEEE9__is_longEv
FN:1422,_ZNKSt3__112basic_stringIwNS_11char_traitsIwEENS_9allocatorIwEEE9__is_longEv
FNDA:0,_ZNKSt3__112basic_stringIwNS_11char_traitsIwEENS_9allocatorIwEEE9__is_longEv
FN:1436,_ZNSt3__112basic_stringIcNS_11char_traitsIcEENS_9allocatorIcEEE7__allocEv
FNDA:0,_ZNSt3__112basic_stringIcNS_11char_traitsIcEENS_9allocatorIcEEE7__allocEv
FN:1439,_ZNKSt3__112basic_stringIcNS_11char_traitsIcEENS_9allocatorIcEEE7__allocEv
FNDA:4,_ZNKSt3__112basic_stringIcNS_11char_traitsIcEENS_9allocatorIcEEE7__allocEv
FN:1445,_ZNSt3__112basic_stringIcNS_11char_traitsIcEENS_9allocatorIcEEE16__set_short_sizeEm
FNDA:0,_ZNSt3__112basic_stringIcNS_11char_traitsIcEENS_9allocatorIcEEE16__set_short_sizeEm
FN:1453,_ZNKSt3__112basic_stringIcNS_11char_traitsIcEENS_9allocatorIcEEE16__get_short_sizeEv
FNDA:92,_ZNKSt3__112basic_stringIcNS_11char_traitsIcEENS_9allocatorIcEEE16__get_short_sizeEv
FN:1453,_ZNKSt3__112basic_stringIDsNS_11char_traitsIDsEENS_9allocatorIDsEEE16__get_short_sizeEv
FNDA:0,_ZNKSt3__112basic_stringIDsNS_11char_traitsIDsEENS_9allocatorIDsEEE16__get_short_sizeEv
FN:1453,_ZNKSt3__112basic_stringIDiNS_11char_traitsIDiEENS_9allocatorIDiEEE16__get_short_sizeEv
FNDA:0,_ZNKSt3__112basic_stringIDiNS_11char_traitsIDiEENS_9allocatorIDiEEE16__get_short_sizeEv
FN:1453,_ZNKSt3__112basic_stringIwNS_11char_traitsIwEENS_9allocatorIwEEE16__get_short_sizeEv
FNDA:0,_ZNKSt3__112basic_stringIwNS_11char_traitsIwEENS_9allocatorIwEEE16__get_short_sizeEv
FN:1481,_ZNSt3__112basic_stringIcNS_11char_traitsIcEENS_9allocatorIcEEE15__set_long_sizeEm
FNDA:0,_ZNSt3__112basic_stringIcNS_11char_traitsIcEENS_9allocatorIcEEE15__set_long_sizeEm
FN:1484,_ZNKSt3__112basic_stringIcNS_11char_traitsIcEENS_9allocatorIcEEE15__get_long_sizeEv
FNDA:444,_ZNKSt3__112basic_stringIcNS_11char_traitsIcEENS_9allocatorIcEEE15__get_long_sizeEv
FN:1484,_ZNKSt3__112basic_stringIDsNS_11char_traitsIDsEENS_9allocatorIDsEEE15__get_long_sizeEv
FNDA:0,_ZNKSt3__112basic_stringIDsNS_11char_traitsIDsEENS_9allocatorIDsEEE15__get_long_sizeEv
FN:1484,_ZNKSt3__112basic_stringIDiNS_11char_traitsIDiEENS_9allocatorIDiEEE15__get_long_sizeEv
FNDA:0,_ZNKSt3__112basic_stringIDiNS_11char_traitsIDiEENS_9allocatorIDiEEE15__get_long_sizeEv
FN:1484,_ZNKSt3__112basic_stringIwNS_11char_traitsIwEENS_9allocatorIwEEE15__get_long_sizeEv
FNDA:0,_ZNKSt3__112basic_stringIwNS_11char_traitsIwEENS_9allocatorIwEEE15__get_long_sizeEv
FN:1491,_ZNSt3__112basic_stringIcNS_11char_traitsIcEENS_9allocatorIcEEE14__set_long_capEm
FNDA:0,_ZNSt3__112basic_stringIcNS_11char_traitsIcEENS_9allocatorIcEEE14__set_long_capEm
FN:1494,_ZNKSt3__112basic_stringIcNS_11char_traitsIcEENS_9allocatorIcEEE14__get_long_capEv
FNDA:0,_ZNKSt3__112basic_stringIcNS_11char_traitsIcEENS_9allocatorIcEEE14__get_long_capEv
FN:1498,_ZNSt3__112basic_stringIcNS_11char_traitsIcEENS_9allocatorIcEEE18__set_long_pointerEPc
FNDA:0,_ZNSt3__112basic_stringIcNS_11char_traitsIcEENS_9allocatorIcEEE18__set_long_pointerEPc
FN:1501,_ZNSt3__112basic_stringIcNS_11char_traitsIcEENS_9allocatorIcEEE18__get_long_pointerEv
FNDA:12,_ZNSt3__112basic_stringIcNS_11char_traitsIcEENS_9allocatorIcEEE18__get_long_pointerEv
FN:1504,_ZNKSt3__112basic_stringIcNS_11char_traitsIcEENS_9allocatorIcEEE18__get_long_pointerEv
FNDA:442,_ZNKSt3__112basic_stringIcNS_11char_traitsIcEENS_9allocatorIcEEE18__get_long_pointerEv
FN:1504,_ZNKSt3__112basic_stringIDsNS_11char_traitsIDsEENS_9allocatorIDsEEE18__get_long_pointerEv
FNDA:0,_ZNKSt3__112basic_stringIDsNS_11char_traitsIDsEENS_9allocatorIDsEEE18__get_long_pointerEv
FN:1504,_ZNKSt3__112basic_stringIDiNS_11char_traitsIDiEENS_9allocatorIDiEEE18__get_long_pointerEv
FNDA:0,_ZNKSt3__112basic_stringIDiNS_11char_traitsIDiEENS_9allocatorIDiEEE18__get_long_pointerEv
FN:1504,_ZNKSt3__112basic_stringIwNS_11char_traitsIwEENS_9allocatorIwEEE18__get_long_pointerEv
FNDA:0,_ZNKSt3__112basic_stringIwNS_11char_traitsIwEENS_9allocatorIwEEE18__get_long_pointerEv
FN:1507,_ZNSt3__112basic_stringIcNS_11char_traitsIcEENS_9allocatorIcEEE19__get_short_pointerEv
FNDA:0,_ZNSt3__112basic_stringIcNS_11char_traitsIcEENS_9allocatorIcEEE19__get_short_pointerEv
FN:1510,_ZNKSt3__112basic_stringIcNS_11char_traitsIcEENS_9allocatorIcEEE19__get_short_pointerEv
FNDA:122,_ZNKSt3__112basic_stringIcNS_11char_traitsIcEENS_9allocatorIcEEE19__get_short_pointerEv
FN:1510,_ZNKSt3__112basic_stringIDsNS_11char_traitsIDsEENS_9allocatorIDsEEE19__get_short_pointerEv
FNDA:0,_ZNKSt3__112basic_stringIDsNS_11char_traitsIDsEENS_9allocatorIDsEEE19__get_short_pointerEv
FN:1510,_ZNKSt3__112basic_stringIDiNS_11char_traitsIDiEENS_9allocatorIDiEEE19__get_short_pointerEv
FNDA:0,_ZNKSt3__112basic_stringIDiNS_11char_traitsIDiEENS_9allocatorIDiEEE19__get_short_pointerEv
FN:1510,_ZNKSt3__112basic_stringIwNS_11char_traitsIwEENS_9allocatorIwEEE19__get_short_pointerEv
FNDA:0,_ZNKSt3__112basic_stringIwNS_11char_traitsIwEENS_9allocatorIwEEE19__get_short_pointerEv
FN:1513,_ZNSt3__112basic_stringIcNS_11char_traitsIcEENS_9allocatorIcEEE13__get_pointerEv
FNDA:12,_ZNSt3__112basic_stringIcNS_11char_traitsIcEENS_9allocatorIcEEE13__get_pointerEv
FN:1516,_ZNKSt3__112basic_stringIcNS_11char_traitsIcEENS_9allocatorIcEEE13__get_pointerEv
FNDA:564,_ZNKSt3__112basic_stringIcNS_11char_traitsIcEENS_9allocatorIcEEE13__get_pointerEv
FN:1516,_ZNKSt3__112basic_stringIDsNS_11char_traitsIDsEENS_9allocatorIDsEEE13__get_pointerEv
FNDA:0,_ZNKSt3__112basic_stringIDsNS_11char_traitsIDsEENS_9allocatorIDsEEE13__get_pointerEv
FN:1516,_ZNKSt3__112basic_stringIDiNS_11char_traitsIDiEENS_9allocatorIDiEEE13__get_pointerEv
FNDA:0,_ZNKSt3__112basic_stringIDiNS_11char_traitsIDiEENS_9allocatorIDiEEE13__get_pointerEv
FN:1516,_ZNKSt3__112basic_stringIwNS_11char_traitsIwEENS_9allocatorIwEEE13__get_pointerEv
FNDA:0,_ZNKSt3__112basic_stringIwNS_11char_traitsIwEENS_9allocatorIwEEE13__get_pointerEv
FN:1520,_ZNSt3__112basic_stringIcNS_11char_traitsIcEENS_9allocatorIcEEE6__zeroEv
FNDA:131,_ZNSt3__112basic_stringIcNS_11char_traitsIcEENS_9allocatorIcEEE6__zeroEv
FN:1529,_ZNSt3__112basic_stringIcNS_11char_traitsIcEENS_9allocatorIcEEE10__align_itILm16EEEmm
FNDA:0,_ZNSt3__112basic_stringIcNS_11char_traitsIcEENS_9allocatorIcEEE10__align_itILm16EEEmm
FN:1533,_ZNSt3__112basic_stringIcNS_11char_traitsIcEENS_9allocatorIcEEE11__recommendEm
FNDA:0,_ZNSt3__112basic_stringIcNS_11char_traitsIcEENS_9allocatorIcEEE11__recommendEm
FN:1643,_ZNSt3__112basic_stringIcNS_11char_traitsIcEENS_9allocatorIcEEE19__move_assign_allocERS5_
FNDA:0,_ZNSt3__112basic_stringIcNS_11char_traitsIcEENS_9allocatorIcEEE19__move_assign_allocERS5_
FN:1651,_ZNSt3__112basic_stringIcNS_11char_traitsIcEENS_9allocatorIcEEE19__move_assign_allocERS5_NS_17integral_constantIbLb1EEE
FNDA:0,_ZNSt3__112basic_stringIcNS_11char_traitsIcEENS_9allocatorIcEEE19__move_assign_allocERS5_NS_17integral_constantIbLb1EEE
FN:1766,_ZNSt3__112basic_stringIcNS_11char_traitsIcEENS_9allocatorIcEEEC1Ev
FNDA:100,_ZNSt3__112basic_stringIcNS_11char_traitsIcEENS_9allocatorIcEEEC1Ev
FN:1766,_ZNSt3__112basic_stringIcNS_11char_traitsIcEENS_9allocatorIcEEEC2Ev
FNDA:100,_ZNSt3__112basic_stringIcNS_11char_traitsIcEENS_9allocatorIcEEEC2Ev
FN:1778,_ZNSt3__112basic_stringIcNS_11char_traitsIcEENS_9allocatorIcEEEC1ERKS4_
FNDA:4,_ZNSt3__112basic_stringIcNS_11char_traitsIcEENS_9allocatorIcEEEC1ERKS4_
FN:1778,_ZNSt3__112basic_stringIcNS_11char_traitsIcEENS_9allocatorIcEEEC2ERKS4_
FNDA:4,_ZNSt3__112basic_stringIcNS_11char_traitsIcEENS_9allocatorIcEEEC2ERKS4_
FN:1855,_ZNSt3__112basic_stringIcNS_11char_traitsIcEENS_9allocatorIcEEEC1EPKcm
FNDA:0,_ZNSt3__112basic_stringIcNS_11char_traitsIcEENS_9allocatorIcEEEC1EPKcm
FN:1855,_ZNSt3__112basic_stringIcNS_11char_traitsIcEENS_9allocatorIcEEEC2EPKcm
FNDA:0,_ZNSt3__112basic_stringIcNS_11char_traitsIcEENS_9allocatorIcEEEC2EPKcm
FN:1930,_ZNSt3__112basic_stringIcNS_11char_traitsIcEENS_9allocatorIcEEEC1EOS5_
FNDA:27,_ZNSt3__112basic_stringIcNS_11char_traitsIcEENS_9allocatorIcEEEC1EOS5_
FN:1930,_ZNSt3__112basic_stringIcNS_11char_traitsIcEENS_9allocatorIcEEEC2EOS5_
FNDA:27,_ZNSt3__112basic_stringIcNS_11char_traitsIcEENS_9allocatorIcEEEC2EOS5_
FN:1993,_ZNSt3__112basic_stringIcNS_11char_traitsIcEENS_9allocatorIcEEEC1Emc
FNDA:0,_ZNSt3__112basic_stringIcNS_11char_traitsIcEENS_9allocatorIcEEEC1Emc
FN:1993,_ZNSt3__112basic_stringIcNS_11char_traitsIcEENS_9allocatorIcEEEC2Emc
FNDA:0,_ZNSt3__112basic_stringIcNS_11char_traitsIcEENS_9allocatorIcEEEC2Emc
FN:2113,_ZNSt3__112basic_stringIcNS_11char_traitsIcEENS_9allocatorIcEEE6__initIPKcEENS_9_MetaBaseIXsr27__is_cpp17_forward_iteratorIT_EE5valueEE13_EnableIfImplIvEESA_SA_
FNDA:0,_ZNSt3__112basic_stringIcNS_11char_traitsIcEENS_9allocatorIcEEE6__initIPKcEENS_9_MetaBaseIXsr27__is_cpp17_forward_iteratorIT_EE5valueEE13_EnableIfImplIvEESA_SA_
FN:2113,_ZNSt3__112basic_stringIcNS_11char_traitsIcEENS_9allocatorIcEEE6__initIPcEENS_9_MetaBaseIXsr27__is_cpp17_forward_iteratorIT_EE5valueEE13_EnableIfImplIvEES9_S9_
FNDA:0,_ZNSt3__112basic_stringIcNS_11char_traitsIcEENS_9allocatorIcEEE6__initIPcEENS_9_MetaBaseIXsr27__is_cpp17_forward_iteratorIT_EE5valueEE13_EnableIfImplIvEES9_S9_
FN:2140,_ZNSt3__112basic_stringIcNS_11char_traitsIcEENS_9allocatorIcEEEC1IPKcvEET_S9_
FNDA:0,_ZNSt3__112basic_stringIcNS_11char_traitsIcEENS_9allocatorIcEEEC1IPKcvEET_S9_
FN:2140,_ZNSt3__112basic_stringIcNS_11char_traitsIcEENS_9allocatorIcEEEC2IPKcvEET_S9_
FNDA:0,_ZNSt3__112basic_stringIcNS_11char_traitsIcEENS_9allocatorIcEEEC2IPKcvEET_S9_
FN:2152,_ZNSt3__112basic_stringIcNS_11char_traitsIcEENS_9allocatorIcEEEC1IPcvEET_S8_RKS4_
FNDA:0,_ZNSt3__112basic_stringIcNS_11char_traitsIcEENS_9allocatorIcEEEC1IPcvEET_S8_RKS4_
FN:2152,_ZNSt3__112basic_stringIcNS_11char_traitsIcEENS_9allocatorIcEEEC2IPcvEET_S8_RKS4_
FNDA:0,_ZNSt3__112basic_stringIcNS_11char_traitsIcEENS_9allocatorIcEEEC2IPcvEET_S8_RKS4_
FN:2387,_ZNSt3__112basic_stringIcNS_11char_traitsIcEENS_9allocatorIcEEE13__move_assignERS5_NS_17integral_constantIbLb1EEE
FNDA:0,_ZNSt3__112basic_stringIcNS_11char_traitsIcEENS_9allocatorIcEEE13__move_assignERS5_NS_17integral_constantIbLb1EEE
FN:2413,_ZNSt3__112basic_stringIcNS_11char_traitsIcEENS_9allocatorIcEEEaSEOS5_
FNDA:0,_ZNSt3__112basic_stringIcNS_11char_traitsIcEENS_9allocatorIcEEEaSEOS5_
FN:2657,_ZNSt3__112basic_stringIcNS_11char_traitsIcEENS_9allocatorIcEEE6appendERKS5_
FNDA:0,_ZNSt3__112basic_stringIcNS_11char_traitsIcEENS_9allocatorIcEEE6appendERKS5_
FN:3138,_ZNSt3__112basic_stringIcNS_11char_traitsIcEENS_9allocatorIcEEE5eraseENS_11__wrap_iterIPKcEE
FNDA:0,_ZNSt3__112basic_stringIcNS_11char_traitsIcEENS_9allocatorIcEEE5eraseENS_11__wrap_iterIPKcEE
FN:3156,_ZNSt3__112basic_stringIcNS_11char_traitsIcEENS_9allocatorIcEEE5eraseENS_11__wrap_iterIPKcEES9_
FNDA:1,_ZNSt3__112basic_stringIcNS_11char_traitsIcEENS_9allocatorIcEEE5eraseENS_11__wrap_iterIPKcEES9_
FN:3253,_ZNKSt3__112basic_stringIcNS_11char_traitsIcEENS_9allocatorIcEEE8max_sizeEv
FNDA:0,_ZNKSt3__112basic_stringIcNS_11char_traitsIcEENS_9allocatorIcEEE8max_sizeEv
FN:3329,_ZNKSt3__112basic_stringIcNS_11char_traitsIcEENS_9allocatorIcEEEixEm
FNDA:0,_ZNKSt3__112basic_stringIcNS_11char_traitsIcEENS_9allocatorIcEEEixEm
FN:3413,_ZNKSt3__112basic_stringIcNS_11char_traitsIcEENS_9allocatorIcEEE6substrEmm
FNDA:0,_ZNKSt3__112basic_stringIcNS_11char_traitsIcEENS_9allocatorIcEEE6substrEmm
FN:3421,_ZNSt3__112basic_stringIcNS_11char_traitsIcEENS_9allocatorIcEEE4swapERS5_
FNDA:0,_ZNSt3__112basic_stringIcNS_11char_traitsIcEENS_9allocatorIcEEE4swapERS5_
FN:3469,_ZNKSt3__112basic_stringIcNS_11char_traitsIcEENS_9allocatorIcEEE4findERKS5_m
FNDA:0,_ZNKSt3__112basic_stringIcNS_11char_traitsIcEENS_9allocatorIcEEE4findERKS5_m
FN:3469,_ZNKSt3__112basic_stringIwNS_11char_traitsIwEENS_9allocatorIwEEE4findERKS5_m
FNDA:0,_ZNKSt3__112basic_stringIwNS_11char_traitsIwEENS_9allocatorIwEEE4findERKS5_m
FN:3812,_ZNKSt3__112basic_stringIcNS_11char_traitsIcEENS_9allocatorIcEEE7compareINS_17basic_string_viewIcS2_EEEENS_9_MetaBaseIXsr33__can_be_converted_to_string_viewIcS2_T_EE5valueEE13_EnableIfImplIiEERKSA_
FNDA:0,_ZNKSt3__112basic_stringIcNS_11char_traitsIcEENS_9allocatorIcEEE7compareINS_17basic_string_viewIcS2_EEEENS_9_MetaBaseIXsr33__can_be_converted_to_string_viewIcS2_T_EE5valueEE13_EnableIfImplIiEERKSA_
FN:3831,_ZNKSt3__112basic_stringIcNS_11char_traitsIcEENS_9allocatorIcEEE7compareERKS5_
FNDA:0,_ZNKSt3__112basic_stringIcNS_11char_traitsIcEENS_9allocatorIcEEE7compareERKS5_
FN:3982,_ZNSt3__1eqINS_9allocatorIcEEEEbRKNS_12basic_stringIcNS_11char_traitsIcEET_EES9_
FNDA:0,_ZNSt3__1eqINS_9allocatorIcEEEEbRKNS_12basic_stringIcNS_11char_traitsIcEET_EES9_
FN:4001,_ZNSt3__1eqIcNS_11char_traitsIcEENS_9allocatorIcEEEEbPKT_RKNS_12basic_stringIS5_T0_T1_EE
FNDA:0,_ZNSt3__1eqIcNS_11char_traitsIcEENS_9allocatorIcEEEEbPKT_RKNS_12basic_stringIS5_T0_T1_EE
FN:4014,_ZNSt3__1eqIcNS_11char_traitsIcEENS_9allocatorIcEEEEbRKNS_12basic_stringIT_T0_T1_EEPKS6_
FNDA:6,_ZNSt3__1eqIcNS_11char_traitsIcEENS_9allocatorIcEEEEbRKNS_12basic_stringIT_T0_T1_EEPKS6_
FN:4045,_ZNSt3__1neIcNS_11char_traitsIcEENS_9allocatorIcEEEEbRKNS_12basic_stringIT_T0_T1_EEPKS6_
FNDA:1,_ZNSt3__1neIcNS_11char_traitsIcEENS_9allocatorIcEEEEbRKNS_12basic_stringIT_T0_T1_EEPKS6_
FN:4056,_ZNSt3__1ltIcNS_11char_traitsIcEENS_9allocatorIcEEEEbRKNS_12basic_stringIT_T0_T1_EESB_
FNDA:0,_ZNSt3__1ltIcNS_11char_traitsIcEENS_9allocatorIcEEEEbRKNS_12basic_stringIT_T0_T1_EESB_
FN:4208,_ZNSt3__1plIcNS_11char_traitsIcEENS_9allocatorIcEEEENS_12basic_stringIT_T0_T1_EERKS9_PKS6_
FNDA:4,_ZNSt3__1plIcNS_11char_traitsIcEENS_9allocatorIcEEEENS_12basic_stringIT_T0_T1_EERKS9_PKS6_
FN:4220,_ZNSt3__1plIcNS_11char_traitsIcEENS_9allocatorIcEEEENS_12basic_stringIT_T0_T1_EERKS9_S6_
FNDA:0,_ZNSt3__1plIcNS_11char_traitsIcEENS_9allocatorIcEEEENS_12basic_stringIT_T0_T1_EERKS9_S6_
FN:4234,_ZNSt3__1plIcNS_11char_traitsIcEENS_9allocatorIcEEEENS_12basic_stringIT_T0_T1_EEOS9_RKS9_
FNDA:0,_ZNSt3__1plIcNS_11char_traitsIcEENS_9allocatorIcEEEENS_12basic_stringIT_T0_T1_EEOS9_RKS9_
FN:4250,_ZNSt3__1plIcNS_11char_traitsIcEENS_9allocatorIcEEEENS_12basic_stringIT_T0_T1_EEOS9_SA_
FNDA:0,_ZNSt3__1plIcNS_11char_traitsIcEENS_9allocatorIcEEEENS_12basic_stringIT_T0_T1_EEOS9_SA_
FN:4258,_ZNSt3__1plIcNS_11char_traitsIcEENS_9allocatorIcEEEENS_12basic_stringIT_T0_T1_EEPKS6_OS9_
FNDA:0,_ZNSt3__1plIcNS_11char_traitsIcEENS_9allocatorIcEEEENS_12basic_stringIT_T0_T1_EEPKS6_OS9_
FN:4275,_ZNSt3__1plIcNS_11char_traitsIcEENS_9allocatorIcEEEENS_12basic_stringIT_T0_T1_EEOS9_PKS6_
FNDA:24,_ZNSt3__1plIcNS_11char_traitsIcEENS_9allocatorIcEEEENS_12basic_stringIT_T0_T1_EEOS9_PKS6_
DA:545,0
DA:547,0
DA:816,84
DA:818,42
DA:822,84
DA:875,0
DA:890,8
DA:908,10
DA:909,10
DA:911,0
DA:912,0
DA:914,2
DA:915,2
DA:917,0
DA:918,0
DA:946,536
DA:947,536
DA:948,491
DA:950,0
DA:951,0
DA:952,0
DA:955,0
DA:967,7
DA:975,0
DA:986,0
DA:987,931
DA:1243,560
DA:1245,564
DA:1252,4
DA:1422,1112
DA:1423,1112
DA:1436,0
DA:1437,0
DA:1439,4
DA:1440,4
DA:1445,0
DA:1449,0
DA:1453,92
DA:1457,92
DA:1481,0
DA:1482,0
DA:1484,444
DA:1485,444
DA:1491,0
DA:1492,0
DA:1494,0
DA:1495,0
DA:1498,0
DA:1499,0
DA:1501,12
DA:1502,12
DA:1504,442
DA:1505,442
DA:1507,0
DA:1508,0
DA:1510,122
DA:1511,122
DA:1513,12
DA:1514,12
DA:1516,564
DA:1517,564
DA:1520,131
DA:1522,131
DA:1523,524
DA:1524,393
DA:1525,131
DA:1529,0
DA:1530,0
DA:1533,0
DA:1535,0
DA:1536,0
DA:1537,0
DA:1538,0
DA:1539,0
DA:1540,0
DA:1643,0
DA:1647,0
DA:1648,0
DA:1651,0
DA:1654,0
DA:1655,0
DA:1766,200
DA:1768,100
DA:1769,200
DA:1773,100
DA:1774,200
DA:1778,8
DA:1784,4
DA:1785,8
DA:1789,4
DA:1790,8
DA:1855,0
DA:1856,0
DA:1857,0
DA:1859,0
DA:1863,0
DA:1930,54
DA:1936,27
DA:1937,54
DA:1938,27
DA:1944,54
DA:1993,0
DA:1994,0
DA:1995,0
DA:1996,0
DA:2000,0
DA:2113,0
DA:2115,0
DA:2116,0
DA:2117,0
DA:2119,0
DA:2121,0
DA:2122,0
DA:2123,0
DA:2126,0
DA:2127,0
DA:2128,0
DA:2129,0
DA:2130,0
DA:2132,0
DA:2133,0
DA:2134,0
DA:2135,0
DA:2140,0
DA:2141,0
DA:2142,0
DA:2143,0
DA:2147,0
DA:2152,0
DA:2154,0
DA:2155,0
DA:2156,0
DA:2160,0
DA:2387,0
DA:2394,0
DA:2395,0
DA:2396,0
DA:2403,0
DA:2404,0
DA:2405,0
DA:2406,0
DA:2407,0
DA:2408,0
DA:2413,0
DA:2416,0
DA:2418,0
DA:2657,0
DA:2659,0
DA:3138,0
DA:3147,0
DA:3148,0
DA:3149,0
DA:3150,0
DA:3156,1
DA:3164,1
DA:3165,1
DA:3166,1
DA:3167,1
DA:3253,0
DA:3255,0
DA:3259,0
DA:3329,0
DA:3332,0
DA:3413,0
DA:3415,0
DA:3421,0
DA:3440,0
DA:3441,0
DA:3442,0
DA:3469,0
DA:3472,0
DA:3473,0
DA:3812,0
DA:3814,0
DA:3815,0
DA:3816,0
DA:3817,0
DA:3818,0
DA:3819,0
DA:3820,0
DA:3821,0
DA:3822,0
DA:3823,0
DA:3824,0
DA:3825,0
DA:3826,0
DA:3831,0
DA:3833,0
DA:3982,0
DA:3985,0
DA:3986,0
DA:3987,0
DA:3988,0
DA:3989,0
DA:3990,0
DA:3991,0
DA:3992,0
DA:3993,0
DA:3994,0
DA:3995,0
DA:3996,0
DA:4001,0
DA:4006,0
DA:4007,0
DA:4008,0
DA:4009,0
DA:4014,6
DA:4019,6
DA:4020,6
DA:4021,2
DA:4022,6
DA:4045,1
DA:4048,1
DA:4056,0
DA:4059,0
DA:4208,4
DA:4210,4
DA:4211,4
DA:4212,4
DA:4213,4
DA:4214,4
DA:4215,4
DA:4216,4
DA:4220,0
DA:4222,0
DA:4223,0
DA:4224,0
DA:4225,0
DA:4226,0
DA:4227,0
DA:4234,0
DA:4236,0
DA:4250,0
DA:4252,0
DA:4258,0
DA:4260,0
DA:4275,24
DA:4277,24
FNF:111
FNH:33
LF:238
LH:76
end_of_record
SF:/Users/phil/Downloads/fractal/protocol/build/_deps/googletest-src/googletest/include/gtest/gtest-printers.h
FN:547,_ZN7testing8internal7PrintToERKNSt3__112basic_stringIcNS1_11char_traitsIcEENS1_9allocatorIcEEEEPNS1_13basic_ostreamIcS4_EE
FNDA:0,_ZN7testing8internal7PrintToERKNSt3__112basic_stringIcNS1_11char_traitsIcEENS1_9allocatorIcEEEEPNS1_13basic_ostreamIcS4_EE
FN:574,_ZN7testing8internal7PrintToERKNSt3__112basic_stringIwNS1_11char_traitsIwEENS1_9allocatorIwEEEEPNS1_13basic_ostreamIcNS3_IcEEEE
FNDA:0,_ZN7testing8internal7PrintToERKNSt3__112basic_stringIwNS1_11char_traitsIwEENS1_9allocatorIwEEEEPNS1_13basic_ostreamIcNS3_IcEEEE
FN:680,_ZN7testing8internal16UniversalPrinterINSt3__112basic_stringIcNS2_11char_traitsIcEENS2_9allocatorIcEEEEE5PrintERKS8_PNS2_13basic_ostreamIcS5_EE
FNDA:0,_ZN7testing8internal16UniversalPrinterINSt3__112basic_stringIcNS2_11char_traitsIcEENS2_9allocatorIcEEEEE5PrintERKS8_PNS2_13basic_ostreamIcS5_EE
FN:680,_ZN7testing8internal16UniversalPrinterINSt3__112basic_stringIwNS2_11char_traitsIwEENS2_9allocatorIwEEEEE5PrintERKS8_PNS2_13basic_ostreamIcNS4_IcEEEE
FNDA:0,_ZN7testing8internal16UniversalPrinterINSt3__112basic_stringIwNS2_11char_traitsIwEENS2_9allocatorIwEEEEE5PrintERKS8_PNS2_13basic_ostreamIcNS4_IcEEEE
FN:883,_ZN7testing8internal21UniversalTersePrinterIPKcE5PrintES3_PNSt3__113basic_ostreamIcNS5_11char_traitsIcEEEE
FNDA:0,_ZN7testing8internal21UniversalTersePrinterIPKcE5PrintES3_PNSt3__113basic_ostreamIcNS5_11char_traitsIcEEEE
FN:946,_ZN7testing8internal21UniversalTersePrinterIPKwE5PrintES3_PNSt3__113basic_ostreamIcNS5_11char_traitsIcEEEE
FNDA:0,_ZN7testing8internal21UniversalTersePrinterIPKwE5PrintES3_PNSt3__113basic_ostreamIcNS5_11char_traitsIcEEEE
FN:974,_ZN7testing8internal14UniversalPrintINSt3__112basic_stringIcNS2_11char_traitsIcEENS2_9allocatorIcEEEEEEvRKT_PNS2_13basic_ostreamIcS5_EE
FNDA:0,_ZN7testing8internal14UniversalPrintINSt3__112basic_stringIcNS2_11char_traitsIcEENS2_9allocatorIcEEEEEEvRKT_PNS2_13basic_ostreamIcS5_EE
FN:974,_ZN7testing8internal14UniversalPrintINSt3__112basic_stringIwNS2_11char_traitsIwEENS2_9allocatorIwEEEEEEvRKT_PNS2_13basic_ostreamIcNS4_IcEEEE
FNDA:0,_ZN7testing8internal14UniversalPrintINSt3__112basic_stringIwNS2_11char_traitsIwEENS2_9allocatorIwEEEEEEvRKT_PNS2_13basic_ostreamIcNS4_IcEEEE
FN:1014,_ZN7testing13PrintToStringIPKcEENSt3__112basic_stringIcNS3_11char_traitsIcEENS3_9allocatorIcEEEERKT_
FNDA:0,_ZN7testing13PrintToStringIPKcEENSt3__112basic_stringIcNS3_11char_traitsIcEENS3_9allocatorIcEEEERKT_
FN:1014,_ZN7testing13PrintToStringIPKwEENSt3__112basic_stringIcNS3_11char_traitsIcEENS3_9allocatorIcEEEERKT_
FNDA:0,_ZN7testing13PrintToStringIPKwEENSt3__112basic_stringIcNS3_11char_traitsIcEENS3_9allocatorIcEEEERKT_
DA:547,0
DA:548,0
DA:549,0
DA:574,0
DA:575,0
DA:576,0
DA:680,0
DA:689,0
DA:690,0
DA:883,0
DA:884,0
DA:885,0
DA:886,0
DA:887,0
DA:889,0
DA:946,0
DA:947,0
DA:948,0
DA:949,0
DA:950,0
DA:952,0
DA:974,0
DA:978,0
DA:979,0
DA:1014,0
DA:1015,0
DA:1016,0
DA:1017,0
DA:1018,0
FNF:10
FNH:0
LF:29
LH:0
end_of_record
SF:/Library/Developer/CommandLineTools/SDKs/MacOSX11.3.sdk/usr/include/c++/v1/memory
FN:880,_ZNSt3__114pointer_traitsIPNS_15__tree_end_nodeIPNS_16__tree_node_baseIPvEEEEE10pointer_toERS6_
FNDA:5,_ZNSt3__114pointer_traitsIPNS_15__tree_end_nodeIPNS_16__tree_node_baseIPvEEEEE10pointer_toERS6_
FN:880,_ZNSt3__114pointer_traitsIPNS_4pairIKNS_12basic_stringIcNS_11char_traitsIcEENS_9allocatorIcEEEEmEEE10pointer_toERS9_
FNDA:0,_ZNSt3__114pointer_traitsIPNS_4pairIKNS_12basic_stringIcNS_11char_traitsIcEENS_9allocatorIcEEEEmEEE10pointer_toERS9_
FN:880,_ZNSt3__114pointer_traitsIPNS_12__value_typeINS_12basic_stringIcNS_11char_traitsIcEENS_9allocatorIcEEEEmEEE10pointer_toERS8_
FNDA:0,_ZNSt3__114pointer_traitsIPNS_12__value_typeINS_12basic_stringIcNS_11char_traitsIcEENS_9allocatorIcEEEEmEEE10pointer_toERS8_
FN:880,_ZNSt3__114pointer_traitsIPNS_16__list_node_baseINS_4pairIcPKcEEPvEEE10pointer_toERS7_
FNDA:0,_ZNSt3__114pointer_traitsIPNS_16__list_node_baseINS_4pairIcPKcEEPvEEE10pointer_toERS7_
FN:880,_ZNSt3__114pointer_traitsIPKNS_4pairIcPKcEEE10pointer_toERS5_
FNDA:0,_ZNSt3__114pointer_traitsIPKNS_4pairIcPKcEEE10pointer_toERS5_
FN:880,_ZNSt3__114pointer_traitsIPcE10pointer_toERc
FNDA:0,_ZNSt3__114pointer_traitsIPcE10pointer_toERc
FN:880,_ZNSt3__114pointer_traitsIPKNS_4pairIKNS_12basic_stringIcNS_11char_traitsIcEENS_9allocatorIcEEEEN7testing8internal12CodeLocationEEEE10pointer_toERSD_
FNDA:0,_ZNSt3__114pointer_traitsIPKNS_4pairIKNS_12basic_stringIcNS_11char_traitsIcEENS_9allocatorIcEEEEN7testing8internal12CodeLocationEEEE10pointer_toERSD_
FN:880,_ZNSt3__114pointer_traitsIPKNS_12__value_typeINS_12basic_stringIcNS_11char_traitsIcEENS_9allocatorIcEEEEN7testing8internal12CodeLocationEEEE10pointer_toERSC_
FNDA:0,_ZNSt3__114pointer_traitsIPKNS_12__value_typeINS_12basic_stringIcNS_11char_traitsIcEENS_9allocatorIcEEEEN7testing8internal12CodeLocationEEEE10pointer_toERSC_
FN:880,_ZNSt3__114pointer_traitsIPNS_4pairIKNS_12basic_stringIcNS_11char_traitsIcEENS_9allocatorIcEEEEN7testing8internal34TypeParameterizedTestSuiteRegistry30TypeParameterizedTestSuiteInfoEEEE10pointer_toERSD_
FNDA:0,_ZNSt3__114pointer_traitsIPNS_4pairIKNS_12basic_stringIcNS_11char_traitsIcEENS_9allocatorIcEEEEN7testing8internal34TypeParameterizedTestSuiteRegistry30TypeParameterizedTestSuiteInfoEEEE10pointer_toERSD_
FN:880,_ZNSt3__114pointer_traitsIPNS_12__value_typeINS_12basic_stringIcNS_11char_traitsIcEENS_9allocatorIcEEEEN7testing8internal34TypeParameterizedTestSuiteRegistry30TypeParameterizedTestSuiteInfoEEEE10pointer_toERSC_
FNDA:0,_ZNSt3__114pointer_traitsIPNS_12__value_typeINS_12basic_stringIcNS_11char_traitsIcEENS_9allocatorIcEEEEN7testing8internal34TypeParameterizedTestSuiteRegistry30TypeParameterizedTestSuiteInfoEEEE10pointer_toERSC_
FN:880,_ZNSt3__114pointer_traitsIPKcE10pointer_toERS1_
FNDA:122,_ZNSt3__114pointer_traitsIPKcE10pointer_toERS1_
FN:880,_ZNSt3__114pointer_traitsIPKPN7testing9TestSuiteEE10pointer_toERS4_
FNDA:0,_ZNSt3__114pointer_traitsIPKPN7testing9TestSuiteEE10pointer_toERS4_
FN:880,_ZNSt3__114pointer_traitsIPKDsE10pointer_toERS1_
FNDA:0,_ZNSt3__114pointer_traitsIPKDsE10pointer_toERS1_
FN:880,_ZNSt3__114pointer_traitsIPKDiE10pointer_toERS1_
FNDA:0,_ZNSt3__114pointer_traitsIPKDiE10pointer_toERS1_
FN:880,_ZNSt3__114pointer_traitsIPKwE10pointer_toERS1_
FNDA:0,_ZNSt3__114pointer_traitsIPKwE10pointer_toERS1_
FN:1015,_ZNSt3__1L12__to_addressINS_12basic_stringIcNS_11char_traitsIcEENS_9allocatorIcEEEEEEPT_S8_
FNDA:46,_ZNSt3__1L12__to_addressINS_12basic_stringIcNS_11char_traitsIcEENS_9allocatorIcEEEEEEPT_S8_
FN:1015,_ZNSt3__1L12__to_addressIPN7testing8internal30ParameterizedTestSuiteInfoBaseEEEPT_S6_
FNDA:4,_ZNSt3__1L12__to_addressIPN7testing8internal30ParameterizedTestSuiteInfoBaseEEEPT_S6_
FN:1015,_ZNSt3__1L12__to_addressIPcEEPT_S3_
FNDA:0,_ZNSt3__1L12__to_addressIPcEEPT_S3_
FN:1015,_ZNSt3__1L12__to_addressIN7testing14TestPartResultEEEPT_S4_
FNDA:24,_ZNSt3__1L12__to_addressIN7testing14TestPartResultEEEPT_S4_
FN:1015,_ZNSt3__1L12__to_addressIdEEPT_S2_
FNDA:0,_ZNSt3__1L12__to_addressIdEEPT_S2_
FN:1015,_ZNSt3__1L12__to_addressINS_6vectorIdNS_9allocatorIdEEEEEEPT_S6_
FNDA:0,_ZNSt3__1L12__to_addressINS_6vectorIdNS_9allocatorIdEEEEEEPT_S6_
FN:1015,_ZNSt3__1L12__to_addressIN7testing8internal13edit_distance8EditTypeEEEPT_S6_
FNDA:0,_ZNSt3__1L12__to_addressIN7testing8internal13edit_distance8EditTypeEEEPT_S6_
FN:1015,_ZNSt3__1L12__to_addressINS_6vectorIN7testing8internal13edit_distance8EditTypeENS_9allocatorIS5_EEEEEEPT_SA_
FNDA:0,_ZNSt3__1L12__to_addressINS_6vectorIN7testing8internal13edit_distance8EditTypeENS_9allocatorIS5_EEEEEEPT_SA_
FN:1015,_ZNSt3__1L12__to_addressImEEPT_S2_
FNDA:0,_ZNSt3__1L12__to_addressImEEPT_S2_
FN:1015,_ZNSt3__1L12__to_addressIN7testing12TestPropertyEEEPT_S4_
FNDA:24,_ZNSt3__1L12__to_addressIN7testing12TestPropertyEEEPT_S4_
FN:1015,_ZNSt3__1L12__to_addressIPN7testing8TestInfoEEEPT_S5_
FNDA:39,_ZNSt3__1L12__to_addressIPN7testing8TestInfoEEEPT_S5_
FN:1015,_ZNSt3__1L12__to_addressIiEEPT_S2_
FNDA:53,_ZNSt3__1L12__to_addressIiEEPT_S2_
FN:1015,_ZNSt3__1L12__to_addressIPN7testing17TestEventListenerEEEPT_S5_
FNDA:14,_ZNSt3__1L12__to_addressIPN7testing17TestEventListenerEEEPT_S5_
FN:1015,_ZNSt3__1L12__to_addressIPN7testing11EnvironmentEEEPT_S5_
FNDA:4,_ZNSt3__1L12__to_addressIPN7testing11EnvironmentEEEPT_S5_
FN:1015,_ZNSt3__1L12__to_addressIN7testing8internal9TraceInfoEEEPT_S5_
FNDA:0,_ZNSt3__1L12__to_addressIN7testing8internal9TraceInfoEEEPT_S5_
FN:1015,_ZNSt3__1L12__to_addressIPN7testing9TestSuiteEEEPT_S5_
FNDA:14,_ZNSt3__1L12__to_addressIPN7testing9TestSuiteEEEPT_S5_
FN:1015,_ZNSt3__1L12__to_addressIKcEEPT_S3_
FNDA:564,_ZNSt3__1L12__to_addressIKcEEPT_S3_
FN:1015,_ZNSt3__1L12__to_addressIKDsEEPT_S3_
FNDA:0,_ZNSt3__1L12__to_addressIKDsEEPT_S3_
FN:1015,_ZNSt3__1L12__to_addressIKDiEEPT_S3_
FNDA:0,_ZNSt3__1L12__to_addressIKDiEEPT_S3_
FN:1015,_ZNSt3__1L12__to_addressIKwEEPT_S3_
FNDA:0,_ZNSt3__1L12__to_addressIKwEEPT_S3_
FN:1399,_ZNSt3__116allocator_traitsINS_9allocatorINS_11__tree_nodeINS_12__value_typeINS_12basic_stringIcNS_11char_traitsIcEENS1_IcEEEEmEEPvEEEEE8allocateERSC_m
FNDA:0,_ZNSt3__116allocator_traitsINS_9allocatorINS_11__tree_nodeINS_12__value_typeINS_12basic_stringIcNS_11char_traitsIcEENS1_IcEEEEmEEPvEEEEE8allocateERSC_m
FN:1399,_ZNSt3__116allocator_traitsINS_9allocatorINS_11__list_nodeINS_4pairIcPKcEEPvEEEEE8allocateERS9_m
FNDA:0,_ZNSt3__116allocator_traitsINS_9allocatorINS_11__list_nodeINS_4pairIcPKcEEPvEEEEE8allocateERS9_m
FN:1399,_ZNSt3__116allocator_traitsINS_9allocatorINS_12basic_stringIcNS_11char_traitsIcEENS1_IcEEEEEEE8allocateERS7_m
FNDA:3,_ZNSt3__116allocator_traitsINS_9allocatorINS_12basic_stringIcNS_11char_traitsIcEENS1_IcEEEEEEE8allocateERS7_m
FN:1399,_ZNSt3__116allocator_traitsINS_9allocatorIPcEEE8allocateERS3_m
FNDA:0,_ZNSt3__116allocator_traitsINS_9allocatorIPcEEE8allocateERS3_m
FN:1399,_ZNSt3__116allocator_traitsINS_9allocatorIcEEE8allocateERS2_m
FNDA:0,_ZNSt3__116allocator_traitsINS_9allocatorIcEEE8allocateERS2_m
FN:1399,_ZNSt3__116allocator_traitsINS_9allocatorINS_11__tree_nodeINS_12basic_stringIcNS_11char_traitsIcEENS1_IcEEEEPvEEEEE8allocateERSA_m
FNDA:0,_ZNSt3__116allocator_traitsINS_9allocatorINS_11__tree_nodeINS_12basic_stringIcNS_11char_traitsIcEENS1_IcEEEEPvEEEEE8allocateERSA_m
FN:1399,_ZNSt3__116allocator_traitsINS_9allocatorINS_11__tree_nodeINS_12__value_typeINS_12basic_stringIcNS_11char_traitsIcEENS1_IcEEEEN7testing8internal34TypeParameterizedTestSuiteRegistry30TypeParameterizedTestSuiteInfoEEEPvEEEEE8allocateERSG_m
FNDA:0,_ZNSt3__116allocator_traitsINS_9allocatorINS_11__tree_nodeINS_12__value_typeINS_12basic_stringIcNS_11char_traitsIcEENS1_IcEEEEN7testing8internal34TypeParameterizedTestSuiteRegistry30TypeParameterizedTestSuiteInfoEEEPvEEEEE8allocateERSG_m
FN:1399,_ZNSt3__116allocator_traitsINS_9allocatorIdEEE8allocateERS2_m
FNDA:0,_ZNSt3__116allocator_traitsINS_9allocatorIdEEE8allocateERS2_m
FN:1399,_ZNSt3__116allocator_traitsINS_9allocatorINS_6vectorIdNS1_IdEEEEEEE8allocateERS5_m
FNDA:0,_ZNSt3__116allocator_traitsINS_9allocatorINS_6vectorIdNS1_IdEEEEEEE8allocateERS5_m
FN:1399,_ZNSt3__116allocator_traitsINS_9allocatorIN7testing8internal13edit_distance8EditTypeEEEE8allocateERS6_m
FNDA:0,_ZNSt3__116allocator_traitsINS_9allocatorIN7testing8internal13edit_distance8EditTypeEEEE8allocateERS6_m
FN:1399,_ZNSt3__116allocator_traitsINS_9allocatorINS_6vectorIN7testing8internal13edit_distance8EditTypeENS1_IS6_EEEEEEE8allocateERS9_m
FNDA:0,_ZNSt3__116allocator_traitsINS_9allocatorINS_6vectorIN7testing8internal13edit_distance8EditTypeENS1_IS6_EEEEEEE8allocateERS9_m
FN:1399,_ZNSt3__116allocator_traitsINS_9allocatorImEEE8allocateERS2_m
FNDA:0,_ZNSt3__116allocator_traitsINS_9allocatorImEEE8allocateERS2_m
FN:1399,_ZNSt3__116allocator_traitsINS_9allocatorIN7testing14TestPartResultEEEE8allocateERS4_m
FNDA:0,_ZNSt3__116allocator_traitsINS_9allocatorIN7testing14TestPartResultEEEE8allocateERS4_m
FN:1399,_ZNSt3__116allocator_traitsINS_9allocatorIN7testing12TestPropertyEEEE8allocateERS4_m
FNDA:0,_ZNSt3__116allocator_traitsINS_9allocatorIN7testing12TestPropertyEEEE8allocateERS4_m
FN:1399,_ZNSt3__116allocator_traitsINS_9allocatorIPN7testing8TestInfoEEEE8allocateERS5_m
FNDA:3,_ZNSt3__116allocator_traitsINS_9allocatorIPN7testing8TestInfoEEEE8allocateERS5_m
FN:1399,_ZNSt3__116allocator_traitsINS_9allocatorIiEEE8allocateERS2_m
FNDA:4,_ZNSt3__116allocator_traitsINS_9allocatorIiEEE8allocateERS2_m
FN:1399,_ZNSt3__116allocator_traitsINS_9allocatorIPN7testing17TestEventListenerEEEE8allocateERS5_m
FNDA:1,_ZNSt3__116allocator_traitsINS_9allocatorIPN7testing17TestEventListenerEEEE8allocateERS5_m
FN:1399,_ZNSt3__116allocator_traitsINS_9allocatorIPN7testing11EnvironmentEEEE8allocateERS5_m
FNDA:0,_ZNSt3__116allocator_traitsINS_9allocatorIPN7testing11EnvironmentEEEE8allocateERS5_m
FN:1399,_ZNSt3__116allocator_traitsINS_9allocatorIN7testing8internal9TraceInfoEEEE8allocateERS5_m
FNDA:0,_ZNSt3__116allocator_traitsINS_9allocatorIN7testing8internal9TraceInfoEEEE8allocateERS5_m
FN:1399,_ZNSt3__116allocator_traitsINS_9allocatorIPN7testing9TestSuiteEEEE8allocateERS5_m
FNDA:1,_ZNSt3__116allocator_traitsINS_9allocatorIPN7testing9TestSuiteEEEE8allocateERS5_m
FN:1407,_ZNSt3__116allocator_traitsINS_9allocatorINS_11__tree_nodeINS_12__value_typeINS_12basic_stringIcNS_11char_traitsIcEENS1_IcEEEEmEEPvEEEEE10deallocateERSC_PSB_m
FNDA:0,_ZNSt3__116allocator_traitsINS_9allocatorINS_11__tree_nodeINS_12__value_typeINS_12basic_stringIcNS_11char_traitsIcEENS1_IcEEEEmEEPvEEEEE10deallocateERSC_PSB_m
FN:1407,_ZNSt3__116allocator_traitsINS_9allocatorINS_11__list_nodeINS_4pairIcPKcEEPvEEEEE10deallocateERS9_PS8_m
FNDA:0,_ZNSt3__116allocator_traitsINS_9allocatorINS_11__list_nodeINS_4pairIcPKcEEPvEEEEE10deallocateERS9_PS8_m
FN:1407,_ZNSt3__116allocator_traitsINS_9allocatorINS_12basic_stringIcNS_11char_traitsIcEENS1_IcEEEEEEE10deallocateERS7_PS6_m
FNDA:3,_ZNSt3__116allocator_traitsINS_9allocatorINS_12basic_stringIcNS_11char_traitsIcEENS1_IcEEEEEEE10deallocateERS7_PS6_m
FN:1407,_ZNSt3__116allocator_traitsINS_9allocatorINS_11__tree_nodeINS_12__value_typeINS_12basic_stringIcNS_11char_traitsIcEENS1_IcEEEEN7testing8internal34TypeParameterizedTestSuiteRegistry30TypeParameterizedTestSuiteInfoEEEPvEEEEE10deallocateERSG_PSF_m
FNDA:0,_ZNSt3__116allocator_traitsINS_9allocatorINS_11__tree_nodeINS_12__value_typeINS_12basic_stringIcNS_11char_traitsIcEENS1_IcEEEEN7testing8internal34TypeParameterizedTestSuiteRegistry30TypeParameterizedTestSuiteInfoEEEPvEEEEE10deallocateERSG_PSF_m
FN:1407,_ZNSt3__116allocator_traitsINS_9allocatorIPN7testing8internal30ParameterizedTestSuiteInfoBaseEEEE10deallocateERS6_PS5_m
FNDA:0,_ZNSt3__116allocator_traitsINS_9allocatorIPN7testing8internal30ParameterizedTestSuiteInfoBaseEEEE10deallocateERS6_PS5_m
FN:1407,_ZNSt3__116allocator_traitsINS_9allocatorIPcEEE10deallocateERS3_PS2_m
FNDA:0,_ZNSt3__116allocator_traitsINS_9allocatorIPcEEE10deallocateERS3_PS2_m
FN:1407,_ZNSt3__116allocator_traitsINS_9allocatorIN7testing14TestPartResultEEEE10deallocateERS4_PS3_m
FNDA:0,_ZNSt3__116allocator_traitsINS_9allocatorIN7testing14TestPartResultEEEE10deallocateERS4_PS3_m
FN:1407,_ZNSt3__116allocator_traitsINS_9allocatorINS_11__tree_nodeINS_12basic_stringIcNS_11char_traitsIcEENS1_IcEEEEPvEEEEE10deallocateERSA_PS9_m
FNDA:0,_ZNSt3__116allocator_traitsINS_9allocatorINS_11__tree_nodeINS_12basic_stringIcNS_11char_traitsIcEENS1_IcEEEEPvEEEEE10deallocateERSA_PS9_m
FN:1407,_ZNSt3__116allocator_traitsINS_9allocatorIcEEE10deallocateERS2_Pcm
FNDA:0,_ZNSt3__116allocator_traitsINS_9allocatorIcEEE10deallocateERS2_Pcm
FN:1407,_ZNSt3__116allocator_traitsINS_9allocatorIdEEE10deallocateERS2_Pdm
FNDA:0,_ZNSt3__116allocator_traitsINS_9allocatorIdEEE10deallocateERS2_Pdm
FN:1407,_ZNSt3__116allocator_traitsINS_9allocatorINS_6vectorIdNS1_IdEEEEEEE10deallocateERS5_PS4_m
FNDA:0,_ZNSt3__116allocator_traitsINS_9allocatorINS_6vectorIdNS1_IdEEEEEEE10deallocateERS5_PS4_m
FN:1407,_ZNSt3__116allocator_traitsINS_9allocatorIN7testing8internal13edit_distance8EditTypeEEEE10deallocateERS6_PS5_m
FNDA:0,_ZNSt3__116allocator_traitsINS_9allocatorIN7testing8internal13edit_distance8EditTypeEEEE10deallocateERS6_PS5_m
FN:1407,_ZNSt3__116allocator_traitsINS_9allocatorINS_6vectorIN7testing8internal13edit_distance8EditTypeENS1_IS6_EEEEEEE10deallocateERS9_PS8_m
FNDA:0,_ZNSt3__116allocator_traitsINS_9allocatorINS_6vectorIN7testing8internal13edit_distance8EditTypeENS1_IS6_EEEEEEE10deallocateERS9_PS8_m
FN:1407,_ZNSt3__116allocator_traitsINS_9allocatorImEEE10deallocateERS2_Pmm
FNDA:0,_ZNSt3__116allocator_traitsINS_9allocatorImEEE10deallocateERS2_Pmm
FN:1407,_ZNSt3__116allocator_traitsINS_9allocatorIN7testing12TestPropertyEEEE10deallocateERS4_PS3_m
FNDA:0,_ZNSt3__116allocator_traitsINS_9allocatorIN7testing12TestPropertyEEEE10deallocateERS4_PS3_m
FN:1407,_ZNSt3__116allocator_traitsINS_9allocatorIPN7testing8TestInfoEEEE10deallocateERS5_PS4_m
FNDA:3,_ZNSt3__116allocator_traitsINS_9allocatorIPN7testing8TestInfoEEEE10deallocateERS5_PS4_m
FN:1407,_ZNSt3__116allocator_traitsINS_9allocatorIiEEE10deallocateERS2_Pim
FNDA:4,_ZNSt3__116allocator_traitsINS_9allocatorIiEEE10deallocateERS2_Pim
FN:1407,_ZNSt3__116allocator_traitsINS_9allocatorIPN7testing17TestEventListenerEEEE10deallocateERS5_PS4_m
FNDA:1,_ZNSt3__116allocator_traitsINS_9allocatorIPN7testing17TestEventListenerEEEE10deallocateERS5_PS4_m
FN:1407,_ZNSt3__116allocator_traitsINS_9allocatorIPN7testing11EnvironmentEEEE10deallocateERS5_PS4_m
FNDA:0,_ZNSt3__116allocator_traitsINS_9allocatorIPN7testing11EnvironmentEEEE10deallocateERS5_PS4_m
FN:1407,_ZNSt3__116allocator_traitsINS_9allocatorIN7testing8internal9TraceInfoEEEE10deallocateERS5_PS4_m
FNDA:0,_ZNSt3__116allocator_traitsINS_9allocatorIN7testing8internal9TraceInfoEEEE10deallocateERS5_PS4_m
FN:1407,_ZNSt3__116allocator_traitsINS_9allocatorIPN7testing9TestSuiteEEEE10deallocateERS5_PS4_m
FNDA:1,_ZNSt3__116allocator_traitsINS_9allocatorIPN7testing9TestSuiteEEEE10deallocateERS5_PS4_m
FN:1412,_ZNSt3__116allocator_traitsINS_9allocatorINS_11__tree_nodeINS_12__value_typeINS_12basic_stringIcNS_11char_traitsIcEENS1_IcEEEEmEEPvEEEEE9constructINS_4pairIKS8_mEEJRKNS_21piecewise_construct_tENS_5tupleIJRSG_EEENSL_IJEEEEEEvRSC_PT_DpOT0_
FNDA:0,_ZNSt3__116allocator_traitsINS_9allocatorINS_11__tree_nodeINS_12__value_typeINS_12basic_stringIcNS_11char_traitsIcEENS1_IcEEEEmEEPvEEEEE9constructINS_4pairIKS8_mEEJRKNS_21piecewise_construct_tENS_5tupleIJRSG_EEENSL_IJEEEEEEvRSC_PT_DpOT0_
FN:1412,_ZNSt3__116allocator_traitsINS_9allocatorINS_11__list_nodeINS_4pairIcPKcEEPvEEEEE9constructIS6_JS6_EEEvRS9_PT_DpOT0_
FNDA:0,_ZNSt3__116allocator_traitsINS_9allocatorINS_11__list_nodeINS_4pairIcPKcEEPvEEEEE9constructIS6_JS6_EEEvRS9_PT_DpOT0_
FN:1412,_ZNSt3__116allocator_traitsINS_9allocatorINS_12basic_stringIcNS_11char_traitsIcEENS1_IcEEEEEEE9constructIS6_JRKPKcEEEvRS7_PT_DpOT0_
FNDA:0,_ZNSt3__116allocator_traitsINS_9allocatorINS_12basic_stringIcNS_11char_traitsIcEENS1_IcEEEEEEE9constructIS6_JRKPKcEEEvRS7_PT_DpOT0_
FN:1412,_ZNSt3__116allocator_traitsINS_9allocatorIPcEEE9constructIS2_JS2_EEEvRS3_PT_DpOT0_
FNDA:0,_ZNSt3__116allocator_traitsINS_9allocatorIPcEEE9constructIS2_JS2_EEEvRS3_PT_DpOT0_
FN:1412,_ZNSt3__116allocator_traitsINS_9allocatorINS_11__tree_nodeINS_12basic_stringIcNS_11char_traitsIcEENS1_IcEEEEPvEEEEE9constructIS7_JS7_EEEvRSA_PT_DpOT0_
FNDA:0,_ZNSt3__116allocator_traitsINS_9allocatorINS_11__tree_nodeINS_12basic_stringIcNS_11char_traitsIcEENS1_IcEEEEPvEEEEE9constructIS7_JS7_EEEvRSA_PT_DpOT0_
FN:1412,_ZNSt3__116allocator_traitsINS_9allocatorINS_11__tree_nodeINS_12__value_typeINS_12basic_stringIcNS_11char_traitsIcEENS1_IcEEEEN7testing8internal34TypeParameterizedTestSuiteRegistry30TypeParameterizedTestSuiteInfoEEEPvEEEEE9constructINS_4pairIKS8_SC_EEJS8_SC_EEEvRSG_PT_DpOT0_
FNDA:0,_ZNSt3__116allocator_traitsINS_9allocatorINS_11__tree_nodeINS_12__value_typeINS_12basic_stringIcNS_11char_traitsIcEENS1_IcEEEEN7testing8internal34TypeParameterizedTestSuiteRegistry30TypeParameterizedTestSuiteInfoEEEPvEEEEE9constructINS_4pairIKS8_SC_EEJS8_SC_EEEvRSG_PT_DpOT0_
FN:1412,_ZNSt3__116allocator_traitsINS_9allocatorINS_12basic_stringIcNS_11char_traitsIcEENS1_IcEEEEEEE9constructIS6_JRS6_EEEvRS7_PT_DpOT0_
FNDA:2,_ZNSt3__116allocator_traitsINS_9allocatorINS_12basic_stringIcNS_11char_traitsIcEENS1_IcEEEEEEE9constructIS6_JRS6_EEEvRS7_PT_DpOT0_
FN:1412,_ZNSt3__116allocator_traitsINS_9allocatorINS_12basic_stringIcNS_11char_traitsIcEENS1_IcEEEEEEE9constructIS6_JS6_EEEvRS7_PT_DpOT0_
FNDA:3,_ZNSt3__116allocator_traitsINS_9allocatorINS_12basic_stringIcNS_11char_traitsIcEENS1_IcEEEEEEE9constructIS6_JS6_EEEvRS7_PT_DpOT0_
FN:1412,_ZNSt3__116allocator_traitsINS_9allocatorIdEEE9constructIdJEEEvRS2_PT_DpOT0_
FNDA:0,_ZNSt3__116allocator_traitsINS_9allocatorIdEEE9constructIdJEEEvRS2_PT_DpOT0_
FN:1412,_ZNSt3__116allocator_traitsINS_9allocatorINS_6vectorIdNS1_IdEEEEEEE9constructIS4_JRKS4_EEEvRS5_PT_DpOT0_
FNDA:0,_ZNSt3__116allocator_traitsINS_9allocatorINS_6vectorIdNS1_IdEEEEEEE9constructIS4_JRKS4_EEEvRS5_PT_DpOT0_
FN:1412,_ZNSt3__116allocator_traitsINS_9allocatorIN7testing8internal13edit_distance8EditTypeEEEE9constructIS5_JEEEvRS6_PT_DpOT0_
FNDA:0,_ZNSt3__116allocator_traitsINS_9allocatorIN7testing8internal13edit_distance8EditTypeEEEE9constructIS5_JEEEvRS6_PT_DpOT0_
FN:1412,_ZNSt3__116allocator_traitsINS_9allocatorINS_6vectorIN7testing8internal13edit_distance8EditTypeENS1_IS6_EEEEEEE9constructIS8_JRKS8_EEEvRS9_PT_DpOT0_
FNDA:0,_ZNSt3__116allocator_traitsINS_9allocatorINS_6vectorIN7testing8internal13edit_distance8EditTypeENS1_IS6_EEEEEEE9constructIS8_JRKS8_EEEvRS9_PT_DpOT0_
FN:1412,_ZNSt3__116allocator_traitsINS_9allocatorIN7testing8internal13edit_distance8EditTypeEEEE9constructIS5_JRKS5_EEEvRS6_PT_DpOT0_
FNDA:0,_ZNSt3__116allocator_traitsINS_9allocatorIN7testing8internal13edit_distance8EditTypeEEEE9constructIS5_JRKS5_EEEvRS6_PT_DpOT0_
FN:1412,_ZNSt3__116allocator_traitsINS_9allocatorImEEE9constructImJmEEEvRS2_PT_DpOT0_
FNDA:0,_ZNSt3__116allocator_traitsINS_9allocatorImEEE9constructImJmEEEvRS2_PT_DpOT0_
FN:1412,_ZNSt3__116allocator_traitsINS_9allocatorIN7testing14TestPartResultEEEE9constructIS3_JRKS3_EEEvRS4_PT_DpOT0_
FNDA:0,_ZNSt3__116allocator_traitsINS_9allocatorIN7testing14TestPartResultEEEE9constructIS3_JRKS3_EEEvRS4_PT_DpOT0_
